ARM GAS  C:\Users\Milo\AppData\Local\Temp\ccatHGDr.s 			page 1


   1              		.cpu cortex-m0
   2              		.fpu softvfp
   3              		.eabi_attribute 20, 1
   4              		.eabi_attribute 21, 1
   5              		.eabi_attribute 23, 3
   6              		.eabi_attribute 24, 1
   7              		.eabi_attribute 25, 1
   8              		.eabi_attribute 26, 1
   9              		.eabi_attribute 30, 4
  10              		.eabi_attribute 34, 0
  11              		.eabi_attribute 18, 4
  12              		.code	16
  13              		.file	"cyfitter_cfg.c"
  14              		.text
  15              	.Ltext0:
  16              		.cfi_sections	.debug_frame
  17              		.section	.psocinit,"ax",%progbits
  18              		.align	1
  19              		.global	cyfitter_cfg
  20              		.code	16
  21              		.thumb_func
  22              		.type	cyfitter_cfg, %function
  23              	cyfitter_cfg:
  24              	.LFB7:
  25              		.file 1 ".\\Generated_Source\\PSoC4\\cyfitter_cfg.c"
   1:.\Generated_Source\PSoC4/cyfitter_cfg.c **** /*******************************************************************************
   2:.\Generated_Source\PSoC4/cyfitter_cfg.c **** * FILENAME: cyfitter_cfg.c
   3:.\Generated_Source\PSoC4/cyfitter_cfg.c **** * PSoC Creator 3.0 SP1
   4:.\Generated_Source\PSoC4/cyfitter_cfg.c **** *
   5:.\Generated_Source\PSoC4/cyfitter_cfg.c **** * Description:
   6:.\Generated_Source\PSoC4/cyfitter_cfg.c **** * This file is automatically generated by PSoC Creator with device 
   7:.\Generated_Source\PSoC4/cyfitter_cfg.c **** * initialization code.  Except for the user defined sections in
   8:.\Generated_Source\PSoC4/cyfitter_cfg.c **** * CyClockStartupError(), this file should not be modified.
   9:.\Generated_Source\PSoC4/cyfitter_cfg.c **** *
  10:.\Generated_Source\PSoC4/cyfitter_cfg.c **** ********************************************************************************
  11:.\Generated_Source\PSoC4/cyfitter_cfg.c **** * Copyright 2013, Cypress Semiconductor Corporation.  All rights reserved.
  12:.\Generated_Source\PSoC4/cyfitter_cfg.c **** * You may use this file only in accordance with the license, terms, conditions, 
  13:.\Generated_Source\PSoC4/cyfitter_cfg.c **** * disclaimers, and limitations in the end user license agreement accompanying 
  14:.\Generated_Source\PSoC4/cyfitter_cfg.c **** * the software package with which this file was provided.
  15:.\Generated_Source\PSoC4/cyfitter_cfg.c **** ********************************************************************************/
  16:.\Generated_Source\PSoC4/cyfitter_cfg.c **** 
  17:.\Generated_Source\PSoC4/cyfitter_cfg.c **** #include <string.h>
  18:.\Generated_Source\PSoC4/cyfitter_cfg.c **** #include <cytypes.h>
  19:.\Generated_Source\PSoC4/cyfitter_cfg.c **** #include <cydevice_trm.h>
  20:.\Generated_Source\PSoC4/cyfitter_cfg.c **** #include <cyfitter.h>
  21:.\Generated_Source\PSoC4/cyfitter_cfg.c **** #include <CyLib.h>
  22:.\Generated_Source\PSoC4/cyfitter_cfg.c **** #include <cyfitter_cfg.h>
  23:.\Generated_Source\PSoC4/cyfitter_cfg.c **** 
  24:.\Generated_Source\PSoC4/cyfitter_cfg.c **** 
  25:.\Generated_Source\PSoC4/cyfitter_cfg.c **** #if defined(__GNUC__) || defined(__ARMCC_VERSION)
  26:.\Generated_Source\PSoC4/cyfitter_cfg.c ****     #define CYPACKED 
  27:.\Generated_Source\PSoC4/cyfitter_cfg.c ****     #define CYPACKED_ATTR __attribute__ ((packed))
  28:.\Generated_Source\PSoC4/cyfitter_cfg.c ****     #define CYALIGNED __attribute__ ((aligned))
  29:.\Generated_Source\PSoC4/cyfitter_cfg.c ****     #define CY_CFG_UNUSED __attribute__ ((unused))
  30:.\Generated_Source\PSoC4/cyfitter_cfg.c ****     #define CY_CFG_SECTION __attribute__ ((section(".psocinit")))
  31:.\Generated_Source\PSoC4/cyfitter_cfg.c ****     
  32:.\Generated_Source\PSoC4/cyfitter_cfg.c ****     #if defined(__ARMCC_VERSION)
ARM GAS  C:\Users\Milo\AppData\Local\Temp\ccatHGDr.s 			page 2


  33:.\Generated_Source\PSoC4/cyfitter_cfg.c ****         #define CY_CFG_MEMORY_BARRIER() __memory_changed()
  34:.\Generated_Source\PSoC4/cyfitter_cfg.c ****     #else
  35:.\Generated_Source\PSoC4/cyfitter_cfg.c ****         #define CY_CFG_MEMORY_BARRIER() __sync_synchronize()
  36:.\Generated_Source\PSoC4/cyfitter_cfg.c ****     #endif
  37:.\Generated_Source\PSoC4/cyfitter_cfg.c ****     
  38:.\Generated_Source\PSoC4/cyfitter_cfg.c **** #elif defined(__ICCARM__)
  39:.\Generated_Source\PSoC4/cyfitter_cfg.c ****     #include <intrinsics.h>
  40:.\Generated_Source\PSoC4/cyfitter_cfg.c **** 
  41:.\Generated_Source\PSoC4/cyfitter_cfg.c ****     #define CYPACKED __packed
  42:.\Generated_Source\PSoC4/cyfitter_cfg.c ****     #define CYPACKED_ATTR 
  43:.\Generated_Source\PSoC4/cyfitter_cfg.c ****     #define CYALIGNED _Pragma("data_alignment=4")
  44:.\Generated_Source\PSoC4/cyfitter_cfg.c ****     #define CY_CFG_UNUSED _Pragma("diag_suppress=Pe177")
  45:.\Generated_Source\PSoC4/cyfitter_cfg.c ****     #define CY_CFG_SECTION _Pragma("location=\".psocinit\"")
  46:.\Generated_Source\PSoC4/cyfitter_cfg.c ****     
  47:.\Generated_Source\PSoC4/cyfitter_cfg.c ****     #define CY_CFG_MEMORY_BARRIER() __DMB()
  48:.\Generated_Source\PSoC4/cyfitter_cfg.c ****     
  49:.\Generated_Source\PSoC4/cyfitter_cfg.c **** #else
  50:.\Generated_Source\PSoC4/cyfitter_cfg.c ****     #error Unsupported toolchain
  51:.\Generated_Source\PSoC4/cyfitter_cfg.c **** #endif
  52:.\Generated_Source\PSoC4/cyfitter_cfg.c **** 
  53:.\Generated_Source\PSoC4/cyfitter_cfg.c **** 
  54:.\Generated_Source\PSoC4/cyfitter_cfg.c **** CY_CFG_UNUSED
  55:.\Generated_Source\PSoC4/cyfitter_cfg.c **** static void CYMEMZERO(void *s, size_t n);
  56:.\Generated_Source\PSoC4/cyfitter_cfg.c **** CY_CFG_UNUSED
  57:.\Generated_Source\PSoC4/cyfitter_cfg.c **** static void CYMEMZERO(void *s, size_t n)
  58:.\Generated_Source\PSoC4/cyfitter_cfg.c **** {
  59:.\Generated_Source\PSoC4/cyfitter_cfg.c **** 	(void)memset(s, 0, n);
  60:.\Generated_Source\PSoC4/cyfitter_cfg.c **** }
  61:.\Generated_Source\PSoC4/cyfitter_cfg.c **** CY_CFG_UNUSED
  62:.\Generated_Source\PSoC4/cyfitter_cfg.c **** static void CYCONFIGCPY(void *dest, const void *src, size_t n);
  63:.\Generated_Source\PSoC4/cyfitter_cfg.c **** CY_CFG_UNUSED
  64:.\Generated_Source\PSoC4/cyfitter_cfg.c **** static void CYCONFIGCPY(void *dest, const void *src, size_t n)
  65:.\Generated_Source\PSoC4/cyfitter_cfg.c **** {
  66:.\Generated_Source\PSoC4/cyfitter_cfg.c **** 	(void)memcpy(dest, src, n);
  67:.\Generated_Source\PSoC4/cyfitter_cfg.c **** }
  68:.\Generated_Source\PSoC4/cyfitter_cfg.c **** CY_CFG_UNUSED
  69:.\Generated_Source\PSoC4/cyfitter_cfg.c **** static void CYCONFIGCPYCODE(void *dest, const void *src, size_t n);
  70:.\Generated_Source\PSoC4/cyfitter_cfg.c **** CY_CFG_UNUSED
  71:.\Generated_Source\PSoC4/cyfitter_cfg.c **** static void CYCONFIGCPYCODE(void *dest, const void *src, size_t n)
  72:.\Generated_Source\PSoC4/cyfitter_cfg.c **** {
  73:.\Generated_Source\PSoC4/cyfitter_cfg.c **** 	(void)memcpy(dest, src, n);
  74:.\Generated_Source\PSoC4/cyfitter_cfg.c **** }
  75:.\Generated_Source\PSoC4/cyfitter_cfg.c **** 
  76:.\Generated_Source\PSoC4/cyfitter_cfg.c **** 
  77:.\Generated_Source\PSoC4/cyfitter_cfg.c **** 
  78:.\Generated_Source\PSoC4/cyfitter_cfg.c **** /* Clock startup error codes                                                   */
  79:.\Generated_Source\PSoC4/cyfitter_cfg.c **** #define CYCLOCKSTART_NO_ERROR    0u
  80:.\Generated_Source\PSoC4/cyfitter_cfg.c **** #define CYCLOCKSTART_XTAL_ERROR  1u
  81:.\Generated_Source\PSoC4/cyfitter_cfg.c **** #define CYCLOCKSTART_32KHZ_ERROR 2u
  82:.\Generated_Source\PSoC4/cyfitter_cfg.c **** #define CYCLOCKSTART_PLL_ERROR   3u
  83:.\Generated_Source\PSoC4/cyfitter_cfg.c **** 
  84:.\Generated_Source\PSoC4/cyfitter_cfg.c **** #ifdef CY_NEED_CYCLOCKSTARTUPERROR
  85:.\Generated_Source\PSoC4/cyfitter_cfg.c **** /*******************************************************************************
  86:.\Generated_Source\PSoC4/cyfitter_cfg.c **** * Function Name: CyClockStartupError
  87:.\Generated_Source\PSoC4/cyfitter_cfg.c **** ********************************************************************************
  88:.\Generated_Source\PSoC4/cyfitter_cfg.c **** * Summary:
  89:.\Generated_Source\PSoC4/cyfitter_cfg.c **** *  If an error is encountered during clock configuration (crystal startup error,
ARM GAS  C:\Users\Milo\AppData\Local\Temp\ccatHGDr.s 			page 3


  90:.\Generated_Source\PSoC4/cyfitter_cfg.c **** *  PLL lock error, etc.), the system will end up here.  Unless reimplemented by
  91:.\Generated_Source\PSoC4/cyfitter_cfg.c **** *  the customer, this function will stop in an infinite loop.
  92:.\Generated_Source\PSoC4/cyfitter_cfg.c **** *
  93:.\Generated_Source\PSoC4/cyfitter_cfg.c **** * Parameters:
  94:.\Generated_Source\PSoC4/cyfitter_cfg.c **** *   void
  95:.\Generated_Source\PSoC4/cyfitter_cfg.c **** *
  96:.\Generated_Source\PSoC4/cyfitter_cfg.c **** * Return:
  97:.\Generated_Source\PSoC4/cyfitter_cfg.c **** *   void
  98:.\Generated_Source\PSoC4/cyfitter_cfg.c **** *
  99:.\Generated_Source\PSoC4/cyfitter_cfg.c **** *******************************************************************************/
 100:.\Generated_Source\PSoC4/cyfitter_cfg.c **** CY_CFG_UNUSED
 101:.\Generated_Source\PSoC4/cyfitter_cfg.c **** static void CyClockStartupError(uint8 errorCode);
 102:.\Generated_Source\PSoC4/cyfitter_cfg.c **** CY_CFG_UNUSED
 103:.\Generated_Source\PSoC4/cyfitter_cfg.c **** static void CyClockStartupError(uint8 errorCode)
 104:.\Generated_Source\PSoC4/cyfitter_cfg.c **** {
 105:.\Generated_Source\PSoC4/cyfitter_cfg.c ****     /* To remove the compiler warning if errorCode not used.                */
 106:.\Generated_Source\PSoC4/cyfitter_cfg.c ****     errorCode = errorCode;
 107:.\Generated_Source\PSoC4/cyfitter_cfg.c **** 
 108:.\Generated_Source\PSoC4/cyfitter_cfg.c ****     /* `#START CyClockStartupError` */
 109:.\Generated_Source\PSoC4/cyfitter_cfg.c **** 
 110:.\Generated_Source\PSoC4/cyfitter_cfg.c ****     /* If we have a clock startup error (bad MHz crystal, PLL lock, etc.),  */
 111:.\Generated_Source\PSoC4/cyfitter_cfg.c ****     /* we will end up here to allow the customer to implement something to  */
 112:.\Generated_Source\PSoC4/cyfitter_cfg.c ****     /* deal with the clock condition.                                       */
 113:.\Generated_Source\PSoC4/cyfitter_cfg.c **** 
 114:.\Generated_Source\PSoC4/cyfitter_cfg.c ****     /* `#END` */
 115:.\Generated_Source\PSoC4/cyfitter_cfg.c **** 
 116:.\Generated_Source\PSoC4/cyfitter_cfg.c ****     /* If nothing else, stop here since the clocks have not started         */
 117:.\Generated_Source\PSoC4/cyfitter_cfg.c ****     /* correctly.                                                           */
 118:.\Generated_Source\PSoC4/cyfitter_cfg.c ****     while(1) {}
 119:.\Generated_Source\PSoC4/cyfitter_cfg.c **** }
 120:.\Generated_Source\PSoC4/cyfitter_cfg.c **** #endif
 121:.\Generated_Source\PSoC4/cyfitter_cfg.c **** 
 122:.\Generated_Source\PSoC4/cyfitter_cfg.c **** #define CY_CFG_BASE_ADDR_COUNT 8u
 123:.\Generated_Source\PSoC4/cyfitter_cfg.c **** CYPACKED typedef struct
 124:.\Generated_Source\PSoC4/cyfitter_cfg.c **** {
 125:.\Generated_Source\PSoC4/cyfitter_cfg.c **** 	uint8 offset;
 126:.\Generated_Source\PSoC4/cyfitter_cfg.c **** 	uint8 value;
 127:.\Generated_Source\PSoC4/cyfitter_cfg.c **** } CYPACKED_ATTR cy_cfg_addrvalue_t;
 128:.\Generated_Source\PSoC4/cyfitter_cfg.c **** 
 129:.\Generated_Source\PSoC4/cyfitter_cfg.c **** 
 130:.\Generated_Source\PSoC4/cyfitter_cfg.c **** 
 131:.\Generated_Source\PSoC4/cyfitter_cfg.c **** /*******************************************************************************
 132:.\Generated_Source\PSoC4/cyfitter_cfg.c **** * Function Name: cfg_write_bytes32
 133:.\Generated_Source\PSoC4/cyfitter_cfg.c **** ********************************************************************************
 134:.\Generated_Source\PSoC4/cyfitter_cfg.c **** * Summary:
 135:.\Generated_Source\PSoC4/cyfitter_cfg.c **** *  This function is used for setting up the chip configuration areas that
 136:.\Generated_Source\PSoC4/cyfitter_cfg.c **** *  contain relatively sparse data.
 137:.\Generated_Source\PSoC4/cyfitter_cfg.c **** *
 138:.\Generated_Source\PSoC4/cyfitter_cfg.c **** * Parameters:
 139:.\Generated_Source\PSoC4/cyfitter_cfg.c **** *   void
 140:.\Generated_Source\PSoC4/cyfitter_cfg.c **** *
 141:.\Generated_Source\PSoC4/cyfitter_cfg.c **** * Return:
 142:.\Generated_Source\PSoC4/cyfitter_cfg.c **** *   void
 143:.\Generated_Source\PSoC4/cyfitter_cfg.c **** *
 144:.\Generated_Source\PSoC4/cyfitter_cfg.c **** *******************************************************************************/
 145:.\Generated_Source\PSoC4/cyfitter_cfg.c **** static void cfg_write_bytes32(const uint32 addr_table[], const cy_cfg_addrvalue_t data_table[]);
 146:.\Generated_Source\PSoC4/cyfitter_cfg.c **** static void cfg_write_bytes32(const uint32 addr_table[], const cy_cfg_addrvalue_t data_table[])
ARM GAS  C:\Users\Milo\AppData\Local\Temp\ccatHGDr.s 			page 4


 147:.\Generated_Source\PSoC4/cyfitter_cfg.c **** {
 148:.\Generated_Source\PSoC4/cyfitter_cfg.c **** 	/* For 32-bit little-endian architectures */
 149:.\Generated_Source\PSoC4/cyfitter_cfg.c **** 	uint32 i, j = 0u;
 150:.\Generated_Source\PSoC4/cyfitter_cfg.c **** 	for (i = 0u; i < CY_CFG_BASE_ADDR_COUNT; i++)
 151:.\Generated_Source\PSoC4/cyfitter_cfg.c **** 	{
 152:.\Generated_Source\PSoC4/cyfitter_cfg.c **** 		uint32 baseAddr = addr_table[i];
 153:.\Generated_Source\PSoC4/cyfitter_cfg.c **** 		uint8 count = (uint8)baseAddr;
 154:.\Generated_Source\PSoC4/cyfitter_cfg.c **** 		baseAddr &= 0xFFFFFF00u;
 155:.\Generated_Source\PSoC4/cyfitter_cfg.c **** 		while (count != 0u)
 156:.\Generated_Source\PSoC4/cyfitter_cfg.c **** 		{
 157:.\Generated_Source\PSoC4/cyfitter_cfg.c **** 			CY_SET_XTND_REG8((void CYFAR *)(baseAddr + data_table[j].offset), data_table[j].value);
 158:.\Generated_Source\PSoC4/cyfitter_cfg.c **** 			j++;
 159:.\Generated_Source\PSoC4/cyfitter_cfg.c **** 			count--;
 160:.\Generated_Source\PSoC4/cyfitter_cfg.c **** 		}
 161:.\Generated_Source\PSoC4/cyfitter_cfg.c **** 	}
 162:.\Generated_Source\PSoC4/cyfitter_cfg.c **** }
 163:.\Generated_Source\PSoC4/cyfitter_cfg.c **** 
 164:.\Generated_Source\PSoC4/cyfitter_cfg.c **** /*******************************************************************************
 165:.\Generated_Source\PSoC4/cyfitter_cfg.c **** * Function Name: SetIMOBGTrims
 166:.\Generated_Source\PSoC4/cyfitter_cfg.c **** ********************************************************************************
 167:.\Generated_Source\PSoC4/cyfitter_cfg.c **** *
 168:.\Generated_Source\PSoC4/cyfitter_cfg.c **** * Summary:
 169:.\Generated_Source\PSoC4/cyfitter_cfg.c **** *   Performs the configuration of the bandgap trim for the IMO based on the given
 170:.\Generated_Source\PSoC4/cyfitter_cfg.c **** *   expected frequency of the IMO. 
 171:.\Generated_Source\PSoC4/cyfitter_cfg.c **** *
 172:.\Generated_Source\PSoC4/cyfitter_cfg.c **** * Parameters:
 173:.\Generated_Source\PSoC4/cyfitter_cfg.c **** *   imoFreq: Frequency for operation of the IMO.
 174:.\Generated_Source\PSoC4/cyfitter_cfg.c **** *
 175:.\Generated_Source\PSoC4/cyfitter_cfg.c **** * Return:
 176:.\Generated_Source\PSoC4/cyfitter_cfg.c **** *   void
 177:.\Generated_Source\PSoC4/cyfitter_cfg.c **** *
 178:.\Generated_Source\PSoC4/cyfitter_cfg.c **** *******************************************************************************/
 179:.\Generated_Source\PSoC4/cyfitter_cfg.c **** static void SetIMOBGTrims(uint8 imoFreq);
 180:.\Generated_Source\PSoC4/cyfitter_cfg.c **** CY_CFG_SECTION
 181:.\Generated_Source\PSoC4/cyfitter_cfg.c **** static void SetIMOBGTrims(uint8 imoFreq)
 182:.\Generated_Source\PSoC4/cyfitter_cfg.c **** {
 183:.\Generated_Source\PSoC4/cyfitter_cfg.c **** 	CYPACKED typedef struct {
 184:.\Generated_Source\PSoC4/cyfitter_cfg.c **** 		uint8 freq;
 185:.\Generated_Source\PSoC4/cyfitter_cfg.c **** 		uint8 absolute;
 186:.\Generated_Source\PSoC4/cyfitter_cfg.c **** 		uint8 tmpco;
 187:.\Generated_Source\PSoC4/cyfitter_cfg.c **** 	} CYPACKED_ATTR imo_trim_entry_t;
 188:.\Generated_Source\PSoC4/cyfitter_cfg.c **** 
 189:.\Generated_Source\PSoC4/cyfitter_cfg.c **** 	CYPACKED typedef struct {
 190:.\Generated_Source\PSoC4/cyfitter_cfg.c **** 		imo_trim_entry_t entries[4];
 191:.\Generated_Source\PSoC4/cyfitter_cfg.c **** 	} CYPACKED_ATTR imo_trim_table_t;
 192:.\Generated_Source\PSoC4/cyfitter_cfg.c **** 
 193:.\Generated_Source\PSoC4/cyfitter_cfg.c **** 	static const imo_trim_table_t *imo_trim_table = (const imo_trim_table_t *)CYREG_SFLASH_IMO_MAXF0;
 194:.\Generated_Source\PSoC4/cyfitter_cfg.c **** 	static const uint32 IMO_TRIM_FREQ_TABLE_ENTRIES = sizeof(imo_trim_table->entries)/sizeof(imo_trim_
 195:.\Generated_Source\PSoC4/cyfitter_cfg.c **** 
 196:.\Generated_Source\PSoC4/cyfitter_cfg.c **** 	int32 imoTrimIndex;
 197:.\Generated_Source\PSoC4/cyfitter_cfg.c **** 	uint8 setAbs;
 198:.\Generated_Source\PSoC4/cyfitter_cfg.c **** 	uint8 setTmpCo;
 199:.\Generated_Source\PSoC4/cyfitter_cfg.c **** 
 200:.\Generated_Source\PSoC4/cyfitter_cfg.c **** 	/* Traverse the SFLASH IMO frequency-dependent bandgap trim table to
 201:.\Generated_Source\PSoC4/cyfitter_cfg.c **** 	 * locate the appropriate value to trim the IMO bandgap based on freq. */
 202:.\Generated_Source\PSoC4/cyfitter_cfg.c **** 	setAbs = CY_GET_REG8((const void *)CYREG_SFLASH_IMO_ABS4);
 203:.\Generated_Source\PSoC4/cyfitter_cfg.c **** 	setTmpCo = CY_GET_REG8((const void *)CYREG_SFLASH_IMO_TMPCO4);
ARM GAS  C:\Users\Milo\AppData\Local\Temp\ccatHGDr.s 			page 5


 204:.\Generated_Source\PSoC4/cyfitter_cfg.c **** 	for (imoTrimIndex = ((int32)IMO_TRIM_FREQ_TABLE_ENTRIES)-1;
 205:.\Generated_Source\PSoC4/cyfitter_cfg.c **** 	     (imoTrimIndex >= 0) && (imoFreq <= imo_trim_table->entries[imoTrimIndex].freq);
 206:.\Generated_Source\PSoC4/cyfitter_cfg.c **** 	     imoTrimIndex--)
 207:.\Generated_Source\PSoC4/cyfitter_cfg.c **** 	{
 208:.\Generated_Source\PSoC4/cyfitter_cfg.c **** 		setAbs = imo_trim_table->entries[imoTrimIndex].absolute;
 209:.\Generated_Source\PSoC4/cyfitter_cfg.c **** 		setTmpCo = imo_trim_table->entries[imoTrimIndex].tmpco;
 210:.\Generated_Source\PSoC4/cyfitter_cfg.c **** 	}
 211:.\Generated_Source\PSoC4/cyfitter_cfg.c **** 
 212:.\Generated_Source\PSoC4/cyfitter_cfg.c **** 	CY_SET_REG32((void *)CYREG_PWR_BG_TRIM4, setAbs);
 213:.\Generated_Source\PSoC4/cyfitter_cfg.c **** 	CY_SET_REG32((void *)CYREG_PWR_BG_TRIM5, setTmpCo);
 214:.\Generated_Source\PSoC4/cyfitter_cfg.c **** }
 215:.\Generated_Source\PSoC4/cyfitter_cfg.c **** 
 216:.\Generated_Source\PSoC4/cyfitter_cfg.c **** 
 217:.\Generated_Source\PSoC4/cyfitter_cfg.c **** 
 218:.\Generated_Source\PSoC4/cyfitter_cfg.c **** /*******************************************************************************
 219:.\Generated_Source\PSoC4/cyfitter_cfg.c **** * Function Name: ClockSetup
 220:.\Generated_Source\PSoC4/cyfitter_cfg.c **** ********************************************************************************
 221:.\Generated_Source\PSoC4/cyfitter_cfg.c **** *
 222:.\Generated_Source\PSoC4/cyfitter_cfg.c **** * Summary:
 223:.\Generated_Source\PSoC4/cyfitter_cfg.c **** *   Performs the initialization of all of the clocks in the device based on the
 224:.\Generated_Source\PSoC4/cyfitter_cfg.c **** *   settings in the Clock tab of the DWR.  This includes enabling the requested
 225:.\Generated_Source\PSoC4/cyfitter_cfg.c **** *   clocks and setting the necessary dividers to produce the desired frequency. 
 226:.\Generated_Source\PSoC4/cyfitter_cfg.c **** *
 227:.\Generated_Source\PSoC4/cyfitter_cfg.c **** * Parameters:
 228:.\Generated_Source\PSoC4/cyfitter_cfg.c **** *   void
 229:.\Generated_Source\PSoC4/cyfitter_cfg.c **** *
 230:.\Generated_Source\PSoC4/cyfitter_cfg.c **** * Return:
 231:.\Generated_Source\PSoC4/cyfitter_cfg.c **** *   void
 232:.\Generated_Source\PSoC4/cyfitter_cfg.c **** *
 233:.\Generated_Source\PSoC4/cyfitter_cfg.c **** *******************************************************************************/
 234:.\Generated_Source\PSoC4/cyfitter_cfg.c **** static void ClockSetup(void);
 235:.\Generated_Source\PSoC4/cyfitter_cfg.c **** CY_CFG_SECTION
 236:.\Generated_Source\PSoC4/cyfitter_cfg.c **** static void ClockSetup(void)
 237:.\Generated_Source\PSoC4/cyfitter_cfg.c **** {
 238:.\Generated_Source\PSoC4/cyfitter_cfg.c **** 	/* Enable HALF_EN before trimming for the flash accelerator. */
 239:.\Generated_Source\PSoC4/cyfitter_cfg.c **** 	CY_SET_REG32((void CYXDATA *)(CYREG_CLK_SELECT), (CY_GET_REG32((void *)CYREG_CLK_SELECT) | 0x00040
 240:.\Generated_Source\PSoC4/cyfitter_cfg.c **** 
 241:.\Generated_Source\PSoC4/cyfitter_cfg.c **** 	/* Trim IMO BG based on desired frequency. */
 242:.\Generated_Source\PSoC4/cyfitter_cfg.c **** 	SetIMOBGTrims(24u);
 243:.\Generated_Source\PSoC4/cyfitter_cfg.c **** 
 244:.\Generated_Source\PSoC4/cyfitter_cfg.c **** 	/* Going less than or equal to 24MHz, so update the clock speed then adjust trim value. */
 245:.\Generated_Source\PSoC4/cyfitter_cfg.c **** 	CY_SET_REG32((void CYXDATA *)(CYREG_CLK_IMO_TRIM2), (25u));
 246:.\Generated_Source\PSoC4/cyfitter_cfg.c **** 	CyDelayCycles(5u);
 247:.\Generated_Source\PSoC4/cyfitter_cfg.c **** 	CY_SET_REG32((void CYXDATA *)(CYREG_CLK_IMO_TRIM1), (CY_GET_REG8((void *)CYREG_SFLASH_IMO_TRIM21))
 248:.\Generated_Source\PSoC4/cyfitter_cfg.c **** 	CyDelayUs(5u);
 249:.\Generated_Source\PSoC4/cyfitter_cfg.c **** 
 250:.\Generated_Source\PSoC4/cyfitter_cfg.c **** 	/* Disable HALF_EN since it is not required at this IMO frequency. */
 251:.\Generated_Source\PSoC4/cyfitter_cfg.c **** 	CY_SET_REG32((void CYXDATA *)(CYREG_CLK_SELECT), (CY_GET_REG32((void *)CYREG_CLK_SELECT) & 0xFFFBF
 252:.\Generated_Source\PSoC4/cyfitter_cfg.c **** 
 253:.\Generated_Source\PSoC4/cyfitter_cfg.c **** 	/* CYDEV_CLK_SELECT00 Starting address: CYDEV_CLK_SELECT00 */
 254:.\Generated_Source\PSoC4/cyfitter_cfg.c **** 	CY_SET_XTND_REG32((void CYFAR *)(CYREG_CLK_SELECT02), 0x00000030u);
 255:.\Generated_Source\PSoC4/cyfitter_cfg.c **** 	CY_SET_XTND_REG32((void CYFAR *)(CYREG_CLK_SELECT03), 0x00000020u);
 256:.\Generated_Source\PSoC4/cyfitter_cfg.c **** 	CY_SET_XTND_REG32((void CYFAR *)(CYREG_CLK_SELECT12), 0x00000010u);
 257:.\Generated_Source\PSoC4/cyfitter_cfg.c **** 
 258:.\Generated_Source\PSoC4/cyfitter_cfg.c **** 	/* CYDEV_CLK_IMO_CONFIG Starting address: CYDEV_CLK_IMO_CONFIG */
 259:.\Generated_Source\PSoC4/cyfitter_cfg.c **** 	CY_SET_XTND_REG32((void CYFAR *)(CYREG_CLK_IMO_CONFIG), 0x80000000u);
 260:.\Generated_Source\PSoC4/cyfitter_cfg.c **** 
ARM GAS  C:\Users\Milo\AppData\Local\Temp\ccatHGDr.s 			page 6


 261:.\Generated_Source\PSoC4/cyfitter_cfg.c **** 	/* CYDEV_CLK_ILO_CONFIG Starting address: CYDEV_CLK_ILO_CONFIG */
 262:.\Generated_Source\PSoC4/cyfitter_cfg.c **** 	CY_SET_XTND_REG32((void CYFAR *)(CYREG_CLK_ILO_CONFIG), 0x80000000u);
 263:.\Generated_Source\PSoC4/cyfitter_cfg.c **** 
 264:.\Generated_Source\PSoC4/cyfitter_cfg.c **** 	/* CYDEV_CLK_DIVIDER_A00 Starting address: CYDEV_CLK_DIVIDER_A00 */
 265:.\Generated_Source\PSoC4/cyfitter_cfg.c **** 	CY_SET_XTND_REG32((void CYFAR *)(CYREG_CLK_DIVIDER_A00), 0x8000000Bu);
 266:.\Generated_Source\PSoC4/cyfitter_cfg.c **** 
 267:.\Generated_Source\PSoC4/cyfitter_cfg.c **** 	/* CYDEV_CLK_DIVIDER_B00 Starting address: CYDEV_CLK_DIVIDER_B00 */
 268:.\Generated_Source\PSoC4/cyfitter_cfg.c **** 	CY_SET_XTND_REG32((void CYFAR *)(CYREG_CLK_DIVIDER_B00), 0x8000001Du);
 269:.\Generated_Source\PSoC4/cyfitter_cfg.c **** 
 270:.\Generated_Source\PSoC4/cyfitter_cfg.c **** 	/* CYDEV_CLK_DIVIDER_C00 Starting address: CYDEV_CLK_DIVIDER_C00 */
 271:.\Generated_Source\PSoC4/cyfitter_cfg.c **** 	CY_SET_XTND_REG32((void CYFAR *)(CYREG_CLK_DIVIDER_C00), 0x800000CFu);
 272:.\Generated_Source\PSoC4/cyfitter_cfg.c **** 
 273:.\Generated_Source\PSoC4/cyfitter_cfg.c **** }
 274:.\Generated_Source\PSoC4/cyfitter_cfg.c **** 
 275:.\Generated_Source\PSoC4/cyfitter_cfg.c **** 
 276:.\Generated_Source\PSoC4/cyfitter_cfg.c **** /* Analog API Functions */
 277:.\Generated_Source\PSoC4/cyfitter_cfg.c **** 
 278:.\Generated_Source\PSoC4/cyfitter_cfg.c **** 
 279:.\Generated_Source\PSoC4/cyfitter_cfg.c **** /*******************************************************************************
 280:.\Generated_Source\PSoC4/cyfitter_cfg.c **** * Function Name: AnalogSetDefault
 281:.\Generated_Source\PSoC4/cyfitter_cfg.c **** ********************************************************************************
 282:.\Generated_Source\PSoC4/cyfitter_cfg.c **** *
 283:.\Generated_Source\PSoC4/cyfitter_cfg.c **** * Summary:
 284:.\Generated_Source\PSoC4/cyfitter_cfg.c **** *  Sets up the analog portions of the chip to default values based on chip
 285:.\Generated_Source\PSoC4/cyfitter_cfg.c **** *  configuration options from the project.
 286:.\Generated_Source\PSoC4/cyfitter_cfg.c **** *
 287:.\Generated_Source\PSoC4/cyfitter_cfg.c **** * Parameters:
 288:.\Generated_Source\PSoC4/cyfitter_cfg.c **** *  void
 289:.\Generated_Source\PSoC4/cyfitter_cfg.c **** *
 290:.\Generated_Source\PSoC4/cyfitter_cfg.c **** * Return:
 291:.\Generated_Source\PSoC4/cyfitter_cfg.c **** *  void
 292:.\Generated_Source\PSoC4/cyfitter_cfg.c **** *
 293:.\Generated_Source\PSoC4/cyfitter_cfg.c **** *******************************************************************************/
 294:.\Generated_Source\PSoC4/cyfitter_cfg.c **** static void AnalogSetDefault(void);
 295:.\Generated_Source\PSoC4/cyfitter_cfg.c **** static void AnalogSetDefault(void)
 296:.\Generated_Source\PSoC4/cyfitter_cfg.c **** {
 297:.\Generated_Source\PSoC4/cyfitter_cfg.c **** }
 298:.\Generated_Source\PSoC4/cyfitter_cfg.c **** 
 299:.\Generated_Source\PSoC4/cyfitter_cfg.c **** #define CY_AMUX_UNUSED CYREG_CM0_ROM_DWT
 300:.\Generated_Source\PSoC4/cyfitter_cfg.c **** 
 301:.\Generated_Source\PSoC4/cyfitter_cfg.c **** 
 302:.\Generated_Source\PSoC4/cyfitter_cfg.c **** /*******************************************************************************
 303:.\Generated_Source\PSoC4/cyfitter_cfg.c **** * Function Name: cyfitter_cfg
 304:.\Generated_Source\PSoC4/cyfitter_cfg.c **** ********************************************************************************
 305:.\Generated_Source\PSoC4/cyfitter_cfg.c **** * Summary:
 306:.\Generated_Source\PSoC4/cyfitter_cfg.c **** *  This function is called by the start-up code for the selected device. It
 307:.\Generated_Source\PSoC4/cyfitter_cfg.c **** *  performs all of the necessary device configuration based on the design
 308:.\Generated_Source\PSoC4/cyfitter_cfg.c **** *  settings.  This includes settings from the Design Wide Resources (DWR) such
 309:.\Generated_Source\PSoC4/cyfitter_cfg.c **** *  as Clocks and Pins as well as any component configuration that is necessary.
 310:.\Generated_Source\PSoC4/cyfitter_cfg.c **** *
 311:.\Generated_Source\PSoC4/cyfitter_cfg.c **** * Parameters:  
 312:.\Generated_Source\PSoC4/cyfitter_cfg.c **** *   void
 313:.\Generated_Source\PSoC4/cyfitter_cfg.c **** *
 314:.\Generated_Source\PSoC4/cyfitter_cfg.c **** * Return:
 315:.\Generated_Source\PSoC4/cyfitter_cfg.c **** *   void
 316:.\Generated_Source\PSoC4/cyfitter_cfg.c **** *
 317:.\Generated_Source\PSoC4/cyfitter_cfg.c **** *******************************************************************************/
ARM GAS  C:\Users\Milo\AppData\Local\Temp\ccatHGDr.s 			page 7


 318:.\Generated_Source\PSoC4/cyfitter_cfg.c **** CY_CFG_SECTION
 319:.\Generated_Source\PSoC4/cyfitter_cfg.c **** void cyfitter_cfg(void)
 320:.\Generated_Source\PSoC4/cyfitter_cfg.c **** {
  26              		.loc 1 320 0
  27              		.cfi_startproc
  28 0000 F8B5     		push	{r3, r4, r5, r6, r7, lr}
  29              	.LCFI0:
  30              		.cfi_def_cfa_offset 24
  31              		.cfi_offset 3, -24
  32              		.cfi_offset 4, -20
  33              		.cfi_offset 5, -16
  34              		.cfi_offset 6, -12
  35              		.cfi_offset 7, -8
  36              		.cfi_offset 14, -4
 321:.\Generated_Source\PSoC4/cyfitter_cfg.c **** 	/* Disable interrupts by default. Let user enable if/when they want. */
 322:.\Generated_Source\PSoC4/cyfitter_cfg.c **** 	CyGlobalIntDisable;
  37              		.loc 1 322 0
  38              	@ 322 ".\Generated_Source\PSoC4\cyfitter_cfg.c" 1
  39 0002 72B6     		CPSID   i
  40              	@ 0 "" 2
  41              	.LVL0:
  42              		.code	16
  43 0004 0024     		mov	r4, #0
  44              	.LVL1:
  45              	.L2:
  46              	.LBB24:
  47              	.LBB25:
 323:.\Generated_Source\PSoC4/cyfitter_cfg.c **** 
 324:.\Generated_Source\PSoC4/cyfitter_cfg.c **** 	{
 325:.\Generated_Source\PSoC4/cyfitter_cfg.c **** 		static const uint32 CYCODE cy_cfg_addr_table[] = {
 326:.\Generated_Source\PSoC4/cyfitter_cfg.c **** 			0x400F0001u, /* Base address: 0x400F0000 Count: 1 */
 327:.\Generated_Source\PSoC4/cyfitter_cfg.c **** 			0x400F3010u, /* Base address: 0x400F3000 Count: 16 */
 328:.\Generated_Source\PSoC4/cyfitter_cfg.c **** 			0x400F3136u, /* Base address: 0x400F3100 Count: 54 */
 329:.\Generated_Source\PSoC4/cyfitter_cfg.c **** 			0x400F3248u, /* Base address: 0x400F3200 Count: 72 */
 330:.\Generated_Source\PSoC4/cyfitter_cfg.c **** 			0x400F3344u, /* Base address: 0x400F3300 Count: 68 */
 331:.\Generated_Source\PSoC4/cyfitter_cfg.c **** 			0x400F4202u, /* Base address: 0x400F4200 Count: 2 */
 332:.\Generated_Source\PSoC4/cyfitter_cfg.c **** 			0x400F430Au, /* Base address: 0x400F4300 Count: 10 */
 333:.\Generated_Source\PSoC4/cyfitter_cfg.c **** 			0x400F6002u, /* Base address: 0x400F6000 Count: 2 */
 334:.\Generated_Source\PSoC4/cyfitter_cfg.c **** 		};
 335:.\Generated_Source\PSoC4/cyfitter_cfg.c **** 
 336:.\Generated_Source\PSoC4/cyfitter_cfg.c **** 		static const cy_cfg_addrvalue_t CYCODE cy_cfg_data_table[] = {
 337:.\Generated_Source\PSoC4/cyfitter_cfg.c **** 			{0x81u, 0x0Fu},
 338:.\Generated_Source\PSoC4/cyfitter_cfg.c **** 			{0x00u, 0x01u},
 339:.\Generated_Source\PSoC4/cyfitter_cfg.c **** 			{0x02u, 0x02u},
 340:.\Generated_Source\PSoC4/cyfitter_cfg.c **** 			{0x10u, 0x04u},
 341:.\Generated_Source\PSoC4/cyfitter_cfg.c **** 			{0x17u, 0x01u},
 342:.\Generated_Source\PSoC4/cyfitter_cfg.c **** 			{0x18u, 0x06u},
 343:.\Generated_Source\PSoC4/cyfitter_cfg.c **** 			{0x19u, 0x01u},
 344:.\Generated_Source\PSoC4/cyfitter_cfg.c **** 			{0x1Au, 0x01u},
 345:.\Generated_Source\PSoC4/cyfitter_cfg.c **** 			{0x23u, 0x01u},
 346:.\Generated_Source\PSoC4/cyfitter_cfg.c **** 			{0x2Cu, 0x04u},
 347:.\Generated_Source\PSoC4/cyfitter_cfg.c **** 			{0x30u, 0x07u},
 348:.\Generated_Source\PSoC4/cyfitter_cfg.c **** 			{0x37u, 0x01u},
 349:.\Generated_Source\PSoC4/cyfitter_cfg.c **** 			{0x3Au, 0x02u},
 350:.\Generated_Source\PSoC4/cyfitter_cfg.c **** 			{0x3Fu, 0x40u},
 351:.\Generated_Source\PSoC4/cyfitter_cfg.c **** 			{0x58u, 0x04u},
 352:.\Generated_Source\PSoC4/cyfitter_cfg.c **** 			{0x59u, 0x04u},
ARM GAS  C:\Users\Milo\AppData\Local\Temp\ccatHGDr.s 			page 8


 353:.\Generated_Source\PSoC4/cyfitter_cfg.c **** 			{0x5Fu, 0x01u},
 354:.\Generated_Source\PSoC4/cyfitter_cfg.c **** 			{0x03u, 0x40u},
 355:.\Generated_Source\PSoC4/cyfitter_cfg.c **** 			{0x04u, 0x80u},
 356:.\Generated_Source\PSoC4/cyfitter_cfg.c **** 			{0x05u, 0x04u},
 357:.\Generated_Source\PSoC4/cyfitter_cfg.c **** 			{0x06u, 0x84u},
 358:.\Generated_Source\PSoC4/cyfitter_cfg.c **** 			{0x08u, 0x10u},
 359:.\Generated_Source\PSoC4/cyfitter_cfg.c **** 			{0x0Au, 0x40u},
 360:.\Generated_Source\PSoC4/cyfitter_cfg.c **** 			{0x0Cu, 0x10u},
 361:.\Generated_Source\PSoC4/cyfitter_cfg.c **** 			{0x0Eu, 0x92u},
 362:.\Generated_Source\PSoC4/cyfitter_cfg.c **** 			{0x10u, 0x02u},
 363:.\Generated_Source\PSoC4/cyfitter_cfg.c **** 			{0x16u, 0x20u},
 364:.\Generated_Source\PSoC4/cyfitter_cfg.c **** 			{0x17u, 0x19u},
 365:.\Generated_Source\PSoC4/cyfitter_cfg.c **** 			{0x18u, 0x80u},
 366:.\Generated_Source\PSoC4/cyfitter_cfg.c **** 			{0x19u, 0x02u},
 367:.\Generated_Source\PSoC4/cyfitter_cfg.c **** 			{0x1Au, 0x40u},
 368:.\Generated_Source\PSoC4/cyfitter_cfg.c **** 			{0x1Bu, 0x01u},
 369:.\Generated_Source\PSoC4/cyfitter_cfg.c **** 			{0x1Eu, 0x80u},
 370:.\Generated_Source\PSoC4/cyfitter_cfg.c **** 			{0x22u, 0x40u},
 371:.\Generated_Source\PSoC4/cyfitter_cfg.c **** 			{0x26u, 0x80u},
 372:.\Generated_Source\PSoC4/cyfitter_cfg.c **** 			{0x27u, 0x08u},
 373:.\Generated_Source\PSoC4/cyfitter_cfg.c **** 			{0x29u, 0x02u},
 374:.\Generated_Source\PSoC4/cyfitter_cfg.c **** 			{0x2Bu, 0x40u},
 375:.\Generated_Source\PSoC4/cyfitter_cfg.c **** 			{0x2Du, 0x02u},
 376:.\Generated_Source\PSoC4/cyfitter_cfg.c **** 			{0x2Eu, 0x20u},
 377:.\Generated_Source\PSoC4/cyfitter_cfg.c **** 			{0x2Fu, 0x01u},
 378:.\Generated_Source\PSoC4/cyfitter_cfg.c **** 			{0x30u, 0x10u},
 379:.\Generated_Source\PSoC4/cyfitter_cfg.c **** 			{0x31u, 0x14u},
 380:.\Generated_Source\PSoC4/cyfitter_cfg.c **** 			{0x35u, 0x14u},
 381:.\Generated_Source\PSoC4/cyfitter_cfg.c **** 			{0x37u, 0x01u},
 382:.\Generated_Source\PSoC4/cyfitter_cfg.c **** 			{0x3Cu, 0x80u},
 383:.\Generated_Source\PSoC4/cyfitter_cfg.c **** 			{0x3Du, 0x01u},
 384:.\Generated_Source\PSoC4/cyfitter_cfg.c **** 			{0x3Eu, 0x14u},
 385:.\Generated_Source\PSoC4/cyfitter_cfg.c **** 			{0x44u, 0x98u},
 386:.\Generated_Source\PSoC4/cyfitter_cfg.c **** 			{0x47u, 0x40u},
 387:.\Generated_Source\PSoC4/cyfitter_cfg.c **** 			{0x4Du, 0x08u},
 388:.\Generated_Source\PSoC4/cyfitter_cfg.c **** 			{0x4Fu, 0x80u},
 389:.\Generated_Source\PSoC4/cyfitter_cfg.c **** 			{0x54u, 0x82u},
 390:.\Generated_Source\PSoC4/cyfitter_cfg.c **** 			{0x56u, 0x54u},
 391:.\Generated_Source\PSoC4/cyfitter_cfg.c **** 			{0x62u, 0x80u},
 392:.\Generated_Source\PSoC4/cyfitter_cfg.c **** 			{0x63u, 0x01u},
 393:.\Generated_Source\PSoC4/cyfitter_cfg.c **** 			{0x67u, 0x03u},
 394:.\Generated_Source\PSoC4/cyfitter_cfg.c **** 			{0x6Cu, 0x20u},
 395:.\Generated_Source\PSoC4/cyfitter_cfg.c **** 			{0x6Du, 0x41u},
 396:.\Generated_Source\PSoC4/cyfitter_cfg.c **** 			{0x6Eu, 0x16u},
 397:.\Generated_Source\PSoC4/cyfitter_cfg.c **** 			{0x6Fu, 0x11u},
 398:.\Generated_Source\PSoC4/cyfitter_cfg.c **** 			{0x74u, 0x40u},
 399:.\Generated_Source\PSoC4/cyfitter_cfg.c **** 			{0xC0u, 0xF8u},
 400:.\Generated_Source\PSoC4/cyfitter_cfg.c **** 			{0xC2u, 0xFAu},
 401:.\Generated_Source\PSoC4/cyfitter_cfg.c **** 			{0xC4u, 0x71u},
 402:.\Generated_Source\PSoC4/cyfitter_cfg.c **** 			{0xCAu, 0xB1u},
 403:.\Generated_Source\PSoC4/cyfitter_cfg.c **** 			{0xCCu, 0xE6u},
 404:.\Generated_Source\PSoC4/cyfitter_cfg.c **** 			{0xCEu, 0xF0u},
 405:.\Generated_Source\PSoC4/cyfitter_cfg.c **** 			{0xD0u, 0xF0u},
 406:.\Generated_Source\PSoC4/cyfitter_cfg.c **** 			{0xD2u, 0x10u},
 407:.\Generated_Source\PSoC4/cyfitter_cfg.c **** 			{0xD8u, 0x10u},
 408:.\Generated_Source\PSoC4/cyfitter_cfg.c **** 			{0x00u, 0x1Au},
 409:.\Generated_Source\PSoC4/cyfitter_cfg.c **** 			{0x01u, 0x02u},
ARM GAS  C:\Users\Milo\AppData\Local\Temp\ccatHGDr.s 			page 9


 410:.\Generated_Source\PSoC4/cyfitter_cfg.c **** 			{0x03u, 0x08u},
 411:.\Generated_Source\PSoC4/cyfitter_cfg.c **** 			{0x04u, 0x13u},
 412:.\Generated_Source\PSoC4/cyfitter_cfg.c **** 			{0x05u, 0x1Du},
 413:.\Generated_Source\PSoC4/cyfitter_cfg.c **** 			{0x06u, 0x04u},
 414:.\Generated_Source\PSoC4/cyfitter_cfg.c **** 			{0x08u, 0x01u},
 415:.\Generated_Source\PSoC4/cyfitter_cfg.c **** 			{0x09u, 0x1Du},
 416:.\Generated_Source\PSoC4/cyfitter_cfg.c **** 			{0x0Au, 0x18u},
 417:.\Generated_Source\PSoC4/cyfitter_cfg.c **** 			{0x0Cu, 0x18u},
 418:.\Generated_Source\PSoC4/cyfitter_cfg.c **** 			{0x0Du, 0x1Du},
 419:.\Generated_Source\PSoC4/cyfitter_cfg.c **** 			{0x0Eu, 0x02u},
 420:.\Generated_Source\PSoC4/cyfitter_cfg.c **** 			{0x10u, 0x02u},
 421:.\Generated_Source\PSoC4/cyfitter_cfg.c **** 			{0x11u, 0x0Du},
 422:.\Generated_Source\PSoC4/cyfitter_cfg.c **** 			{0x13u, 0x10u},
 423:.\Generated_Source\PSoC4/cyfitter_cfg.c **** 			{0x14u, 0x02u},
 424:.\Generated_Source\PSoC4/cyfitter_cfg.c **** 			{0x16u, 0x18u},
 425:.\Generated_Source\PSoC4/cyfitter_cfg.c **** 			{0x19u, 0x02u},
 426:.\Generated_Source\PSoC4/cyfitter_cfg.c **** 			{0x1Bu, 0x04u},
 427:.\Generated_Source\PSoC4/cyfitter_cfg.c **** 			{0x1Cu, 0x1Cu},
 428:.\Generated_Source\PSoC4/cyfitter_cfg.c **** 			{0x1Du, 0x02u},
 429:.\Generated_Source\PSoC4/cyfitter_cfg.c **** 			{0x1Eu, 0x03u},
 430:.\Generated_Source\PSoC4/cyfitter_cfg.c **** 			{0x1Fu, 0x0Du},
 431:.\Generated_Source\PSoC4/cyfitter_cfg.c **** 			{0x20u, 0x1Au},
 432:.\Generated_Source\PSoC4/cyfitter_cfg.c **** 			{0x23u, 0x10u},
 433:.\Generated_Source\PSoC4/cyfitter_cfg.c **** 			{0x24u, 0x18u},
 434:.\Generated_Source\PSoC4/cyfitter_cfg.c **** 			{0x28u, 0x18u},
 435:.\Generated_Source\PSoC4/cyfitter_cfg.c **** 			{0x29u, 0x01u},
 436:.\Generated_Source\PSoC4/cyfitter_cfg.c **** 			{0x2Au, 0x02u},
 437:.\Generated_Source\PSoC4/cyfitter_cfg.c **** 			{0x2Bu, 0x02u},
 438:.\Generated_Source\PSoC4/cyfitter_cfg.c **** 			{0x2Du, 0x1Du},
 439:.\Generated_Source\PSoC4/cyfitter_cfg.c **** 			{0x31u, 0x0Fu},
 440:.\Generated_Source\PSoC4/cyfitter_cfg.c **** 			{0x32u, 0x13u},
 441:.\Generated_Source\PSoC4/cyfitter_cfg.c **** 			{0x34u, 0x0Fu},
 442:.\Generated_Source\PSoC4/cyfitter_cfg.c **** 			{0x35u, 0x10u},
 443:.\Generated_Source\PSoC4/cyfitter_cfg.c **** 			{0x3Au, 0x20u},
 444:.\Generated_Source\PSoC4/cyfitter_cfg.c **** 			{0x3Bu, 0x02u},
 445:.\Generated_Source\PSoC4/cyfitter_cfg.c **** 			{0x3Fu, 0x10u},
 446:.\Generated_Source\PSoC4/cyfitter_cfg.c **** 			{0x54u, 0x40u},
 447:.\Generated_Source\PSoC4/cyfitter_cfg.c **** 			{0x58u, 0x04u},
 448:.\Generated_Source\PSoC4/cyfitter_cfg.c **** 			{0x59u, 0x04u},
 449:.\Generated_Source\PSoC4/cyfitter_cfg.c **** 			{0x5Bu, 0x04u},
 450:.\Generated_Source\PSoC4/cyfitter_cfg.c **** 			{0x5Fu, 0x01u},
 451:.\Generated_Source\PSoC4/cyfitter_cfg.c **** 			{0x80u, 0x08u},
 452:.\Generated_Source\PSoC4/cyfitter_cfg.c **** 			{0x82u, 0x06u},
 453:.\Generated_Source\PSoC4/cyfitter_cfg.c **** 			{0x84u, 0x08u},
 454:.\Generated_Source\PSoC4/cyfitter_cfg.c **** 			{0x86u, 0x06u},
 455:.\Generated_Source\PSoC4/cyfitter_cfg.c **** 			{0x8Au, 0x04u},
 456:.\Generated_Source\PSoC4/cyfitter_cfg.c **** 			{0x8Eu, 0x01u},
 457:.\Generated_Source\PSoC4/cyfitter_cfg.c **** 			{0x90u, 0x01u},
 458:.\Generated_Source\PSoC4/cyfitter_cfg.c **** 			{0x91u, 0x0Eu},
 459:.\Generated_Source\PSoC4/cyfitter_cfg.c **** 			{0x94u, 0x01u},
 460:.\Generated_Source\PSoC4/cyfitter_cfg.c **** 			{0x95u, 0x03u},
 461:.\Generated_Source\PSoC4/cyfitter_cfg.c **** 			{0x97u, 0x04u},
 462:.\Generated_Source\PSoC4/cyfitter_cfg.c **** 			{0x98u, 0x0Au},
 463:.\Generated_Source\PSoC4/cyfitter_cfg.c **** 			{0x99u, 0x05u},
 464:.\Generated_Source\PSoC4/cyfitter_cfg.c **** 			{0x9Bu, 0x0Au},
 465:.\Generated_Source\PSoC4/cyfitter_cfg.c **** 			{0xA0u, 0x01u},
 466:.\Generated_Source\PSoC4/cyfitter_cfg.c **** 			{0xA4u, 0x01u},
ARM GAS  C:\Users\Milo\AppData\Local\Temp\ccatHGDr.s 			page 10


 467:.\Generated_Source\PSoC4/cyfitter_cfg.c **** 			{0xADu, 0x04u},
 468:.\Generated_Source\PSoC4/cyfitter_cfg.c **** 			{0xAFu, 0x09u},
 469:.\Generated_Source\PSoC4/cyfitter_cfg.c **** 			{0xB0u, 0x01u},
 470:.\Generated_Source\PSoC4/cyfitter_cfg.c **** 			{0xB1u, 0x0Fu},
 471:.\Generated_Source\PSoC4/cyfitter_cfg.c **** 			{0xB2u, 0x06u},
 472:.\Generated_Source\PSoC4/cyfitter_cfg.c **** 			{0xB6u, 0x08u},
 473:.\Generated_Source\PSoC4/cyfitter_cfg.c **** 			{0xB9u, 0x02u},
 474:.\Generated_Source\PSoC4/cyfitter_cfg.c **** 			{0xBEu, 0x41u},
 475:.\Generated_Source\PSoC4/cyfitter_cfg.c **** 			{0xD4u, 0x09u},
 476:.\Generated_Source\PSoC4/cyfitter_cfg.c **** 			{0xD8u, 0x04u},
 477:.\Generated_Source\PSoC4/cyfitter_cfg.c **** 			{0xD9u, 0x04u},
 478:.\Generated_Source\PSoC4/cyfitter_cfg.c **** 			{0xDBu, 0x04u},
 479:.\Generated_Source\PSoC4/cyfitter_cfg.c **** 			{0xDFu, 0x01u},
 480:.\Generated_Source\PSoC4/cyfitter_cfg.c **** 			{0x00u, 0x08u},
 481:.\Generated_Source\PSoC4/cyfitter_cfg.c **** 			{0x01u, 0x42u},
 482:.\Generated_Source\PSoC4/cyfitter_cfg.c **** 			{0x03u, 0x09u},
 483:.\Generated_Source\PSoC4/cyfitter_cfg.c **** 			{0x05u, 0x14u},
 484:.\Generated_Source\PSoC4/cyfitter_cfg.c **** 			{0x06u, 0x80u},
 485:.\Generated_Source\PSoC4/cyfitter_cfg.c **** 			{0x07u, 0x01u},
 486:.\Generated_Source\PSoC4/cyfitter_cfg.c **** 			{0x0Au, 0x50u},
 487:.\Generated_Source\PSoC4/cyfitter_cfg.c **** 			{0x0Bu, 0x08u},
 488:.\Generated_Source\PSoC4/cyfitter_cfg.c **** 			{0x0Cu, 0x02u},
 489:.\Generated_Source\PSoC4/cyfitter_cfg.c **** 			{0x0Du, 0x01u},
 490:.\Generated_Source\PSoC4/cyfitter_cfg.c **** 			{0x0Eu, 0x10u},
 491:.\Generated_Source\PSoC4/cyfitter_cfg.c **** 			{0x0Fu, 0x02u},
 492:.\Generated_Source\PSoC4/cyfitter_cfg.c **** 			{0x10u, 0x20u},
 493:.\Generated_Source\PSoC4/cyfitter_cfg.c **** 			{0x11u, 0x01u},
 494:.\Generated_Source\PSoC4/cyfitter_cfg.c **** 			{0x15u, 0x01u},
 495:.\Generated_Source\PSoC4/cyfitter_cfg.c **** 			{0x17u, 0x18u},
 496:.\Generated_Source\PSoC4/cyfitter_cfg.c **** 			{0x18u, 0x40u},
 497:.\Generated_Source\PSoC4/cyfitter_cfg.c **** 			{0x19u, 0x41u},
 498:.\Generated_Source\PSoC4/cyfitter_cfg.c **** 			{0x1Bu, 0x08u},
 499:.\Generated_Source\PSoC4/cyfitter_cfg.c **** 			{0x1Cu, 0x08u},
 500:.\Generated_Source\PSoC4/cyfitter_cfg.c **** 			{0x1Du, 0x14u},
 501:.\Generated_Source\PSoC4/cyfitter_cfg.c **** 			{0x1Fu, 0x04u},
 502:.\Generated_Source\PSoC4/cyfitter_cfg.c **** 			{0x21u, 0x02u},
 503:.\Generated_Source\PSoC4/cyfitter_cfg.c **** 			{0x25u, 0x20u},
 504:.\Generated_Source\PSoC4/cyfitter_cfg.c **** 			{0x27u, 0x40u},
 505:.\Generated_Source\PSoC4/cyfitter_cfg.c **** 			{0x2Bu, 0x01u},
 506:.\Generated_Source\PSoC4/cyfitter_cfg.c **** 			{0x2Cu, 0x80u},
 507:.\Generated_Source\PSoC4/cyfitter_cfg.c **** 			{0x2Fu, 0x05u},
 508:.\Generated_Source\PSoC4/cyfitter_cfg.c **** 			{0x31u, 0x16u},
 509:.\Generated_Source\PSoC4/cyfitter_cfg.c **** 			{0x35u, 0x10u},
 510:.\Generated_Source\PSoC4/cyfitter_cfg.c **** 			{0x37u, 0x41u},
 511:.\Generated_Source\PSoC4/cyfitter_cfg.c **** 			{0x39u, 0x01u},
 512:.\Generated_Source\PSoC4/cyfitter_cfg.c **** 			{0x3Bu, 0x02u},
 513:.\Generated_Source\PSoC4/cyfitter_cfg.c **** 			{0x3Cu, 0x80u},
 514:.\Generated_Source\PSoC4/cyfitter_cfg.c **** 			{0x3Eu, 0xD4u},
 515:.\Generated_Source\PSoC4/cyfitter_cfg.c **** 			{0x3Fu, 0x02u},
 516:.\Generated_Source\PSoC4/cyfitter_cfg.c **** 			{0x40u, 0xC0u},
 517:.\Generated_Source\PSoC4/cyfitter_cfg.c **** 			{0x45u, 0x20u},
 518:.\Generated_Source\PSoC4/cyfitter_cfg.c **** 			{0x46u, 0x08u},
 519:.\Generated_Source\PSoC4/cyfitter_cfg.c **** 			{0x59u, 0x29u},
 520:.\Generated_Source\PSoC4/cyfitter_cfg.c **** 			{0x5Au, 0x80u},
 521:.\Generated_Source\PSoC4/cyfitter_cfg.c **** 			{0x61u, 0x40u},
 522:.\Generated_Source\PSoC4/cyfitter_cfg.c **** 			{0x66u, 0x58u},
 523:.\Generated_Source\PSoC4/cyfitter_cfg.c **** 			{0x85u, 0x21u},
ARM GAS  C:\Users\Milo\AppData\Local\Temp\ccatHGDr.s 			page 11


 524:.\Generated_Source\PSoC4/cyfitter_cfg.c **** 			{0x8Bu, 0x08u},
 525:.\Generated_Source\PSoC4/cyfitter_cfg.c **** 			{0x91u, 0x41u},
 526:.\Generated_Source\PSoC4/cyfitter_cfg.c **** 			{0x92u, 0x94u},
 527:.\Generated_Source\PSoC4/cyfitter_cfg.c **** 			{0x99u, 0x0Au},
 528:.\Generated_Source\PSoC4/cyfitter_cfg.c **** 			{0x9Au, 0x50u},
 529:.\Generated_Source\PSoC4/cyfitter_cfg.c **** 			{0x9Bu, 0x18u},
 530:.\Generated_Source\PSoC4/cyfitter_cfg.c **** 			{0x9Cu, 0x80u},
 531:.\Generated_Source\PSoC4/cyfitter_cfg.c **** 			{0x9Du, 0x14u},
 532:.\Generated_Source\PSoC4/cyfitter_cfg.c **** 			{0x9Eu, 0x80u},
 533:.\Generated_Source\PSoC4/cyfitter_cfg.c **** 			{0xA0u, 0xE2u},
 534:.\Generated_Source\PSoC4/cyfitter_cfg.c **** 			{0xA3u, 0x01u},
 535:.\Generated_Source\PSoC4/cyfitter_cfg.c **** 			{0xAEu, 0x40u},
 536:.\Generated_Source\PSoC4/cyfitter_cfg.c **** 			{0xB4u, 0x08u},
 537:.\Generated_Source\PSoC4/cyfitter_cfg.c **** 			{0xB5u, 0x04u},
 538:.\Generated_Source\PSoC4/cyfitter_cfg.c **** 			{0xB7u, 0x40u},
 539:.\Generated_Source\PSoC4/cyfitter_cfg.c **** 			{0xC0u, 0xFFu},
 540:.\Generated_Source\PSoC4/cyfitter_cfg.c **** 			{0xC2u, 0xBEu},
 541:.\Generated_Source\PSoC4/cyfitter_cfg.c **** 			{0xC4u, 0x7Cu},
 542:.\Generated_Source\PSoC4/cyfitter_cfg.c **** 			{0xCAu, 0xB8u},
 543:.\Generated_Source\PSoC4/cyfitter_cfg.c **** 			{0xCCu, 0xB7u},
 544:.\Generated_Source\PSoC4/cyfitter_cfg.c **** 			{0xCEu, 0xF0u},
 545:.\Generated_Source\PSoC4/cyfitter_cfg.c **** 			{0xD6u, 0x0Fu},
 546:.\Generated_Source\PSoC4/cyfitter_cfg.c **** 			{0xD8u, 0x78u},
 547:.\Generated_Source\PSoC4/cyfitter_cfg.c **** 			{0xECu, 0x02u},
 548:.\Generated_Source\PSoC4/cyfitter_cfg.c **** 			{0x08u, 0x20u},
 549:.\Generated_Source\PSoC4/cyfitter_cfg.c **** 			{0xC2u, 0x02u},
 550:.\Generated_Source\PSoC4/cyfitter_cfg.c **** 			{0x5Eu, 0x80u},
 551:.\Generated_Source\PSoC4/cyfitter_cfg.c **** 			{0x64u, 0x10u},
 552:.\Generated_Source\PSoC4/cyfitter_cfg.c **** 			{0x8Au, 0x40u},
 553:.\Generated_Source\PSoC4/cyfitter_cfg.c **** 			{0x98u, 0x10u},
 554:.\Generated_Source\PSoC4/cyfitter_cfg.c **** 			{0xACu, 0x10u},
 555:.\Generated_Source\PSoC4/cyfitter_cfg.c **** 			{0xB4u, 0x20u},
 556:.\Generated_Source\PSoC4/cyfitter_cfg.c **** 			{0xD6u, 0x04u},
 557:.\Generated_Source\PSoC4/cyfitter_cfg.c **** 			{0xD8u, 0x01u},
 558:.\Generated_Source\PSoC4/cyfitter_cfg.c **** 			{0xE0u, 0x04u},
 559:.\Generated_Source\PSoC4/cyfitter_cfg.c **** 			{0xEAu, 0x02u},
 560:.\Generated_Source\PSoC4/cyfitter_cfg.c **** 			{0x10u, 0x01u},
 561:.\Generated_Source\PSoC4/cyfitter_cfg.c **** 			{0x11u, 0x01u},
 562:.\Generated_Source\PSoC4/cyfitter_cfg.c **** 		};
 563:.\Generated_Source\PSoC4/cyfitter_cfg.c **** 
 564:.\Generated_Source\PSoC4/cyfitter_cfg.c **** 
 565:.\Generated_Source\PSoC4/cyfitter_cfg.c **** 
 566:.\Generated_Source\PSoC4/cyfitter_cfg.c **** 		CYPACKED typedef struct {
 567:.\Generated_Source\PSoC4/cyfitter_cfg.c **** 			void CYFAR *address;
 568:.\Generated_Source\PSoC4/cyfitter_cfg.c **** 			uint16 size;
 569:.\Generated_Source\PSoC4/cyfitter_cfg.c **** 		} CYPACKED_ATTR cfg_memset_t;
 570:.\Generated_Source\PSoC4/cyfitter_cfg.c **** 
 571:.\Generated_Source\PSoC4/cyfitter_cfg.c **** 
 572:.\Generated_Source\PSoC4/cyfitter_cfg.c **** 		CYPACKED typedef struct {
 573:.\Generated_Source\PSoC4/cyfitter_cfg.c **** 			void CYFAR *dest;
 574:.\Generated_Source\PSoC4/cyfitter_cfg.c **** 			const void CYCODE *src;
 575:.\Generated_Source\PSoC4/cyfitter_cfg.c **** 			uint16 size;
 576:.\Generated_Source\PSoC4/cyfitter_cfg.c **** 		} CYPACKED_ATTR cfg_memcpy_t;
 577:.\Generated_Source\PSoC4/cyfitter_cfg.c **** 
 578:.\Generated_Source\PSoC4/cyfitter_cfg.c **** 		static const cfg_memset_t CYCODE cfg_memset_list [] = {
 579:.\Generated_Source\PSoC4/cyfitter_cfg.c **** 			/* address, size */
 580:.\Generated_Source\PSoC4/cyfitter_cfg.c **** 			{(void CYFAR *)(CYDEV_UDB_P0_U0_BASE), 128u},
ARM GAS  C:\Users\Milo\AppData\Local\Temp\ccatHGDr.s 			page 12


 581:.\Generated_Source\PSoC4/cyfitter_cfg.c **** 			{(void CYFAR *)(CYDEV_UDB_P0_ROUTE_BASE), 768u},
 582:.\Generated_Source\PSoC4/cyfitter_cfg.c **** 			{(void CYFAR *)(CYDEV_UDB_DSI0_BASE), 1024u},
 583:.\Generated_Source\PSoC4/cyfitter_cfg.c **** 		};
 584:.\Generated_Source\PSoC4/cyfitter_cfg.c **** 
 585:.\Generated_Source\PSoC4/cyfitter_cfg.c **** 		/* UDB_0_1_1_CONFIG Address: CYDEV_UDB_P0_U1_BASE Size (bytes): 128 */
 586:.\Generated_Source\PSoC4/cyfitter_cfg.c **** 		static const uint8 CYCODE BS_UDB_0_1_1_CONFIG_VAL[] = {
 587:.\Generated_Source\PSoC4/cyfitter_cfg.c **** 			0x04u, 0x40u, 0x00u, 0x00u, 0x07u, 0x40u, 0x38u, 0x00u, 0x60u, 0x00u, 0x00u, 0x40u, 0x56u, 0x40u
 588:.\Generated_Source\PSoC4/cyfitter_cfg.c **** 			0x01u, 0x40u, 0x00u, 0x00u, 0x00u, 0x03u, 0x04u, 0x3Cu, 0x0Au, 0x15u, 0x10u, 0x6Au, 0x04u, 0x00u
 589:.\Generated_Source\PSoC4/cyfitter_cfg.c **** 			0x04u, 0x79u, 0x00u, 0x06u, 0x04u, 0x00u, 0x00u, 0x00u, 0x04u, 0x10u, 0x00u, 0x60u, 0x00u, 0x02u
 590:.\Generated_Source\PSoC4/cyfitter_cfg.c **** 			0x7Fu, 0x00u, 0x00u, 0x00u, 0x00u, 0x70u, 0x00u, 0x0Fu, 0x02u, 0x00u, 0x00u, 0xA0u, 0x00u, 0x00u
 591:.\Generated_Source\PSoC4/cyfitter_cfg.c **** 			0x35u, 0x01u, 0x40u, 0x00u, 0x02u, 0x0Eu, 0xFDu, 0xCBu, 0x3Du, 0xFFu, 0xFFu, 0xFFu, 0x22u, 0x00u
 592:.\Generated_Source\PSoC4/cyfitter_cfg.c **** 			0x04u, 0x00u, 0x00u, 0x00u, 0x00u, 0x00u, 0x02u, 0x20u, 0x04u, 0x04u, 0x04u, 0x04u, 0x00u, 0x00u
 593:.\Generated_Source\PSoC4/cyfitter_cfg.c **** 			0x00u, 0x00u, 0xC0u, 0x00u, 0x40u, 0x01u, 0x10u, 0x11u, 0xC0u, 0x01u, 0x00u, 0x11u, 0x40u, 0x01u
 594:.\Generated_Source\PSoC4/cyfitter_cfg.c **** 			0x00u, 0x00u, 0x00u, 0x00u, 0x00u, 0x00u, 0x00u, 0x00u, 0x00u, 0x00u, 0x00u, 0x00u, 0x00u, 0x00u
 595:.\Generated_Source\PSoC4/cyfitter_cfg.c **** 
 596:.\Generated_Source\PSoC4/cyfitter_cfg.c **** 		static const cfg_memcpy_t CYCODE cfg_memcpy_list [] = {
 597:.\Generated_Source\PSoC4/cyfitter_cfg.c **** 			/* dest, src, size */
 598:.\Generated_Source\PSoC4/cyfitter_cfg.c **** 			{(void CYFAR *)(CYDEV_UDB_P0_U1_BASE), BS_UDB_0_1_1_CONFIG_VAL, 128u},
 599:.\Generated_Source\PSoC4/cyfitter_cfg.c **** 		};
 600:.\Generated_Source\PSoC4/cyfitter_cfg.c **** 
 601:.\Generated_Source\PSoC4/cyfitter_cfg.c **** 		uint8 CYDATA i;
 602:.\Generated_Source\PSoC4/cyfitter_cfg.c **** 
 603:.\Generated_Source\PSoC4/cyfitter_cfg.c **** 		/* Zero out critical memory blocks before beginning configuration */
 604:.\Generated_Source\PSoC4/cyfitter_cfg.c **** 		for (i = 0u; i < (sizeof(cfg_memset_list)/sizeof(cfg_memset_list[0])); i++)
 605:.\Generated_Source\PSoC4/cyfitter_cfg.c **** 		{
 606:.\Generated_Source\PSoC4/cyfitter_cfg.c **** 			const cfg_memset_t CYCODE * CYDATA ms = &cfg_memset_list[i];
  48              		.loc 1 606 0 discriminator 2
  49 0006 0623     		mov	r3, #6
  50 0008 6343     		mul	r3, r4
  51 000a 5D4D     		ldr	r5, .L13
  52 000c 0134     		add	r4, r4, #1
  53 000e EE18     		add	r6, r5, r3
  54              	.LVL2:
 607:.\Generated_Source\PSoC4/cyfitter_cfg.c **** 			CYMEMZERO(ms->address, (uint32)(ms->size));
  55              		.loc 1 607 0 discriminator 2
  56 0010 7279     		ldrb	r2, [r6, #5]
  57 0012 7078     		ldrb	r0, [r6, #1]
  58 0014 3179     		ldrb	r1, [r6, #4]
  59 0016 3778     		ldrb	r7, [r6]
  60 0018 B378     		ldrb	r3, [r6, #2]
  61 001a 1202     		lsl	r2, r2, #8
  62 001c F678     		ldrb	r6, [r6, #3]
  63              	.LVL3:
  64 001e 0002     		lsl	r0, r0, #8
  65 0020 0A43     		orr	r2, r1
  66 0022 3843     		orr	r0, r7
  67 0024 1904     		lsl	r1, r3, #16
  68 0026 0843     		orr	r0, r1
  69 0028 3706     		lsl	r7, r6, #24
  70 002a 3843     		orr	r0, r7
  71              	.LBB26:
  72              	.LBB27:
  59:.\Generated_Source\PSoC4/cyfitter_cfg.c **** 	(void)memset(s, 0, n);
  73              		.loc 1 59 0 discriminator 2
  74 002c 0021     		mov	r1, #0
  75 002e FFF7FEFF 		bl	memset
  76              	.LVL4:
ARM GAS  C:\Users\Milo\AppData\Local\Temp\ccatHGDr.s 			page 13


  77              	.LBE27:
  78              	.LBE26:
  79              	.LBE25:
 604:.\Generated_Source\PSoC4/cyfitter_cfg.c **** 		for (i = 0u; i < (sizeof(cfg_memset_list)/sizeof(cfg_memset_list[0])); i++)
  80              		.loc 1 604 0 discriminator 2
  81 0032 032C     		cmp	r4, #3
  82 0034 E7D1     		bne	.L2
  83              	.LVL5:
 598:.\Generated_Source\PSoC4/cyfitter_cfg.c **** 			{(void CYFAR *)(CYDEV_UDB_P0_U1_BASE), BS_UDB_0_1_1_CONFIG_VAL, 128u},
  84              		.loc 1 598 0 discriminator 2
  85 0036 291C     		mov	r1, r5
  86 0038 1231     		add	r1, r1, #18
  73:.\Generated_Source\PSoC4/cyfitter_cfg.c **** 	(void)memcpy(dest, src, n);
  87              		.loc 1 73 0 discriminator 2
  88 003a 5248     		ldr	r0, .L13+4
  89 003c 8022     		mov	r2, #128
  90 003e FFF7FEFF 		bl	memcpy
  91              	.LVL6:
  92              	.LBE24:
  93 0042 0023     		mov	r3, #0
  94 0044 191C     		mov	r1, r3
  95              	.LVL7:
  96              	.L5:
  97              	.LBB31:
  98              	.LBB28:
  99              	.LBB29:
 100              	.LBB30:
 152:.\Generated_Source\PSoC4/cyfitter_cfg.c **** 		uint32 baseAddr = addr_table[i];
 101              		.loc 1 152 0
 102 0046 504A     		ldr	r2, .L13+8
 154:.\Generated_Source\PSoC4/cyfitter_cfg.c **** 		baseAddr &= 0xFFFFFF00u;
 103              		.loc 1 154 0
 104 0048 FF25     		mov	r5, #255
 152:.\Generated_Source\PSoC4/cyfitter_cfg.c **** 		uint32 baseAddr = addr_table[i];
 105              		.loc 1 152 0
 106 004a 141C     		mov	r4, r2
 107 004c 1434     		add	r4, r4, #20
 108 004e 1859     		ldr	r0, [r3, r4]
 109              	.LVL8:
 608:.\Generated_Source\PSoC4/cyfitter_cfg.c **** 		}
 609:.\Generated_Source\PSoC4/cyfitter_cfg.c **** 
 610:.\Generated_Source\PSoC4/cyfitter_cfg.c **** 		/* Copy device configuration data into registers */
 611:.\Generated_Source\PSoC4/cyfitter_cfg.c **** 		for (i = 0u; i < (sizeof(cfg_memcpy_list)/sizeof(cfg_memcpy_list[0])); i++)
 612:.\Generated_Source\PSoC4/cyfitter_cfg.c **** 		{
 613:.\Generated_Source\PSoC4/cyfitter_cfg.c **** 			const cfg_memcpy_t CYCODE * CYDATA mc = &cfg_memcpy_list[i];
 614:.\Generated_Source\PSoC4/cyfitter_cfg.c **** 			void * CYDATA destPtr = mc->dest;
 615:.\Generated_Source\PSoC4/cyfitter_cfg.c **** 			const void CYCODE * CYDATA srcPtr = mc->src;
 616:.\Generated_Source\PSoC4/cyfitter_cfg.c **** 			uint16 CYDATA numBytes = mc->size;
 617:.\Generated_Source\PSoC4/cyfitter_cfg.c **** 			CYCONFIGCPYCODE(destPtr, srcPtr, numBytes);
 618:.\Generated_Source\PSoC4/cyfitter_cfg.c **** 		}
 619:.\Generated_Source\PSoC4/cyfitter_cfg.c **** 
 620:.\Generated_Source\PSoC4/cyfitter_cfg.c **** 		cfg_write_bytes32(cy_cfg_addr_table, cy_cfg_data_table);
 110              		.loc 1 620 0
 111 0050 3432     		add	r2, r2, #52
 154:.\Generated_Source\PSoC4/cyfitter_cfg.c **** 		baseAddr &= 0xFFFFFF00u;
 112              		.loc 1 154 0
 113 0052 061C     		mov	r6, r0
ARM GAS  C:\Users\Milo\AppData\Local\Temp\ccatHGDr.s 			page 14


 114 0054 AE43     		bic	r6, r5
 319:.\Generated_Source\PSoC4/cyfitter_cfg.c **** void cyfitter_cfg(void)
 115              		.loc 1 319 0
 116 0056 4F00     		lsl	r7, r1, #1
 153:.\Generated_Source\PSoC4/cyfitter_cfg.c **** 		uint8 count = (uint8)baseAddr;
 117              		.loc 1 153 0
 118 0058 C4B2     		uxtb	r4, r0
 119              	.LVL9:
 154:.\Generated_Source\PSoC4/cyfitter_cfg.c **** 		baseAddr &= 0xFFFFFF00u;
 120              		.loc 1 154 0
 121 005a 351C     		mov	r5, r6
 122              	.LVL10:
 319:.\Generated_Source\PSoC4/cyfitter_cfg.c **** void cyfitter_cfg(void)
 123              		.loc 1 319 0
 124 005c D219     		add	r2, r2, r7
 125              	.LVL11:
 126              	.L3:
 155:.\Generated_Source\PSoC4/cyfitter_cfg.c **** 		while (count != 0u)
 127              		.loc 1 155 0
 128 005e 002C     		cmp	r4, #0
 129 0060 07D0     		beq	.L12
 130              	.L4:
 157:.\Generated_Source\PSoC4/cyfitter_cfg.c **** 			CY_SET_XTND_REG8((void CYFAR *)(baseAddr + data_table[j].offset), data_table[j].value);
 131              		.loc 1 157 0
 132 0062 1778     		ldrb	r7, [r2]
 159:.\Generated_Source\PSoC4/cyfitter_cfg.c **** 			count--;
 133              		.loc 1 159 0
 134 0064 013C     		sub	r4, r4, #1
 135              	.LVL12:
 157:.\Generated_Source\PSoC4/cyfitter_cfg.c **** 			CY_SET_XTND_REG8((void CYFAR *)(baseAddr + data_table[j].offset), data_table[j].value);
 136              		.loc 1 157 0
 137 0066 7E19     		add	r6, r7, r5
 138 0068 5778     		ldrb	r7, [r2, #1]
 159:.\Generated_Source\PSoC4/cyfitter_cfg.c **** 			count--;
 139              		.loc 1 159 0
 140 006a E4B2     		uxtb	r4, r4
 141              	.LVL13:
 157:.\Generated_Source\PSoC4/cyfitter_cfg.c **** 			CY_SET_XTND_REG8((void CYFAR *)(baseAddr + data_table[j].offset), data_table[j].value);
 142              		.loc 1 157 0
 143 006c 3770     		strb	r7, [r6]
 144              	.LVL14:
 145 006e 0232     		add	r2, r2, #2
 146 0070 F5E7     		b	.L3
 147              	.L12:
 319:.\Generated_Source\PSoC4/cyfitter_cfg.c **** void cyfitter_cfg(void)
 148              		.loc 1 319 0
 149 0072 C0B2     		uxtb	r0, r0
 150 0074 0433     		add	r3, r3, #4
 151 0076 0918     		add	r1, r1, r0
 152              	.LVL15:
 153              	.LBE30:
 150:.\Generated_Source\PSoC4/cyfitter_cfg.c **** 	for (i = 0u; i < CY_CFG_BASE_ADDR_COUNT; i++)
 154              		.loc 1 150 0
 155 0078 202B     		cmp	r3, #32
 156 007a E4D1     		bne	.L5
 157              	.LBE29:
 158              	.LBE28:
ARM GAS  C:\Users\Milo\AppData\Local\Temp\ccatHGDr.s 			page 15


 621:.\Generated_Source\PSoC4/cyfitter_cfg.c **** 
 622:.\Generated_Source\PSoC4/cyfitter_cfg.c **** 		/* Perform normal device configuration. Order is not critical for these items. */
 623:.\Generated_Source\PSoC4/cyfitter_cfg.c **** 		CY_SET_XTND_REG16((void CYFAR *)(CYREG_UDB_BCTL0_DRV), 0x0100u);
 159              		.loc 1 623 0
 160 007c 8023     		mov	r3, #128
 161 007e 434C     		ldr	r4, .L13+12
 162              	.LVL16:
 624:.\Generated_Source\PSoC4/cyfitter_cfg.c **** 		CY_SET_XTND_REG8((void CYFAR *)(CYREG_UDB_BCTL0_DRV + 0x2u), 0x01u);
 163              		.loc 1 624 0
 164 0080 434E     		ldr	r6, .L13+16
 623:.\Generated_Source\PSoC4/cyfitter_cfg.c **** 		CY_SET_XTND_REG16((void CYFAR *)(CYREG_UDB_BCTL0_DRV), 0x0100u);
 165              		.loc 1 623 0
 166 0082 5A00     		lsl	r2, r3, #1
 167              		.loc 1 624 0
 168 0084 0125     		mov	r5, #1
 169              	.LVL17:
 625:.\Generated_Source\PSoC4/cyfitter_cfg.c **** 
 626:.\Generated_Source\PSoC4/cyfitter_cfg.c **** 		/* HSIOM Starting address: CYDEV_HSIOM_BASE */
 627:.\Generated_Source\PSoC4/cyfitter_cfg.c **** 		CY_SET_XTND_REG32((void CYFAR *)(CYDEV_HSIOM_BASE), 0x00EE0000u);
 170              		.loc 1 627 0
 171 0086 EE27     		mov	r7, #238
 623:.\Generated_Source\PSoC4/cyfitter_cfg.c **** 		CY_SET_XTND_REG16((void CYFAR *)(CYREG_UDB_BCTL0_DRV), 0x0100u);
 172              		.loc 1 623 0
 173 0088 2280     		strh	r2, [r4]
 174              		.loc 1 627 0
 175 008a 3804     		lsl	r0, r7, #16
 624:.\Generated_Source\PSoC4/cyfitter_cfg.c **** 		CY_SET_XTND_REG8((void CYFAR *)(CYREG_UDB_BCTL0_DRV + 0x2u), 0x01u);
 176              		.loc 1 624 0
 177 008c 3570     		strb	r5, [r6]
 178              		.loc 1 627 0
 179 008e 4149     		ldr	r1, .L13+20
 180              	.LVL18:
 628:.\Generated_Source\PSoC4/cyfitter_cfg.c **** 		CY_SET_XTND_REG32((void CYFAR *)(CYREG_HSIOM_PORT_SEL3), 0x0300EE03u);
 181              		.loc 1 628 0
 182 0090 414A     		ldr	r2, .L13+24
 183 0092 424B     		ldr	r3, .L13+28
 629:.\Generated_Source\PSoC4/cyfitter_cfg.c **** 		CY_SET_XTND_REG32((void CYFAR *)(CYREG_HSIOM_PORT_SEL4), 0x00000099u);
 184              		.loc 1 629 0
 185 0094 424D     		ldr	r5, .L13+32
 630:.\Generated_Source\PSoC4/cyfitter_cfg.c **** 
 631:.\Generated_Source\PSoC4/cyfitter_cfg.c **** 		/* IOPINS0_0 Starting address: CYDEV_PRT0_DR */
 632:.\Generated_Source\PSoC4/cyfitter_cfg.c **** 		CY_SET_XTND_REG32((void CYFAR *)(CYREG_PRT0_DR), 0x00000030u);
 186              		.loc 1 632 0
 187 0096 434F     		ldr	r7, .L13+36
 629:.\Generated_Source\PSoC4/cyfitter_cfg.c **** 		CY_SET_XTND_REG32((void CYFAR *)(CYREG_HSIOM_PORT_SEL4), 0x00000099u);
 188              		.loc 1 629 0
 189 0098 9924     		mov	r4, #153
 190              		.loc 1 632 0
 191 009a 3026     		mov	r6, #48
 627:.\Generated_Source\PSoC4/cyfitter_cfg.c **** 		CY_SET_XTND_REG32((void CYFAR *)(CYDEV_HSIOM_BASE), 0x00EE0000u);
 192              		.loc 1 627 0
 193 009c 0860     		str	r0, [r1]
 628:.\Generated_Source\PSoC4/cyfitter_cfg.c **** 		CY_SET_XTND_REG32((void CYFAR *)(CYREG_HSIOM_PORT_SEL3), 0x0300EE03u);
 194              		.loc 1 628 0
 195 009e 1A60     		str	r2, [r3]
 633:.\Generated_Source\PSoC4/cyfitter_cfg.c **** 		CY_SET_XTND_REG32((void CYFAR *)(CYREG_PRT0_PC), 0x00024000u);
 196              		.loc 1 633 0
ARM GAS  C:\Users\Milo\AppData\Local\Temp\ccatHGDr.s 			page 16


 197 00a0 9020     		mov	r0, #144
 629:.\Generated_Source\PSoC4/cyfitter_cfg.c **** 		CY_SET_XTND_REG32((void CYFAR *)(CYREG_HSIOM_PORT_SEL4), 0x00000099u);
 198              		.loc 1 629 0
 199 00a2 2C60     		str	r4, [r5]
 200              		.loc 1 633 0
 201 00a4 404A     		ldr	r2, .L13+40
 632:.\Generated_Source\PSoC4/cyfitter_cfg.c **** 		CY_SET_XTND_REG32((void CYFAR *)(CYREG_PRT0_DR), 0x00000030u);
 202              		.loc 1 632 0
 203 00a6 3E60     		str	r6, [r7]
 634:.\Generated_Source\PSoC4/cyfitter_cfg.c **** 
 635:.\Generated_Source\PSoC4/cyfitter_cfg.c **** 		/* IOPINS0_2 Starting address: CYDEV_PRT2_DR */
 636:.\Generated_Source\PSoC4/cyfitter_cfg.c **** 		CY_SET_XTND_REG32((void CYFAR *)(CYREG_PRT2_PC), 0x00040000u);
 204              		.loc 1 636 0
 205 00a8 8023     		mov	r3, #128
 206 00aa 404C     		ldr	r4, .L13+44
 637:.\Generated_Source\PSoC4/cyfitter_cfg.c **** 
 638:.\Generated_Source\PSoC4/cyfitter_cfg.c **** 		/* IOPINS0_3 Starting address: CYDEV_PRT3_DR */
 639:.\Generated_Source\PSoC4/cyfitter_cfg.c **** 		CY_SET_XTND_REG32((void CYFAR *)(CYREG_PRT3_DR), 0x00000041u);
 207              		.loc 1 639 0
 208 00ac 404F     		ldr	r7, .L13+48
 633:.\Generated_Source\PSoC4/cyfitter_cfg.c **** 		CY_SET_XTND_REG32((void CYFAR *)(CYREG_PRT0_PC), 0x00024000u);
 209              		.loc 1 633 0
 210 00ae 8102     		lsl	r1, r0, #10
 636:.\Generated_Source\PSoC4/cyfitter_cfg.c **** 		CY_SET_XTND_REG32((void CYFAR *)(CYREG_PRT2_PC), 0x00040000u);
 211              		.loc 1 636 0
 212 00b0 DD02     		lsl	r5, r3, #11
 213              		.loc 1 639 0
 214 00b2 4126     		mov	r6, #65
 633:.\Generated_Source\PSoC4/cyfitter_cfg.c **** 		CY_SET_XTND_REG32((void CYFAR *)(CYREG_PRT0_PC), 0x00024000u);
 215              		.loc 1 633 0
 216 00b4 1160     		str	r1, [r2]
 640:.\Generated_Source\PSoC4/cyfitter_cfg.c **** 		CY_SET_XTND_REG32((void CYFAR *)(CYREG_PRT3_PC), 0x00186D86u);
 217              		.loc 1 640 0
 218 00b6 3F48     		ldr	r0, .L13+52
 636:.\Generated_Source\PSoC4/cyfitter_cfg.c **** 		CY_SET_XTND_REG32((void CYFAR *)(CYREG_PRT2_PC), 0x00040000u);
 219              		.loc 1 636 0
 220 00b8 2560     		str	r5, [r4]
 221              		.loc 1 640 0
 222 00ba 3F49     		ldr	r1, .L13+56
 639:.\Generated_Source\PSoC4/cyfitter_cfg.c **** 		CY_SET_XTND_REG32((void CYFAR *)(CYREG_PRT3_DR), 0x00000041u);
 223              		.loc 1 639 0
 224 00bc 3E60     		str	r6, [r7]
 641:.\Generated_Source\PSoC4/cyfitter_cfg.c **** 
 642:.\Generated_Source\PSoC4/cyfitter_cfg.c **** 		/* IOPINS0_4 Starting address: CYDEV_PRT4_DR */
 643:.\Generated_Source\PSoC4/cyfitter_cfg.c **** 		CY_SET_XTND_REG32((void CYFAR *)(CYREG_PRT4_DR), 0x00000002u);
 225              		.loc 1 643 0
 226 00be 3F4B     		ldr	r3, .L13+60
 644:.\Generated_Source\PSoC4/cyfitter_cfg.c **** 		CY_SET_XTND_REG32((void CYFAR *)(CYREG_PRT4_PC), 0x00000031u);
 227              		.loc 1 644 0
 228 00c0 3F4E     		ldr	r6, .L13+64
 643:.\Generated_Source\PSoC4/cyfitter_cfg.c **** 		CY_SET_XTND_REG32((void CYFAR *)(CYREG_PRT4_DR), 0x00000002u);
 229              		.loc 1 643 0
 230 00c2 0222     		mov	r2, #2
 231              		.loc 1 644 0
 232 00c4 3124     		mov	r4, #49
 640:.\Generated_Source\PSoC4/cyfitter_cfg.c **** 		CY_SET_XTND_REG32((void CYFAR *)(CYREG_PRT3_PC), 0x00186D86u);
 233              		.loc 1 640 0
ARM GAS  C:\Users\Milo\AppData\Local\Temp\ccatHGDr.s 			page 17


 234 00c6 0860     		str	r0, [r1]
 645:.\Generated_Source\PSoC4/cyfitter_cfg.c **** 		CY_SET_XTND_REG32((void CYFAR *)(CYREG_PRT4_PC2), 0x00000002u);
 235              		.loc 1 645 0
 236 00c8 3E4F     		ldr	r7, .L13+68
 643:.\Generated_Source\PSoC4/cyfitter_cfg.c **** 		CY_SET_XTND_REG32((void CYFAR *)(CYREG_PRT4_DR), 0x00000002u);
 237              		.loc 1 643 0
 238 00ca 1A60     		str	r2, [r3]
 646:.\Generated_Source\PSoC4/cyfitter_cfg.c **** 
 647:.\Generated_Source\PSoC4/cyfitter_cfg.c **** 		/* UDB_PA_0 Starting address: CYDEV_UDB_PA0_BASE */
 648:.\Generated_Source\PSoC4/cyfitter_cfg.c **** 		CY_SET_XTND_REG32((void CYFAR *)(CYDEV_UDB_PA0_BASE), 0x00990000u);
 239              		.loc 1 648 0
 240 00cc 9920     		mov	r0, #153
 644:.\Generated_Source\PSoC4/cyfitter_cfg.c **** 		CY_SET_XTND_REG32((void CYFAR *)(CYREG_PRT4_PC), 0x00000031u);
 241              		.loc 1 644 0
 242 00ce 3460     		str	r4, [r6]
 243              		.loc 1 648 0
 244 00d0 3D4B     		ldr	r3, .L13+72
 649:.\Generated_Source\PSoC4/cyfitter_cfg.c **** 
 650:.\Generated_Source\PSoC4/cyfitter_cfg.c **** 		/* UDB_PA_2 Starting address: CYDEV_UDB_PA2_BASE */
 651:.\Generated_Source\PSoC4/cyfitter_cfg.c **** 		CY_SET_XTND_REG32((void CYFAR *)(CYDEV_UDB_PA2_BASE), 0x00990004u);
 245              		.loc 1 651 0
 246 00d2 3E4C     		ldr	r4, .L13+76
 247 00d4 3E4E     		ldr	r6, .L13+80
 648:.\Generated_Source\PSoC4/cyfitter_cfg.c **** 		CY_SET_XTND_REG32((void CYFAR *)(CYDEV_UDB_PA0_BASE), 0x00990000u);
 248              		.loc 1 648 0
 249 00d6 0104     		lsl	r1, r0, #16
 645:.\Generated_Source\PSoC4/cyfitter_cfg.c **** 		CY_SET_XTND_REG32((void CYFAR *)(CYREG_PRT4_PC2), 0x00000002u);
 250              		.loc 1 645 0
 251 00d8 3A60     		str	r2, [r7]
 652:.\Generated_Source\PSoC4/cyfitter_cfg.c **** 		CY_SET_XTND_REG32((void CYFAR *)(CYREG_UDB_PA2_CFG4), 0x20000000u);
 252              		.loc 1 652 0
 253 00da 3E48     		ldr	r0, .L13+84
 648:.\Generated_Source\PSoC4/cyfitter_cfg.c **** 		CY_SET_XTND_REG32((void CYFAR *)(CYDEV_UDB_PA0_BASE), 0x00990000u);
 254              		.loc 1 648 0
 255 00dc 1960     		str	r1, [r3]
 256              		.loc 1 652 0
 257 00de 8027     		mov	r7, #128
 651:.\Generated_Source\PSoC4/cyfitter_cfg.c **** 		CY_SET_XTND_REG32((void CYFAR *)(CYDEV_UDB_PA2_BASE), 0x00990004u);
 258              		.loc 1 651 0
 259 00e0 3460     		str	r4, [r6]
 653:.\Generated_Source\PSoC4/cyfitter_cfg.c **** 
 654:.\Generated_Source\PSoC4/cyfitter_cfg.c **** 		/* UDB_PA_3 Starting address: CYDEV_UDB_PA3_BASE */
 655:.\Generated_Source\PSoC4/cyfitter_cfg.c **** 		CY_SET_XTND_REG32((void CYFAR *)(CYDEV_UDB_PA3_BASE), 0x00990000u);
 260              		.loc 1 655 0
 261 00e2 3D4C     		ldr	r4, .L13+88
 652:.\Generated_Source\PSoC4/cyfitter_cfg.c **** 		CY_SET_XTND_REG32((void CYFAR *)(CYREG_UDB_PA2_CFG4), 0x20000000u);
 262              		.loc 1 652 0
 263 00e4 BB05     		lsl	r3, r7, #22
 264 00e6 0360     		str	r3, [r0]
 656:.\Generated_Source\PSoC4/cyfitter_cfg.c **** 		CY_SET_XTND_REG32((void CYFAR *)(CYREG_UDB_PA3_CFG8), 0x30030000u);
 265              		.loc 1 656 0
 266 00e8 3C4E     		ldr	r6, .L13+92
 655:.\Generated_Source\PSoC4/cyfitter_cfg.c **** 		CY_SET_XTND_REG32((void CYFAR *)(CYDEV_UDB_PA3_BASE), 0x00990000u);
 267              		.loc 1 655 0
 268 00ea 2160     		str	r1, [r4]
 269              		.loc 1 656 0
 270 00ec 3C49     		ldr	r1, .L13+96
ARM GAS  C:\Users\Milo\AppData\Local\Temp\ccatHGDr.s 			page 18


 657:.\Generated_Source\PSoC4/cyfitter_cfg.c **** 
 658:.\Generated_Source\PSoC4/cyfitter_cfg.c **** 		/* Enable digital routing */
 659:.\Generated_Source\PSoC4/cyfitter_cfg.c **** 		CY_SET_XTND_REG8((void *)CYREG_UDB_UDBIF_BANK_CTL, CY_GET_XTND_REG8((void *)CYREG_UDB_UDBIF_BANK_
 271              		.loc 1 659 0
 272 00ee 3D4F     		ldr	r7, .L13+100
 656:.\Generated_Source\PSoC4/cyfitter_cfg.c **** 		CY_SET_XTND_REG32((void CYFAR *)(CYREG_UDB_PA3_CFG8), 0x30030000u);
 273              		.loc 1 656 0
 274 00f0 3160     		str	r1, [r6]
 275              		.loc 1 659 0
 276 00f2 3B78     		ldrb	r3, [r7]
 660:.\Generated_Source\PSoC4/cyfitter_cfg.c **** 
 661:.\Generated_Source\PSoC4/cyfitter_cfg.c **** 		/* Enable UDB array */
 662:.\Generated_Source\PSoC4/cyfitter_cfg.c **** 		CY_SET_XTND_REG8((void *)CYREG_UDB_UDBIF_BANK_CTL, CY_GET_XTND_REG8((void *)CYREG_UDB_UDBIF_BANK_
 277              		.loc 1 662 0
 278 00f4 0620     		mov	r0, #6
 659:.\Generated_Source\PSoC4/cyfitter_cfg.c **** 		CY_SET_XTND_REG8((void *)CYREG_UDB_UDBIF_BANK_CTL, CY_GET_XTND_REG8((void *)CYREG_UDB_UDBIF_BANK_
 279              		.loc 1 659 0
 280 00f6 1A43     		orr	r2, r3
 281 00f8 3A70     		strb	r2, [r7]
 282              		.loc 1 662 0
 283 00fa 3A78     		ldrb	r2, [r7]
 284              	.LBE31:
 285              	.LBB32:
 286              	.LBB33:
 239:.\Generated_Source\PSoC4/cyfitter_cfg.c **** 	CY_SET_REG32((void CYXDATA *)(CYREG_CLK_SELECT), (CY_GET_REG32((void *)CYREG_CLK_SELECT) | 0x00040
 287              		.loc 1 239 0
 288 00fc 3A4C     		ldr	r4, .L13+104
 289              	.LBE33:
 290              	.LBE32:
 291              	.LBB44:
 292              		.loc 1 662 0
 293 00fe 0243     		orr	r2, r0
 294 0100 3A70     		strb	r2, [r7]
 295              	.LBE44:
 296              	.LBB45:
 297              	.LBB42:
 239:.\Generated_Source\PSoC4/cyfitter_cfg.c **** 	CY_SET_REG32((void CYXDATA *)(CYREG_CLK_SELECT), (CY_GET_REG32((void *)CYREG_CLK_SELECT) | 0x00040
 298              		.loc 1 239 0
 299 0102 2168     		ldr	r1, [r4]
 300              	.LBB34:
 301              	.LBB35:
 203:.\Generated_Source\PSoC4/cyfitter_cfg.c **** 	setTmpCo = CY_GET_REG8((const void *)CYREG_SFLASH_IMO_TMPCO4);
 302              		.loc 1 203 0
 303 0104 394E     		ldr	r6, .L13+108
 304              	.LBE35:
 305              	.LBE34:
 239:.\Generated_Source\PSoC4/cyfitter_cfg.c **** 	CY_SET_REG32((void CYXDATA *)(CYREG_CLK_SELECT), (CY_GET_REG32((void *)CYREG_CLK_SELECT) | 0x00040
 306              		.loc 1 239 0
 307 0106 0D43     		orr	r5, r1
 308 0108 2560     		str	r5, [r4]
 309              	.LVL19:
 310              	.LBB39:
 311              	.LBB36:
 202:.\Generated_Source\PSoC4/cyfitter_cfg.c **** 	setAbs = CY_GET_REG8((const void *)CYREG_SFLASH_IMO_ABS4);
 312              		.loc 1 202 0
 313 010a 394D     		ldr	r5, .L13+112
 314 010c 394B     		ldr	r3, .L13+116
ARM GAS  C:\Users\Milo\AppData\Local\Temp\ccatHGDr.s 			page 19


 315 010e 2878     		ldrb	r0, [r5]
 316              	.LVL20:
 203:.\Generated_Source\PSoC4/cyfitter_cfg.c **** 	setTmpCo = CY_GET_REG8((const void *)CYREG_SFLASH_IMO_TMPCO4);
 317              		.loc 1 203 0
 318 0110 3178     		ldrb	r1, [r6]
 319              	.LVL21:
 320              	.L6:
 205:.\Generated_Source\PSoC4/cyfitter_cfg.c **** 	     (imoTrimIndex >= 0) && (imoFreq <= imo_trim_table->entries[imoTrimIndex].freq);
 321              		.loc 1 205 0
 322 0112 1F78     		ldrb	r7, [r3]
 323 0114 172F     		cmp	r7, #23
 324 0116 05D9     		bls	.L7
 325              	.L8:
 204:.\Generated_Source\PSoC4/cyfitter_cfg.c **** 	for (imoTrimIndex = ((int32)IMO_TRIM_FREQ_TABLE_ENTRIES)-1;
 326              		.loc 1 204 0
 327 0118 374A     		ldr	r2, .L13+120
 208:.\Generated_Source\PSoC4/cyfitter_cfg.c **** 		setAbs = imo_trim_table->entries[imoTrimIndex].absolute;
 328              		.loc 1 208 0
 329 011a 5878     		ldrb	r0, [r3, #1]
 209:.\Generated_Source\PSoC4/cyfitter_cfg.c **** 		setTmpCo = imo_trim_table->entries[imoTrimIndex].tmpco;
 330              		.loc 1 209 0
 331 011c 9978     		ldrb	r1, [r3, #2]
 332 011e 033B     		sub	r3, r3, #3
 204:.\Generated_Source\PSoC4/cyfitter_cfg.c **** 	for (imoTrimIndex = ((int32)IMO_TRIM_FREQ_TABLE_ENTRIES)-1;
 333              		.loc 1 204 0
 334 0120 9342     		cmp	r3, r2
 335 0122 F6D1     		bne	.L6
 336              	.L7:
 337              	.LBE36:
 338              	.LBE39:
 245:.\Generated_Source\PSoC4/cyfitter_cfg.c **** 	CY_SET_REG32((void CYXDATA *)(CYREG_CLK_IMO_TRIM2), (25u));
 339              		.loc 1 245 0
 340 0124 354B     		ldr	r3, .L13+124
 341              	.LBB40:
 342              	.LBB37:
 212:.\Generated_Source\PSoC4/cyfitter_cfg.c **** 	CY_SET_REG32((void *)CYREG_PWR_BG_TRIM4, setAbs);
 343              		.loc 1 212 0
 344 0126 364D     		ldr	r5, .L13+128
 213:.\Generated_Source\PSoC4/cyfitter_cfg.c **** 	CY_SET_REG32((void *)CYREG_PWR_BG_TRIM5, setTmpCo);
 345              		.loc 1 213 0
 346 0128 364E     		ldr	r6, .L13+132
 347              	.LBE37:
 348              	.LBE40:
 245:.\Generated_Source\PSoC4/cyfitter_cfg.c **** 	CY_SET_REG32((void CYXDATA *)(CYREG_CLK_IMO_TRIM2), (25u));
 349              		.loc 1 245 0
 350 012a 1927     		mov	r7, #25
 351              	.LBB41:
 352              	.LBB38:
 212:.\Generated_Source\PSoC4/cyfitter_cfg.c **** 	CY_SET_REG32((void *)CYREG_PWR_BG_TRIM4, setAbs);
 353              		.loc 1 212 0
 354 012c 2860     		str	r0, [r5]
 213:.\Generated_Source\PSoC4/cyfitter_cfg.c **** 	CY_SET_REG32((void *)CYREG_PWR_BG_TRIM5, setTmpCo);
 355              		.loc 1 213 0
 356 012e 3160     		str	r1, [r6]
 357              	.LBE38:
 358              	.LBE41:
 246:.\Generated_Source\PSoC4/cyfitter_cfg.c **** 	CyDelayCycles(5u);
ARM GAS  C:\Users\Milo\AppData\Local\Temp\ccatHGDr.s 			page 20


 359              		.loc 1 246 0
 360 0130 0520     		mov	r0, #5
 245:.\Generated_Source\PSoC4/cyfitter_cfg.c **** 	CY_SET_REG32((void CYXDATA *)(CYREG_CLK_IMO_TRIM2), (25u));
 361              		.loc 1 245 0
 362 0132 1F60     		str	r7, [r3]
 246:.\Generated_Source\PSoC4/cyfitter_cfg.c **** 	CyDelayCycles(5u);
 363              		.loc 1 246 0
 364 0134 FFF7FEFF 		bl	CyDelayCycles
 365              	.LVL22:
 247:.\Generated_Source\PSoC4/cyfitter_cfg.c **** 	CY_SET_REG32((void CYXDATA *)(CYREG_CLK_IMO_TRIM1), (CY_GET_REG8((void *)CYREG_SFLASH_IMO_TRIM21))
 366              		.loc 1 247 0
 367 0138 3348     		ldr	r0, .L13+136
 368 013a 344A     		ldr	r2, .L13+140
 369 013c 0178     		ldrb	r1, [r0]
 248:.\Generated_Source\PSoC4/cyfitter_cfg.c **** 	CyDelayUs(5u);
 370              		.loc 1 248 0
 371 013e 0520     		mov	r0, #5
 247:.\Generated_Source\PSoC4/cyfitter_cfg.c **** 	CY_SET_REG32((void CYXDATA *)(CYREG_CLK_IMO_TRIM1), (CY_GET_REG8((void *)CYREG_SFLASH_IMO_TRIM21))
 372              		.loc 1 247 0
 373 0140 1160     		str	r1, [r2]
 248:.\Generated_Source\PSoC4/cyfitter_cfg.c **** 	CyDelayUs(5u);
 374              		.loc 1 248 0
 375 0142 FFF7FEFF 		bl	CyDelayUs
 376              	.LVL23:
 251:.\Generated_Source\PSoC4/cyfitter_cfg.c **** 	CY_SET_REG32((void CYXDATA *)(CYREG_CLK_SELECT), (CY_GET_REG32((void *)CYREG_CLK_SELECT) & 0xFFFBF
 377              		.loc 1 251 0
 378 0146 324E     		ldr	r6, .L13+144
 379 0148 2568     		ldr	r5, [r4]
 254:.\Generated_Source\PSoC4/cyfitter_cfg.c **** 	CY_SET_XTND_REG32((void CYFAR *)(CYREG_CLK_SELECT02), 0x00000030u);
 380              		.loc 1 254 0
 381 014a 324F     		ldr	r7, .L13+148
 251:.\Generated_Source\PSoC4/cyfitter_cfg.c **** 	CY_SET_REG32((void CYXDATA *)(CYREG_CLK_SELECT), (CY_GET_REG32((void *)CYREG_CLK_SELECT) & 0xFFFBF
 382              		.loc 1 251 0
 383 014c 2E40     		and	r6, r5
 384 014e 2660     		str	r6, [r4]
 254:.\Generated_Source\PSoC4/cyfitter_cfg.c **** 	CY_SET_XTND_REG32((void CYFAR *)(CYREG_CLK_SELECT02), 0x00000030u);
 385              		.loc 1 254 0
 386 0150 3024     		mov	r4, #48
 387 0152 3C60     		str	r4, [r7]
 255:.\Generated_Source\PSoC4/cyfitter_cfg.c **** 	CY_SET_XTND_REG32((void CYFAR *)(CYREG_CLK_SELECT03), 0x00000020u);
 388              		.loc 1 255 0
 389 0154 304B     		ldr	r3, .L13+152
 262:.\Generated_Source\PSoC4/cyfitter_cfg.c **** 	CY_SET_XTND_REG32((void CYFAR *)(CYREG_CLK_ILO_CONFIG), 0x80000000u);
 390              		.loc 1 262 0
 391 0156 314F     		ldr	r7, .L13+156
 256:.\Generated_Source\PSoC4/cyfitter_cfg.c **** 	CY_SET_XTND_REG32((void CYFAR *)(CYREG_CLK_SELECT12), 0x00000010u);
 392              		.loc 1 256 0
 393 0158 314A     		ldr	r2, .L13+160
 259:.\Generated_Source\PSoC4/cyfitter_cfg.c **** 	CY_SET_XTND_REG32((void CYFAR *)(CYREG_CLK_IMO_CONFIG), 0x80000000u);
 394              		.loc 1 259 0
 395 015a 8025     		mov	r5, #128
 396 015c 314C     		ldr	r4, .L13+164
 397 015e 2E06     		lsl	r6, r5, #24
 255:.\Generated_Source\PSoC4/cyfitter_cfg.c **** 	CY_SET_XTND_REG32((void CYFAR *)(CYREG_CLK_SELECT03), 0x00000020u);
 398              		.loc 1 255 0
 399 0160 2020     		mov	r0, #32
 256:.\Generated_Source\PSoC4/cyfitter_cfg.c **** 	CY_SET_XTND_REG32((void CYFAR *)(CYREG_CLK_SELECT12), 0x00000010u);
ARM GAS  C:\Users\Milo\AppData\Local\Temp\ccatHGDr.s 			page 21


 400              		.loc 1 256 0
 401 0162 1021     		mov	r1, #16
 255:.\Generated_Source\PSoC4/cyfitter_cfg.c **** 	CY_SET_XTND_REG32((void CYFAR *)(CYREG_CLK_SELECT03), 0x00000020u);
 402              		.loc 1 255 0
 403 0164 1860     		str	r0, [r3]
 271:.\Generated_Source\PSoC4/cyfitter_cfg.c **** 	CY_SET_XTND_REG32((void CYFAR *)(CYREG_CLK_DIVIDER_C00), 0x800000CFu);
 404              		.loc 1 271 0
 405 0166 304D     		ldr	r5, .L13+168
 256:.\Generated_Source\PSoC4/cyfitter_cfg.c **** 	CY_SET_XTND_REG32((void CYFAR *)(CYREG_CLK_SELECT12), 0x00000010u);
 406              		.loc 1 256 0
 407 0168 1160     		str	r1, [r2]
 265:.\Generated_Source\PSoC4/cyfitter_cfg.c **** 	CY_SET_XTND_REG32((void CYFAR *)(CYREG_CLK_DIVIDER_A00), 0x8000000Bu);
 408              		.loc 1 265 0
 409 016a 3048     		ldr	r0, .L13+172
 259:.\Generated_Source\PSoC4/cyfitter_cfg.c **** 	CY_SET_XTND_REG32((void CYFAR *)(CYREG_CLK_IMO_CONFIG), 0x80000000u);
 410              		.loc 1 259 0
 411 016c 2660     		str	r6, [r4]
 265:.\Generated_Source\PSoC4/cyfitter_cfg.c **** 	CY_SET_XTND_REG32((void CYFAR *)(CYREG_CLK_DIVIDER_A00), 0x8000000Bu);
 412              		.loc 1 265 0
 413 016e 304B     		ldr	r3, .L13+176
 262:.\Generated_Source\PSoC4/cyfitter_cfg.c **** 	CY_SET_XTND_REG32((void CYFAR *)(CYREG_CLK_ILO_CONFIG), 0x80000000u);
 414              		.loc 1 262 0
 415 0170 3E60     		str	r6, [r7]
 268:.\Generated_Source\PSoC4/cyfitter_cfg.c **** 	CY_SET_XTND_REG32((void CYFAR *)(CYREG_CLK_DIVIDER_B00), 0x8000001Du);
 416              		.loc 1 268 0
 417 0172 3049     		ldr	r1, .L13+180
 271:.\Generated_Source\PSoC4/cyfitter_cfg.c **** 	CY_SET_XTND_REG32((void CYFAR *)(CYREG_CLK_DIVIDER_C00), 0x800000CFu);
 418              		.loc 1 271 0
 419 0174 304E     		ldr	r6, .L13+184
 268:.\Generated_Source\PSoC4/cyfitter_cfg.c **** 	CY_SET_XTND_REG32((void CYFAR *)(CYREG_CLK_DIVIDER_B00), 0x8000001Du);
 420              		.loc 1 268 0
 421 0176 314A     		ldr	r2, .L13+188
 265:.\Generated_Source\PSoC4/cyfitter_cfg.c **** 	CY_SET_XTND_REG32((void CYFAR *)(CYREG_CLK_DIVIDER_A00), 0x8000000Bu);
 422              		.loc 1 265 0
 423 0178 1860     		str	r0, [r3]
 424              	.LBE42:
 425              	.LBE45:
 663:.\Generated_Source\PSoC4/cyfitter_cfg.c **** 	}
 664:.\Generated_Source\PSoC4/cyfitter_cfg.c **** 
 665:.\Generated_Source\PSoC4/cyfitter_cfg.c **** 	/* Setup clocks based on selections from Clock DWR */
 666:.\Generated_Source\PSoC4/cyfitter_cfg.c **** 	ClockSetup();
 667:.\Generated_Source\PSoC4/cyfitter_cfg.c **** 
 668:.\Generated_Source\PSoC4/cyfitter_cfg.c **** 	/* Perform basic analog initialization to defaults */
 669:.\Generated_Source\PSoC4/cyfitter_cfg.c **** 	AnalogSetDefault();
 670:.\Generated_Source\PSoC4/cyfitter_cfg.c **** 
 671:.\Generated_Source\PSoC4/cyfitter_cfg.c **** }
 426              		.loc 1 671 0
 427              		@ sp needed for prologue
 428              	.LBB46:
 429              	.LBB43:
 268:.\Generated_Source\PSoC4/cyfitter_cfg.c **** 	CY_SET_XTND_REG32((void CYFAR *)(CYREG_CLK_DIVIDER_B00), 0x8000001Du);
 430              		.loc 1 268 0
 431 017a 1160     		str	r1, [r2]
 271:.\Generated_Source\PSoC4/cyfitter_cfg.c **** 	CY_SET_XTND_REG32((void CYFAR *)(CYREG_CLK_DIVIDER_C00), 0x800000CFu);
 432              		.loc 1 271 0
 433 017c 3560     		str	r5, [r6]
 434              	.LBE43:
ARM GAS  C:\Users\Milo\AppData\Local\Temp\ccatHGDr.s 			page 22


 435              	.LBE46:
 436              		.loc 1 671 0
 437 017e F8BD     		pop	{r3, r4, r5, r6, r7, pc}
 438              	.L14:
 439              		.align	2
 440              	.L13:
 441 0180 00000000 		.word	.LANCHOR0
 442 0184 80300F40 		.word	1074737280
 443 0188 80000000 		.word	.LANCHOR1
 444 018c 00600F40 		.word	1074749440
 445 0190 02600F40 		.word	1074749442
 446 0194 00000140 		.word	1073807360
 447 0198 03EE0003 		.word	50392579
 448 019c 0C000140 		.word	1073807372
 449 01a0 10000140 		.word	1073807376
 450 01a4 00000440 		.word	1074003968
 451 01a8 08000440 		.word	1074003976
 452 01ac 08020440 		.word	1074004488
 453 01b0 00030440 		.word	1074004736
 454 01b4 866D1800 		.word	1600902
 455 01b8 08030440 		.word	1074004744
 456 01bc 00040440 		.word	1074004992
 457 01c0 08040440 		.word	1074005000
 458 01c4 18040440 		.word	1074005016
 459 01c8 00500F40 		.word	1074745344
 460 01cc 04009900 		.word	10027012
 461 01d0 20500F40 		.word	1074745376
 462 01d4 24500F40 		.word	1074745380
 463 01d8 30500F40 		.word	1074745392
 464 01dc 38500F40 		.word	1074745400
 465 01e0 00000330 		.word	805502976
 466 01e4 00700F40 		.word	1074753536
 467 01e8 00010B40 		.word	1074462976
 468 01ec CDF1FF0F 		.word	268431821
 469 01f0 CCF1FF0F 		.word	268431820
 470 01f4 C9F1FF0F 		.word	268431817
 471 01f8 BDF1FF0F 		.word	268431805
 472 01fc 2CFF0B40 		.word	1074528044
 473 0200 1CFF0B40 		.word	1074528028
 474 0204 20FF0B40 		.word	1074528032
 475 0208 E5F1FF0F 		.word	268431845
 476 020c 28FF0B40 		.word	1074528040
 477 0210 FFFFFBFF 		.word	-262145
 478 0214 08020240 		.word	1073873416
 479 0218 0C020240 		.word	1073873420
 480 021c 04010B40 		.word	1074462980
 481 0220 30020240 		.word	1073873456
 482 0224 08010B40 		.word	1074462984
 483 0228 CF000080 		.word	-2147483441
 484 022c 0B000080 		.word	-2147483637
 485 0230 00000240 		.word	1073872896
 486 0234 1D000080 		.word	-2147483619
 487 0238 80000240 		.word	1073873024
 488 023c 40000240 		.word	1073872960
 489              		.cfi_endproc
 490              	.LFE7:
 491              		.size	cyfitter_cfg, .-cyfitter_cfg
ARM GAS  C:\Users\Milo\AppData\Local\Temp\ccatHGDr.s 			page 23


 492              		.section	.rodata
 493              		.align	2
 494              		.set	.LANCHOR0,. + 0
 495              		.set	.LANCHOR1,. + 128
 496              		.type	cfg_memset_list.4673, %object
 497              		.size	cfg_memset_list.4673, 18
 498              	cfg_memset_list.4673:
 499 0000 00300F40 		.4byte	1074737152
 500 0004 8000     		.2byte	128
 501 0006 00310F40 		.4byte	1074737408
 502 000a 0003     		.2byte	768
 503 000c 00400F40 		.4byte	1074741248
 504 0010 0004     		.2byte	1024
 505              		.type	BS_UDB_0_1_1_CONFIG_VAL.4674, %object
 506              		.size	BS_UDB_0_1_1_CONFIG_VAL.4674, 128
 507              	BS_UDB_0_1_1_CONFIG_VAL.4674:
 508 0012 04       		.byte	4
 509 0013 40       		.byte	64
 510 0014 00       		.byte	0
 511 0015 00       		.byte	0
 512 0016 07       		.byte	7
 513 0017 40       		.byte	64
 514 0018 38       		.byte	56
 515 0019 00       		.byte	0
 516 001a 60       		.byte	96
 517 001b 00       		.byte	0
 518 001c 00       		.byte	0
 519 001d 40       		.byte	64
 520 001e 56       		.byte	86
 521 001f 40       		.byte	64
 522 0020 09       		.byte	9
 523 0021 00       		.byte	0
 524 0022 01       		.byte	1
 525 0023 40       		.byte	64
 526 0024 00       		.byte	0
 527 0025 00       		.byte	0
 528 0026 00       		.byte	0
 529 0027 03       		.byte	3
 530 0028 04       		.byte	4
 531 0029 3C       		.byte	60
 532 002a 0A       		.byte	10
 533 002b 15       		.byte	21
 534 002c 10       		.byte	16
 535 002d 6A       		.byte	106
 536 002e 04       		.byte	4
 537 002f 00       		.byte	0
 538 0030 00       		.byte	0
 539 0031 00       		.byte	0
 540 0032 04       		.byte	4
 541 0033 79       		.byte	121
 542 0034 00       		.byte	0
 543 0035 06       		.byte	6
 544 0036 04       		.byte	4
 545 0037 00       		.byte	0
 546 0038 00       		.byte	0
 547 0039 00       		.byte	0
 548 003a 04       		.byte	4
ARM GAS  C:\Users\Milo\AppData\Local\Temp\ccatHGDr.s 			page 24


 549 003b 10       		.byte	16
 550 003c 00       		.byte	0
 551 003d 60       		.byte	96
 552 003e 00       		.byte	0
 553 003f 02       		.byte	2
 554 0040 00       		.byte	0
 555 0041 0D       		.byte	13
 556 0042 7F       		.byte	127
 557 0043 00       		.byte	0
 558 0044 00       		.byte	0
 559 0045 00       		.byte	0
 560 0046 00       		.byte	0
 561 0047 70       		.byte	112
 562 0048 00       		.byte	0
 563 0049 0F       		.byte	15
 564 004a 02       		.byte	2
 565 004b 00       		.byte	0
 566 004c 00       		.byte	0
 567 004d A0       		.byte	-96
 568 004e 00       		.byte	0
 569 004f 00       		.byte	0
 570 0050 00       		.byte	0
 571 0051 00       		.byte	0
 572 0052 35       		.byte	53
 573 0053 01       		.byte	1
 574 0054 40       		.byte	64
 575 0055 00       		.byte	0
 576 0056 02       		.byte	2
 577 0057 0E       		.byte	14
 578 0058 FD       		.byte	-3
 579 0059 CB       		.byte	-53
 580 005a 3D       		.byte	61
 581 005b FF       		.byte	-1
 582 005c FF       		.byte	-1
 583 005d FF       		.byte	-1
 584 005e 22       		.byte	34
 585 005f 00       		.byte	0
 586 0060 F0       		.byte	-16
 587 0061 08       		.byte	8
 588 0062 04       		.byte	4
 589 0063 00       		.byte	0
 590 0064 00       		.byte	0
 591 0065 00       		.byte	0
 592 0066 00       		.byte	0
 593 0067 00       		.byte	0
 594 0068 02       		.byte	2
 595 0069 20       		.byte	32
 596 006a 04       		.byte	4
 597 006b 04       		.byte	4
 598 006c 04       		.byte	4
 599 006d 04       		.byte	4
 600 006e 00       		.byte	0
 601 006f 00       		.byte	0
 602 0070 00       		.byte	0
 603 0071 01       		.byte	1
 604 0072 00       		.byte	0
 605 0073 00       		.byte	0
ARM GAS  C:\Users\Milo\AppData\Local\Temp\ccatHGDr.s 			page 25


 606 0074 C0       		.byte	-64
 607 0075 00       		.byte	0
 608 0076 40       		.byte	64
 609 0077 01       		.byte	1
 610 0078 10       		.byte	16
 611 0079 11       		.byte	17
 612 007a C0       		.byte	-64
 613 007b 01       		.byte	1
 614 007c 00       		.byte	0
 615 007d 11       		.byte	17
 616 007e 40       		.byte	64
 617 007f 01       		.byte	1
 618 0080 40       		.byte	64
 619 0081 01       		.byte	1
 620 0082 00       		.byte	0
 621 0083 00       		.byte	0
 622 0084 00       		.byte	0
 623 0085 00       		.byte	0
 624 0086 00       		.byte	0
 625 0087 00       		.byte	0
 626 0088 00       		.byte	0
 627 0089 00       		.byte	0
 628 008a 00       		.byte	0
 629 008b 00       		.byte	0
 630 008c 00       		.byte	0
 631 008d 00       		.byte	0
 632 008e 00       		.byte	0
 633 008f 00       		.byte	0
 634 0090 00       		.byte	0
 635 0091 00       		.byte	0
 636 0092 0000     		.space	2
 637              		.type	cy_cfg_addr_table.4662, %object
 638              		.size	cy_cfg_addr_table.4662, 32
 639              	cy_cfg_addr_table.4662:
 640 0094 01000F40 		.word	1074724865
 641 0098 10300F40 		.word	1074737168
 642 009c 36310F40 		.word	1074737462
 643 00a0 48320F40 		.word	1074737736
 644 00a4 44330F40 		.word	1074737988
 645 00a8 02420F40 		.word	1074741762
 646 00ac 0A430F40 		.word	1074742026
 647 00b0 02600F40 		.word	1074749442
 648              		.type	cy_cfg_data_table.4663, %object
 649              		.size	cy_cfg_data_table.4663, 450
 650              	cy_cfg_data_table.4663:
 651 00b4 81       		.byte	-127
 652 00b5 0F       		.byte	15
 653 00b6 00       		.byte	0
 654 00b7 01       		.byte	1
 655 00b8 02       		.byte	2
 656 00b9 02       		.byte	2
 657 00ba 10       		.byte	16
 658 00bb 04       		.byte	4
 659 00bc 17       		.byte	23
 660 00bd 01       		.byte	1
 661 00be 18       		.byte	24
 662 00bf 06       		.byte	6
ARM GAS  C:\Users\Milo\AppData\Local\Temp\ccatHGDr.s 			page 26


 663 00c0 19       		.byte	25
 664 00c1 01       		.byte	1
 665 00c2 1A       		.byte	26
 666 00c3 01       		.byte	1
 667 00c4 23       		.byte	35
 668 00c5 01       		.byte	1
 669 00c6 2C       		.byte	44
 670 00c7 04       		.byte	4
 671 00c8 30       		.byte	48
 672 00c9 07       		.byte	7
 673 00ca 37       		.byte	55
 674 00cb 01       		.byte	1
 675 00cc 3A       		.byte	58
 676 00cd 02       		.byte	2
 677 00ce 3F       		.byte	63
 678 00cf 40       		.byte	64
 679 00d0 58       		.byte	88
 680 00d1 04       		.byte	4
 681 00d2 59       		.byte	89
 682 00d3 04       		.byte	4
 683 00d4 5F       		.byte	95
 684 00d5 01       		.byte	1
 685 00d6 03       		.byte	3
 686 00d7 40       		.byte	64
 687 00d8 04       		.byte	4
 688 00d9 80       		.byte	-128
 689 00da 05       		.byte	5
 690 00db 04       		.byte	4
 691 00dc 06       		.byte	6
 692 00dd 84       		.byte	-124
 693 00de 08       		.byte	8
 694 00df 10       		.byte	16
 695 00e0 0A       		.byte	10
 696 00e1 40       		.byte	64
 697 00e2 0C       		.byte	12
 698 00e3 10       		.byte	16
 699 00e4 0E       		.byte	14
 700 00e5 92       		.byte	-110
 701 00e6 10       		.byte	16
 702 00e7 02       		.byte	2
 703 00e8 16       		.byte	22
 704 00e9 20       		.byte	32
 705 00ea 17       		.byte	23
 706 00eb 19       		.byte	25
 707 00ec 18       		.byte	24
 708 00ed 80       		.byte	-128
 709 00ee 19       		.byte	25
 710 00ef 02       		.byte	2
 711 00f0 1A       		.byte	26
 712 00f1 40       		.byte	64
 713 00f2 1B       		.byte	27
 714 00f3 01       		.byte	1
 715 00f4 1E       		.byte	30
 716 00f5 80       		.byte	-128
 717 00f6 22       		.byte	34
 718 00f7 40       		.byte	64
 719 00f8 26       		.byte	38
ARM GAS  C:\Users\Milo\AppData\Local\Temp\ccatHGDr.s 			page 27


 720 00f9 80       		.byte	-128
 721 00fa 27       		.byte	39
 722 00fb 08       		.byte	8
 723 00fc 29       		.byte	41
 724 00fd 02       		.byte	2
 725 00fe 2B       		.byte	43
 726 00ff 40       		.byte	64
 727 0100 2D       		.byte	45
 728 0101 02       		.byte	2
 729 0102 2E       		.byte	46
 730 0103 20       		.byte	32
 731 0104 2F       		.byte	47
 732 0105 01       		.byte	1
 733 0106 30       		.byte	48
 734 0107 10       		.byte	16
 735 0108 31       		.byte	49
 736 0109 14       		.byte	20
 737 010a 35       		.byte	53
 738 010b 14       		.byte	20
 739 010c 37       		.byte	55
 740 010d 01       		.byte	1
 741 010e 3C       		.byte	60
 742 010f 80       		.byte	-128
 743 0110 3D       		.byte	61
 744 0111 01       		.byte	1
 745 0112 3E       		.byte	62
 746 0113 14       		.byte	20
 747 0114 44       		.byte	68
 748 0115 98       		.byte	-104
 749 0116 47       		.byte	71
 750 0117 40       		.byte	64
 751 0118 4D       		.byte	77
 752 0119 08       		.byte	8
 753 011a 4F       		.byte	79
 754 011b 80       		.byte	-128
 755 011c 54       		.byte	84
 756 011d 82       		.byte	-126
 757 011e 56       		.byte	86
 758 011f 54       		.byte	84
 759 0120 62       		.byte	98
 760 0121 80       		.byte	-128
 761 0122 63       		.byte	99
 762 0123 01       		.byte	1
 763 0124 67       		.byte	103
 764 0125 03       		.byte	3
 765 0126 6C       		.byte	108
 766 0127 20       		.byte	32
 767 0128 6D       		.byte	109
 768 0129 41       		.byte	65
 769 012a 6E       		.byte	110
 770 012b 16       		.byte	22
 771 012c 6F       		.byte	111
 772 012d 11       		.byte	17
 773 012e 74       		.byte	116
 774 012f 40       		.byte	64
 775 0130 C0       		.byte	-64
 776 0131 F8       		.byte	-8
ARM GAS  C:\Users\Milo\AppData\Local\Temp\ccatHGDr.s 			page 28


 777 0132 C2       		.byte	-62
 778 0133 FA       		.byte	-6
 779 0134 C4       		.byte	-60
 780 0135 71       		.byte	113
 781 0136 CA       		.byte	-54
 782 0137 B1       		.byte	-79
 783 0138 CC       		.byte	-52
 784 0139 E6       		.byte	-26
 785 013a CE       		.byte	-50
 786 013b F0       		.byte	-16
 787 013c D0       		.byte	-48
 788 013d F0       		.byte	-16
 789 013e D2       		.byte	-46
 790 013f 10       		.byte	16
 791 0140 D8       		.byte	-40
 792 0141 10       		.byte	16
 793 0142 00       		.byte	0
 794 0143 1A       		.byte	26
 795 0144 01       		.byte	1
 796 0145 02       		.byte	2
 797 0146 03       		.byte	3
 798 0147 08       		.byte	8
 799 0148 04       		.byte	4
 800 0149 13       		.byte	19
 801 014a 05       		.byte	5
 802 014b 1D       		.byte	29
 803 014c 06       		.byte	6
 804 014d 04       		.byte	4
 805 014e 08       		.byte	8
 806 014f 01       		.byte	1
 807 0150 09       		.byte	9
 808 0151 1D       		.byte	29
 809 0152 0A       		.byte	10
 810 0153 18       		.byte	24
 811 0154 0C       		.byte	12
 812 0155 18       		.byte	24
 813 0156 0D       		.byte	13
 814 0157 1D       		.byte	29
 815 0158 0E       		.byte	14
 816 0159 02       		.byte	2
 817 015a 10       		.byte	16
 818 015b 02       		.byte	2
 819 015c 11       		.byte	17
 820 015d 0D       		.byte	13
 821 015e 13       		.byte	19
 822 015f 10       		.byte	16
 823 0160 14       		.byte	20
 824 0161 02       		.byte	2
 825 0162 16       		.byte	22
 826 0163 18       		.byte	24
 827 0164 19       		.byte	25
 828 0165 02       		.byte	2
 829 0166 1B       		.byte	27
 830 0167 04       		.byte	4
 831 0168 1C       		.byte	28
 832 0169 1C       		.byte	28
 833 016a 1D       		.byte	29
ARM GAS  C:\Users\Milo\AppData\Local\Temp\ccatHGDr.s 			page 29


 834 016b 02       		.byte	2
 835 016c 1E       		.byte	30
 836 016d 03       		.byte	3
 837 016e 1F       		.byte	31
 838 016f 0D       		.byte	13
 839 0170 20       		.byte	32
 840 0171 1A       		.byte	26
 841 0172 23       		.byte	35
 842 0173 10       		.byte	16
 843 0174 24       		.byte	36
 844 0175 18       		.byte	24
 845 0176 28       		.byte	40
 846 0177 18       		.byte	24
 847 0178 29       		.byte	41
 848 0179 01       		.byte	1
 849 017a 2A       		.byte	42
 850 017b 02       		.byte	2
 851 017c 2B       		.byte	43
 852 017d 02       		.byte	2
 853 017e 2D       		.byte	45
 854 017f 1D       		.byte	29
 855 0180 31       		.byte	49
 856 0181 0F       		.byte	15
 857 0182 32       		.byte	50
 858 0183 13       		.byte	19
 859 0184 34       		.byte	52
 860 0185 0F       		.byte	15
 861 0186 35       		.byte	53
 862 0187 10       		.byte	16
 863 0188 3A       		.byte	58
 864 0189 20       		.byte	32
 865 018a 3B       		.byte	59
 866 018b 02       		.byte	2
 867 018c 3F       		.byte	63
 868 018d 10       		.byte	16
 869 018e 54       		.byte	84
 870 018f 40       		.byte	64
 871 0190 58       		.byte	88
 872 0191 04       		.byte	4
 873 0192 59       		.byte	89
 874 0193 04       		.byte	4
 875 0194 5B       		.byte	91
 876 0195 04       		.byte	4
 877 0196 5F       		.byte	95
 878 0197 01       		.byte	1
 879 0198 80       		.byte	-128
 880 0199 08       		.byte	8
 881 019a 82       		.byte	-126
 882 019b 06       		.byte	6
 883 019c 84       		.byte	-124
 884 019d 08       		.byte	8
 885 019e 86       		.byte	-122
 886 019f 06       		.byte	6
 887 01a0 8A       		.byte	-118
 888 01a1 04       		.byte	4
 889 01a2 8E       		.byte	-114
 890 01a3 01       		.byte	1
ARM GAS  C:\Users\Milo\AppData\Local\Temp\ccatHGDr.s 			page 30


 891 01a4 90       		.byte	-112
 892 01a5 01       		.byte	1
 893 01a6 91       		.byte	-111
 894 01a7 0E       		.byte	14
 895 01a8 94       		.byte	-108
 896 01a9 01       		.byte	1
 897 01aa 95       		.byte	-107
 898 01ab 03       		.byte	3
 899 01ac 97       		.byte	-105
 900 01ad 04       		.byte	4
 901 01ae 98       		.byte	-104
 902 01af 0A       		.byte	10
 903 01b0 99       		.byte	-103
 904 01b1 05       		.byte	5
 905 01b2 9B       		.byte	-101
 906 01b3 0A       		.byte	10
 907 01b4 A0       		.byte	-96
 908 01b5 01       		.byte	1
 909 01b6 A4       		.byte	-92
 910 01b7 01       		.byte	1
 911 01b8 AD       		.byte	-83
 912 01b9 04       		.byte	4
 913 01ba AF       		.byte	-81
 914 01bb 09       		.byte	9
 915 01bc B0       		.byte	-80
 916 01bd 01       		.byte	1
 917 01be B1       		.byte	-79
 918 01bf 0F       		.byte	15
 919 01c0 B2       		.byte	-78
 920 01c1 06       		.byte	6
 921 01c2 B6       		.byte	-74
 922 01c3 08       		.byte	8
 923 01c4 B9       		.byte	-71
 924 01c5 02       		.byte	2
 925 01c6 BE       		.byte	-66
 926 01c7 41       		.byte	65
 927 01c8 D4       		.byte	-44
 928 01c9 09       		.byte	9
 929 01ca D8       		.byte	-40
 930 01cb 04       		.byte	4
 931 01cc D9       		.byte	-39
 932 01cd 04       		.byte	4
 933 01ce DB       		.byte	-37
 934 01cf 04       		.byte	4
 935 01d0 DF       		.byte	-33
 936 01d1 01       		.byte	1
 937 01d2 00       		.byte	0
 938 01d3 08       		.byte	8
 939 01d4 01       		.byte	1
 940 01d5 42       		.byte	66
 941 01d6 03       		.byte	3
 942 01d7 09       		.byte	9
 943 01d8 05       		.byte	5
 944 01d9 14       		.byte	20
 945 01da 06       		.byte	6
 946 01db 80       		.byte	-128
 947 01dc 07       		.byte	7
ARM GAS  C:\Users\Milo\AppData\Local\Temp\ccatHGDr.s 			page 31


 948 01dd 01       		.byte	1
 949 01de 0A       		.byte	10
 950 01df 50       		.byte	80
 951 01e0 0B       		.byte	11
 952 01e1 08       		.byte	8
 953 01e2 0C       		.byte	12
 954 01e3 02       		.byte	2
 955 01e4 0D       		.byte	13
 956 01e5 01       		.byte	1
 957 01e6 0E       		.byte	14
 958 01e7 10       		.byte	16
 959 01e8 0F       		.byte	15
 960 01e9 02       		.byte	2
 961 01ea 10       		.byte	16
 962 01eb 20       		.byte	32
 963 01ec 11       		.byte	17
 964 01ed 01       		.byte	1
 965 01ee 15       		.byte	21
 966 01ef 01       		.byte	1
 967 01f0 17       		.byte	23
 968 01f1 18       		.byte	24
 969 01f2 18       		.byte	24
 970 01f3 40       		.byte	64
 971 01f4 19       		.byte	25
 972 01f5 41       		.byte	65
 973 01f6 1B       		.byte	27
 974 01f7 08       		.byte	8
 975 01f8 1C       		.byte	28
 976 01f9 08       		.byte	8
 977 01fa 1D       		.byte	29
 978 01fb 14       		.byte	20
 979 01fc 1F       		.byte	31
 980 01fd 04       		.byte	4
 981 01fe 21       		.byte	33
 982 01ff 02       		.byte	2
 983 0200 25       		.byte	37
 984 0201 20       		.byte	32
 985 0202 27       		.byte	39
 986 0203 40       		.byte	64
 987 0204 2B       		.byte	43
 988 0205 01       		.byte	1
 989 0206 2C       		.byte	44
 990 0207 80       		.byte	-128
 991 0208 2F       		.byte	47
 992 0209 05       		.byte	5
 993 020a 31       		.byte	49
 994 020b 16       		.byte	22
 995 020c 35       		.byte	53
 996 020d 10       		.byte	16
 997 020e 37       		.byte	55
 998 020f 41       		.byte	65
 999 0210 39       		.byte	57
 1000 0211 01       		.byte	1
 1001 0212 3B       		.byte	59
 1002 0213 02       		.byte	2
 1003 0214 3C       		.byte	60
 1004 0215 80       		.byte	-128
ARM GAS  C:\Users\Milo\AppData\Local\Temp\ccatHGDr.s 			page 32


 1005 0216 3E       		.byte	62
 1006 0217 D4       		.byte	-44
 1007 0218 3F       		.byte	63
 1008 0219 02       		.byte	2
 1009 021a 40       		.byte	64
 1010 021b C0       		.byte	-64
 1011 021c 45       		.byte	69
 1012 021d 20       		.byte	32
 1013 021e 46       		.byte	70
 1014 021f 08       		.byte	8
 1015 0220 59       		.byte	89
 1016 0221 29       		.byte	41
 1017 0222 5A       		.byte	90
 1018 0223 80       		.byte	-128
 1019 0224 61       		.byte	97
 1020 0225 40       		.byte	64
 1021 0226 66       		.byte	102
 1022 0227 58       		.byte	88
 1023 0228 85       		.byte	-123
 1024 0229 21       		.byte	33
 1025 022a 8B       		.byte	-117
 1026 022b 08       		.byte	8
 1027 022c 91       		.byte	-111
 1028 022d 41       		.byte	65
 1029 022e 92       		.byte	-110
 1030 022f 94       		.byte	-108
 1031 0230 99       		.byte	-103
 1032 0231 0A       		.byte	10
 1033 0232 9A       		.byte	-102
 1034 0233 50       		.byte	80
 1035 0234 9B       		.byte	-101
 1036 0235 18       		.byte	24
 1037 0236 9C       		.byte	-100
 1038 0237 80       		.byte	-128
 1039 0238 9D       		.byte	-99
 1040 0239 14       		.byte	20
 1041 023a 9E       		.byte	-98
 1042 023b 80       		.byte	-128
 1043 023c A0       		.byte	-96
 1044 023d E2       		.byte	-30
 1045 023e A3       		.byte	-93
 1046 023f 01       		.byte	1
 1047 0240 AE       		.byte	-82
 1048 0241 40       		.byte	64
 1049 0242 B4       		.byte	-76
 1050 0243 08       		.byte	8
 1051 0244 B5       		.byte	-75
 1052 0245 04       		.byte	4
 1053 0246 B7       		.byte	-73
 1054 0247 40       		.byte	64
 1055 0248 C0       		.byte	-64
 1056 0249 FF       		.byte	-1
 1057 024a C2       		.byte	-62
 1058 024b BE       		.byte	-66
 1059 024c C4       		.byte	-60
 1060 024d 7C       		.byte	124
 1061 024e CA       		.byte	-54
ARM GAS  C:\Users\Milo\AppData\Local\Temp\ccatHGDr.s 			page 33


 1062 024f B8       		.byte	-72
 1063 0250 CC       		.byte	-52
 1064 0251 B7       		.byte	-73
 1065 0252 CE       		.byte	-50
 1066 0253 F0       		.byte	-16
 1067 0254 D6       		.byte	-42
 1068 0255 0F       		.byte	15
 1069 0256 D8       		.byte	-40
 1070 0257 78       		.byte	120
 1071 0258 EC       		.byte	-20
 1072 0259 02       		.byte	2
 1073 025a 08       		.byte	8
 1074 025b 20       		.byte	32
 1075 025c C2       		.byte	-62
 1076 025d 02       		.byte	2
 1077 025e 5E       		.byte	94
 1078 025f 80       		.byte	-128
 1079 0260 64       		.byte	100
 1080 0261 10       		.byte	16
 1081 0262 8A       		.byte	-118
 1082 0263 40       		.byte	64
 1083 0264 98       		.byte	-104
 1084 0265 10       		.byte	16
 1085 0266 AC       		.byte	-84
 1086 0267 10       		.byte	16
 1087 0268 B4       		.byte	-76
 1088 0269 20       		.byte	32
 1089 026a D6       		.byte	-42
 1090 026b 04       		.byte	4
 1091 026c D8       		.byte	-40
 1092 026d 01       		.byte	1
 1093 026e E0       		.byte	-32
 1094 026f 04       		.byte	4
 1095 0270 EA       		.byte	-22
 1096 0271 02       		.byte	2
 1097 0272 10       		.byte	16
 1098 0273 01       		.byte	1
 1099 0274 11       		.byte	17
 1100 0275 01       		.byte	1
 1101 0276 0000     		.text
 1102              	.Letext0:
 1103              		.file 2 "c:\\program files (x86)\\cypress\\psoc creator\\3.0\\psoc creator\\import\\gnu_cs\\arm\\4
 1104              		.file 3 "./Generated_Source/PSoC4/cytypes.h"
 1105              		.file 4 "./Generated_Source/PSoC4/CyLib.h"