ARM GAS  C:\Users\Milo\AppData\Local\Temp\ccfBxLki.s 			page 1


   1              		.cpu cortex-m0
   2              		.fpu softvfp
   3              		.eabi_attribute 20, 1
   4              		.eabi_attribute 21, 1
   5              		.eabi_attribute 23, 3
   6              		.eabi_attribute 24, 1
   7              		.eabi_attribute 25, 1
   8              		.eabi_attribute 26, 1
   9              		.eabi_attribute 30, 4
  10              		.eabi_attribute 34, 0
  11              		.eabi_attribute 18, 4
  12              		.code	16
  13              		.file	"I2C_1_I2C_MASTER.c"
  14              		.text
  15              	.Ltext0:
  16              		.cfi_sections	.debug_frame
  17              		.section	.text.I2C_1_I2CMasterSendStart,"ax",%progbits
  18              		.align	1
  19              		.global	I2C_1_I2CMasterSendStart
  20              		.code	16
  21              		.thumb_func
  22              		.type	I2C_1_I2CMasterSendStart, %function
  23              	I2C_1_I2CMasterSendStart:
  24              	.LFB2:
  25              		.file 1 ".\\Generated_Source\\PSoC4\\I2C_1_I2C_MASTER.c"
   1:.\Generated_Source\PSoC4/I2C_1_I2C_MASTER.c **** /*******************************************************************************
   2:.\Generated_Source\PSoC4/I2C_1_I2C_MASTER.c **** * File Name: I2C_1_I2C_MASTER.c
   3:.\Generated_Source\PSoC4/I2C_1_I2C_MASTER.c **** * Version 1.20
   4:.\Generated_Source\PSoC4/I2C_1_I2C_MASTER.c **** *
   5:.\Generated_Source\PSoC4/I2C_1_I2C_MASTER.c **** * Description:
   6:.\Generated_Source\PSoC4/I2C_1_I2C_MASTER.c **** *  This file provides the source code to the API for the SCB Component in
   7:.\Generated_Source\PSoC4/I2C_1_I2C_MASTER.c **** *  I2C Master mode.
   8:.\Generated_Source\PSoC4/I2C_1_I2C_MASTER.c **** *
   9:.\Generated_Source\PSoC4/I2C_1_I2C_MASTER.c **** * Note:
  10:.\Generated_Source\PSoC4/I2C_1_I2C_MASTER.c **** *
  11:.\Generated_Source\PSoC4/I2C_1_I2C_MASTER.c **** *******************************************************************************
  12:.\Generated_Source\PSoC4/I2C_1_I2C_MASTER.c **** * Copyright 2013-2014, Cypress Semiconductor Corporation.  All rights reserved.
  13:.\Generated_Source\PSoC4/I2C_1_I2C_MASTER.c **** * You may use this file only in accordance with the license, terms, conditions,
  14:.\Generated_Source\PSoC4/I2C_1_I2C_MASTER.c **** * disclaimers, and limitations in the end user license agreement accompanying
  15:.\Generated_Source\PSoC4/I2C_1_I2C_MASTER.c **** * the software package with which this file was provided.
  16:.\Generated_Source\PSoC4/I2C_1_I2C_MASTER.c **** *******************************************************************************/
  17:.\Generated_Source\PSoC4/I2C_1_I2C_MASTER.c **** 
  18:.\Generated_Source\PSoC4/I2C_1_I2C_MASTER.c **** #include "I2C_1_PVT.h"
  19:.\Generated_Source\PSoC4/I2C_1_I2C_MASTER.c **** #include "I2C_1_I2C_PVT.h"
  20:.\Generated_Source\PSoC4/I2C_1_I2C_MASTER.c **** 
  21:.\Generated_Source\PSoC4/I2C_1_I2C_MASTER.c **** #if(I2C_1_I2C_MASTER_CONST)
  22:.\Generated_Source\PSoC4/I2C_1_I2C_MASTER.c **** 
  23:.\Generated_Source\PSoC4/I2C_1_I2C_MASTER.c **** /***************************************
  24:.\Generated_Source\PSoC4/I2C_1_I2C_MASTER.c **** *      I2C Master Private Vars
  25:.\Generated_Source\PSoC4/I2C_1_I2C_MASTER.c **** ***************************************/
  26:.\Generated_Source\PSoC4/I2C_1_I2C_MASTER.c **** 
  27:.\Generated_Source\PSoC4/I2C_1_I2C_MASTER.c **** /* Master variables */
  28:.\Generated_Source\PSoC4/I2C_1_I2C_MASTER.c **** volatile uint16 I2C_1_mstrStatus;      /* Master Status byte  */
  29:.\Generated_Source\PSoC4/I2C_1_I2C_MASTER.c **** volatile uint8  I2C_1_mstrControl;     /* Master Control byte */
  30:.\Generated_Source\PSoC4/I2C_1_I2C_MASTER.c **** 
  31:.\Generated_Source\PSoC4/I2C_1_I2C_MASTER.c **** /* Receive buffer variables */
  32:.\Generated_Source\PSoC4/I2C_1_I2C_MASTER.c **** volatile uint8 * I2C_1_mstrRdBufPtr;   /* Pointer to Master Read buffer */
ARM GAS  C:\Users\Milo\AppData\Local\Temp\ccfBxLki.s 			page 2


  33:.\Generated_Source\PSoC4/I2C_1_I2C_MASTER.c **** volatile uint32  I2C_1_mstrRdBufSize;  /* Master Read buffer size       */
  34:.\Generated_Source\PSoC4/I2C_1_I2C_MASTER.c **** volatile uint32  I2C_1_mstrRdBufIndex; /* Master Read buffer Index      */
  35:.\Generated_Source\PSoC4/I2C_1_I2C_MASTER.c **** 
  36:.\Generated_Source\PSoC4/I2C_1_I2C_MASTER.c **** /* Transmit buffer variables */
  37:.\Generated_Source\PSoC4/I2C_1_I2C_MASTER.c **** volatile uint8 * I2C_1_mstrWrBufPtr;   /* Pointer to Master Write buffer */
  38:.\Generated_Source\PSoC4/I2C_1_I2C_MASTER.c **** volatile uint32  I2C_1_mstrWrBufSize;  /* Master Write buffer size       */
  39:.\Generated_Source\PSoC4/I2C_1_I2C_MASTER.c **** volatile uint32  I2C_1_mstrWrBufIndex; /* Master Write buffer Index      */
  40:.\Generated_Source\PSoC4/I2C_1_I2C_MASTER.c **** volatile uint32  I2C_1_mstrWrBufIndexTmp; /* Master Write buffer Index Tmp */
  41:.\Generated_Source\PSoC4/I2C_1_I2C_MASTER.c **** 
  42:.\Generated_Source\PSoC4/I2C_1_I2C_MASTER.c **** 
  43:.\Generated_Source\PSoC4/I2C_1_I2C_MASTER.c **** /*******************************************************************************
  44:.\Generated_Source\PSoC4/I2C_1_I2C_MASTER.c **** * Function Name: I2C_1_I2CMasterWriteBuf
  45:.\Generated_Source\PSoC4/I2C_1_I2C_MASTER.c **** ********************************************************************************
  46:.\Generated_Source\PSoC4/I2C_1_I2C_MASTER.c **** *
  47:.\Generated_Source\PSoC4/I2C_1_I2C_MASTER.c **** * Summary:
  48:.\Generated_Source\PSoC4/I2C_1_I2C_MASTER.c **** * Automatically writes an entire buffer of data to a slave device.
  49:.\Generated_Source\PSoC4/I2C_1_I2C_MASTER.c **** * Once the data transfer is initiated by this function, further data transfer
  50:.\Generated_Source\PSoC4/I2C_1_I2C_MASTER.c **** * is handled by the included ISR.
  51:.\Generated_Source\PSoC4/I2C_1_I2C_MASTER.c **** * Enables the I2C interrupt and clears SCB_ I2C_MSTAT_WR_CMPLT status.
  52:.\Generated_Source\PSoC4/I2C_1_I2C_MASTER.c **** *
  53:.\Generated_Source\PSoC4/I2C_1_I2C_MASTER.c **** * Parameters:
  54:.\Generated_Source\PSoC4/I2C_1_I2C_MASTER.c **** *  slaveAddr: 7-bit slave address.
  55:.\Generated_Source\PSoC4/I2C_1_I2C_MASTER.c **** *  xferData:  Pointer to buffer of data to be sent.
  56:.\Generated_Source\PSoC4/I2C_1_I2C_MASTER.c **** *  cnt:       Size of buffer to send.
  57:.\Generated_Source\PSoC4/I2C_1_I2C_MASTER.c **** *  mode:      Transfer mode defines: start or restart condition generation at
  58:.\Generated_Source\PSoC4/I2C_1_I2C_MASTER.c **** *             begin of the transfer and complete the transfer or halt before
  59:.\Generated_Source\PSoC4/I2C_1_I2C_MASTER.c **** *             generating a stop.
  60:.\Generated_Source\PSoC4/I2C_1_I2C_MASTER.c **** *
  61:.\Generated_Source\PSoC4/I2C_1_I2C_MASTER.c **** * Return:
  62:.\Generated_Source\PSoC4/I2C_1_I2C_MASTER.c **** *  Error status.
  63:.\Generated_Source\PSoC4/I2C_1_I2C_MASTER.c **** *
  64:.\Generated_Source\PSoC4/I2C_1_I2C_MASTER.c **** * Global variables:
  65:.\Generated_Source\PSoC4/I2C_1_I2C_MASTER.c **** *  I2C_1_mstrStatus  - used to store current status of I2C Master.
  66:.\Generated_Source\PSoC4/I2C_1_I2C_MASTER.c **** *  I2C_1_state       - used to store current state of software FSM.
  67:.\Generated_Source\PSoC4/I2C_1_I2C_MASTER.c **** *  I2C_1_mstrControl - used to control master end of transaction with
  68:.\Generated_Source\PSoC4/I2C_1_I2C_MASTER.c **** *  or without the Stop generation.
  69:.\Generated_Source\PSoC4/I2C_1_I2C_MASTER.c **** *  I2C_1_mstrWrBufPtr - used to store pointer to master write buffer.
  70:.\Generated_Source\PSoC4/I2C_1_I2C_MASTER.c **** *  I2C_1_mstrWrBufIndex - used to current index within master write
  71:.\Generated_Source\PSoC4/I2C_1_I2C_MASTER.c **** *  buffer.
  72:.\Generated_Source\PSoC4/I2C_1_I2C_MASTER.c **** *  I2C_1_mstrWrBufSize - used to store master write buffer size.
  73:.\Generated_Source\PSoC4/I2C_1_I2C_MASTER.c **** *
  74:.\Generated_Source\PSoC4/I2C_1_I2C_MASTER.c **** *******************************************************************************/
  75:.\Generated_Source\PSoC4/I2C_1_I2C_MASTER.c **** uint32 I2C_1_I2CMasterWriteBuf(uint32 slaveAddress, uint8 * wrData, uint32 cnt, uint32 mode)
  76:.\Generated_Source\PSoC4/I2C_1_I2C_MASTER.c **** {
  77:.\Generated_Source\PSoC4/I2C_1_I2C_MASTER.c ****     uint32 errStatus;
  78:.\Generated_Source\PSoC4/I2C_1_I2C_MASTER.c **** 
  79:.\Generated_Source\PSoC4/I2C_1_I2C_MASTER.c ****     errStatus = I2C_1_I2C_MSTR_NOT_READY;
  80:.\Generated_Source\PSoC4/I2C_1_I2C_MASTER.c **** 
  81:.\Generated_Source\PSoC4/I2C_1_I2C_MASTER.c ****     if(NULL != wrData)  /* Check buffer pointer */
  82:.\Generated_Source\PSoC4/I2C_1_I2C_MASTER.c ****     {
  83:.\Generated_Source\PSoC4/I2C_1_I2C_MASTER.c ****         /* Check FSM state and bus before generating Start/ReStart condition */
  84:.\Generated_Source\PSoC4/I2C_1_I2C_MASTER.c ****         if(I2C_1_CHECK_I2C_FSM_IDLE)
  85:.\Generated_Source\PSoC4/I2C_1_I2C_MASTER.c ****         {
  86:.\Generated_Source\PSoC4/I2C_1_I2C_MASTER.c ****             I2C_1_DisableInt();
  87:.\Generated_Source\PSoC4/I2C_1_I2C_MASTER.c **** 
  88:.\Generated_Source\PSoC4/I2C_1_I2C_MASTER.c ****             /* Check bus state */
  89:.\Generated_Source\PSoC4/I2C_1_I2C_MASTER.c ****             errStatus = I2C_1_CHECK_I2C_STATUS(I2C_1_I2C_STATUS_BUS_BUSY) ?
ARM GAS  C:\Users\Milo\AppData\Local\Temp\ccfBxLki.s 			page 3


  90:.\Generated_Source\PSoC4/I2C_1_I2C_MASTER.c ****                             I2C_1_I2C_MSTR_BUS_BUSY : I2C_1_I2C_MSTR_NO_ERROR;
  91:.\Generated_Source\PSoC4/I2C_1_I2C_MASTER.c ****         }
  92:.\Generated_Source\PSoC4/I2C_1_I2C_MASTER.c ****         else if(I2C_1_CHECK_I2C_FSM_HALT)
  93:.\Generated_Source\PSoC4/I2C_1_I2C_MASTER.c ****         {
  94:.\Generated_Source\PSoC4/I2C_1_I2C_MASTER.c ****             I2C_1_mstrStatus &= (uint16) ~I2C_1_I2C_MSTAT_XFER_HALT;
  95:.\Generated_Source\PSoC4/I2C_1_I2C_MASTER.c ****                               errStatus  = I2C_1_I2C_MSTR_NO_ERROR;
  96:.\Generated_Source\PSoC4/I2C_1_I2C_MASTER.c ****         }
  97:.\Generated_Source\PSoC4/I2C_1_I2C_MASTER.c ****         else
  98:.\Generated_Source\PSoC4/I2C_1_I2C_MASTER.c ****         {
  99:.\Generated_Source\PSoC4/I2C_1_I2C_MASTER.c ****             /* Unexpected FSM state: exit */
 100:.\Generated_Source\PSoC4/I2C_1_I2C_MASTER.c ****         }
 101:.\Generated_Source\PSoC4/I2C_1_I2C_MASTER.c ****     }
 102:.\Generated_Source\PSoC4/I2C_1_I2C_MASTER.c **** 
 103:.\Generated_Source\PSoC4/I2C_1_I2C_MASTER.c **** 
 104:.\Generated_Source\PSoC4/I2C_1_I2C_MASTER.c ****     /* Check if master is ready to start  */
 105:.\Generated_Source\PSoC4/I2C_1_I2C_MASTER.c ****     if(I2C_1_I2C_MSTR_NO_ERROR == errStatus) /* No error proceed */
 106:.\Generated_Source\PSoC4/I2C_1_I2C_MASTER.c ****     {
 107:.\Generated_Source\PSoC4/I2C_1_I2C_MASTER.c ****         /* Set up write transaction */
 108:.\Generated_Source\PSoC4/I2C_1_I2C_MASTER.c ****         I2C_1_state = I2C_1_I2C_FSM_MSTR_WR_ADDR;
 109:.\Generated_Source\PSoC4/I2C_1_I2C_MASTER.c ****         I2C_1_mstrWrBufIndexTmp = 0u;
 110:.\Generated_Source\PSoC4/I2C_1_I2C_MASTER.c ****         I2C_1_mstrWrBufIndex    = 0u;
 111:.\Generated_Source\PSoC4/I2C_1_I2C_MASTER.c ****         I2C_1_mstrWrBufSize     = cnt;
 112:.\Generated_Source\PSoC4/I2C_1_I2C_MASTER.c ****         I2C_1_mstrWrBufPtr      = (volatile uint8 *) wrData;
 113:.\Generated_Source\PSoC4/I2C_1_I2C_MASTER.c ****         I2C_1_mstrControl       = (uint8) mode;
 114:.\Generated_Source\PSoC4/I2C_1_I2C_MASTER.c **** 
 115:.\Generated_Source\PSoC4/I2C_1_I2C_MASTER.c ****         slaveAddress = I2C_1_GET_I2C_8BIT_ADDRESS(slaveAddress);
 116:.\Generated_Source\PSoC4/I2C_1_I2C_MASTER.c **** 
 117:.\Generated_Source\PSoC4/I2C_1_I2C_MASTER.c ****         I2C_1_mstrStatus &= (uint16) ~I2C_1_I2C_MSTAT_WR_CMPLT;
 118:.\Generated_Source\PSoC4/I2C_1_I2C_MASTER.c **** 
 119:.\Generated_Source\PSoC4/I2C_1_I2C_MASTER.c ****         I2C_1_ClearMasterInterruptSource(I2C_1_INTR_MASTER_ALL);
 120:.\Generated_Source\PSoC4/I2C_1_I2C_MASTER.c ****         I2C_1_ClearTxInterruptSource(I2C_1_INTR_TX_UNDERFLOW);
 121:.\Generated_Source\PSoC4/I2C_1_I2C_MASTER.c ****         /* The TX and RX FIFO have to be EMPTY */
 122:.\Generated_Source\PSoC4/I2C_1_I2C_MASTER.c **** 
 123:.\Generated_Source\PSoC4/I2C_1_I2C_MASTER.c ****         /* Generate Start or ReStart */
 124:.\Generated_Source\PSoC4/I2C_1_I2C_MASTER.c ****         if(I2C_1_CHECK_I2C_MODE_RESTART(mode))
 125:.\Generated_Source\PSoC4/I2C_1_I2C_MASTER.c ****         {
 126:.\Generated_Source\PSoC4/I2C_1_I2C_MASTER.c ****             I2C_1_I2C_MASTER_GENERATE_RESTART;
 127:.\Generated_Source\PSoC4/I2C_1_I2C_MASTER.c ****             I2C_1_TX_FIFO_WR_REG = slaveAddress;
 128:.\Generated_Source\PSoC4/I2C_1_I2C_MASTER.c ****         }
 129:.\Generated_Source\PSoC4/I2C_1_I2C_MASTER.c ****         else
 130:.\Generated_Source\PSoC4/I2C_1_I2C_MASTER.c ****         {
 131:.\Generated_Source\PSoC4/I2C_1_I2C_MASTER.c ****             I2C_1_TX_FIFO_WR_REG = slaveAddress;
 132:.\Generated_Source\PSoC4/I2C_1_I2C_MASTER.c ****             I2C_1_I2C_MASTER_GENERATE_START;
 133:.\Generated_Source\PSoC4/I2C_1_I2C_MASTER.c ****         }
 134:.\Generated_Source\PSoC4/I2C_1_I2C_MASTER.c **** 
 135:.\Generated_Source\PSoC4/I2C_1_I2C_MASTER.c ****          /* Catch when address is sent */
 136:.\Generated_Source\PSoC4/I2C_1_I2C_MASTER.c ****         I2C_1_SetTxInterruptMode(I2C_1_INTR_TX_UNDERFLOW);
 137:.\Generated_Source\PSoC4/I2C_1_I2C_MASTER.c ****     }
 138:.\Generated_Source\PSoC4/I2C_1_I2C_MASTER.c **** 
 139:.\Generated_Source\PSoC4/I2C_1_I2C_MASTER.c ****     I2C_1_EnableInt();
 140:.\Generated_Source\PSoC4/I2C_1_I2C_MASTER.c **** 
 141:.\Generated_Source\PSoC4/I2C_1_I2C_MASTER.c ****     return(errStatus);
 142:.\Generated_Source\PSoC4/I2C_1_I2C_MASTER.c **** }
 143:.\Generated_Source\PSoC4/I2C_1_I2C_MASTER.c **** 
 144:.\Generated_Source\PSoC4/I2C_1_I2C_MASTER.c **** 
 145:.\Generated_Source\PSoC4/I2C_1_I2C_MASTER.c **** /*******************************************************************************
 146:.\Generated_Source\PSoC4/I2C_1_I2C_MASTER.c **** * Function Name: I2C_1_I2CMasterReadBuf
ARM GAS  C:\Users\Milo\AppData\Local\Temp\ccfBxLki.s 			page 4


 147:.\Generated_Source\PSoC4/I2C_1_I2C_MASTER.c **** ********************************************************************************
 148:.\Generated_Source\PSoC4/I2C_1_I2C_MASTER.c **** *
 149:.\Generated_Source\PSoC4/I2C_1_I2C_MASTER.c **** * Summary:
 150:.\Generated_Source\PSoC4/I2C_1_I2C_MASTER.c **** *  Automatically reads an entire buffer of data from a slave device.
 151:.\Generated_Source\PSoC4/I2C_1_I2C_MASTER.c **** *  Once the data transfer is initiated by this function, further data transfer
 152:.\Generated_Source\PSoC4/I2C_1_I2C_MASTER.c **** *  is handled by the included ISR.
 153:.\Generated_Source\PSoC4/I2C_1_I2C_MASTER.c **** * Enables the I2C interrupt and clears SCB_ I2C_MSTAT_RD_CMPLT status.
 154:.\Generated_Source\PSoC4/I2C_1_I2C_MASTER.c **** *
 155:.\Generated_Source\PSoC4/I2C_1_I2C_MASTER.c **** * Parameters:
 156:.\Generated_Source\PSoC4/I2C_1_I2C_MASTER.c **** *  slaveAddr: 7-bit slave address.
 157:.\Generated_Source\PSoC4/I2C_1_I2C_MASTER.c **** *  xferData:  Pointer to buffer where to put data from slave.
 158:.\Generated_Source\PSoC4/I2C_1_I2C_MASTER.c **** *  cnt:       Size of buffer to read.
 159:.\Generated_Source\PSoC4/I2C_1_I2C_MASTER.c **** *  mode:      Transfer mode defines: start or restart condition generation at
 160:.\Generated_Source\PSoC4/I2C_1_I2C_MASTER.c **** *             begin of the transfer and complete the transfer or halt before
 161:.\Generated_Source\PSoC4/I2C_1_I2C_MASTER.c **** *             generating a stop.
 162:.\Generated_Source\PSoC4/I2C_1_I2C_MASTER.c **** *
 163:.\Generated_Source\PSoC4/I2C_1_I2C_MASTER.c **** * Return:
 164:.\Generated_Source\PSoC4/I2C_1_I2C_MASTER.c **** *  Error status.
 165:.\Generated_Source\PSoC4/I2C_1_I2C_MASTER.c **** *
 166:.\Generated_Source\PSoC4/I2C_1_I2C_MASTER.c **** * Global variables:
 167:.\Generated_Source\PSoC4/I2C_1_I2C_MASTER.c **** *  I2C_1_mstrStatus  - used to store current status of I2C Master.
 168:.\Generated_Source\PSoC4/I2C_1_I2C_MASTER.c **** *  I2C_1_state       - used to store current state of software FSM.
 169:.\Generated_Source\PSoC4/I2C_1_I2C_MASTER.c **** *  I2C_1_mstrControl - used to control master end of transaction with
 170:.\Generated_Source\PSoC4/I2C_1_I2C_MASTER.c **** *  or without the Stop generation.
 171:.\Generated_Source\PSoC4/I2C_1_I2C_MASTER.c **** *  I2C_1_mstrRdBufPtr - used to store pointer to master write buffer.
 172:.\Generated_Source\PSoC4/I2C_1_I2C_MASTER.c **** *  I2C_1_mstrRdBufIndex - used to current index within master write
 173:.\Generated_Source\PSoC4/I2C_1_I2C_MASTER.c **** *  buffer.
 174:.\Generated_Source\PSoC4/I2C_1_I2C_MASTER.c **** *  I2C_1_mstrRdBufSize - used to store master write buffer size.
 175:.\Generated_Source\PSoC4/I2C_1_I2C_MASTER.c **** *
 176:.\Generated_Source\PSoC4/I2C_1_I2C_MASTER.c **** *******************************************************************************/
 177:.\Generated_Source\PSoC4/I2C_1_I2C_MASTER.c **** uint32 I2C_1_I2CMasterReadBuf(uint32 slaveAddress, uint8 * rdData, uint32 cnt, uint32 mode)
 178:.\Generated_Source\PSoC4/I2C_1_I2C_MASTER.c **** {
 179:.\Generated_Source\PSoC4/I2C_1_I2C_MASTER.c ****     uint32 errStatus;
 180:.\Generated_Source\PSoC4/I2C_1_I2C_MASTER.c **** 
 181:.\Generated_Source\PSoC4/I2C_1_I2C_MASTER.c ****     errStatus = I2C_1_I2C_MSTR_NOT_READY;
 182:.\Generated_Source\PSoC4/I2C_1_I2C_MASTER.c **** 
 183:.\Generated_Source\PSoC4/I2C_1_I2C_MASTER.c ****     if(NULL != rdData)
 184:.\Generated_Source\PSoC4/I2C_1_I2C_MASTER.c ****     {
 185:.\Generated_Source\PSoC4/I2C_1_I2C_MASTER.c ****         /* Check FSM state and bus before generating Start/ReStart condition */
 186:.\Generated_Source\PSoC4/I2C_1_I2C_MASTER.c ****         if(I2C_1_CHECK_I2C_FSM_IDLE)
 187:.\Generated_Source\PSoC4/I2C_1_I2C_MASTER.c ****         {
 188:.\Generated_Source\PSoC4/I2C_1_I2C_MASTER.c ****             I2C_1_DisableInt();
 189:.\Generated_Source\PSoC4/I2C_1_I2C_MASTER.c **** 
 190:.\Generated_Source\PSoC4/I2C_1_I2C_MASTER.c ****             /* Check bus state */
 191:.\Generated_Source\PSoC4/I2C_1_I2C_MASTER.c ****             errStatus = I2C_1_CHECK_I2C_STATUS(I2C_1_I2C_STATUS_BUS_BUSY) ?
 192:.\Generated_Source\PSoC4/I2C_1_I2C_MASTER.c ****                             I2C_1_I2C_MSTR_BUS_BUSY : I2C_1_I2C_MSTR_NO_ERROR;
 193:.\Generated_Source\PSoC4/I2C_1_I2C_MASTER.c ****         }
 194:.\Generated_Source\PSoC4/I2C_1_I2C_MASTER.c ****         else if(I2C_1_CHECK_I2C_FSM_HALT)
 195:.\Generated_Source\PSoC4/I2C_1_I2C_MASTER.c ****         {
 196:.\Generated_Source\PSoC4/I2C_1_I2C_MASTER.c ****             I2C_1_mstrStatus &= (uint16) ~I2C_1_I2C_MSTAT_XFER_HALT;
 197:.\Generated_Source\PSoC4/I2C_1_I2C_MASTER.c ****                               errStatus  =  I2C_1_I2C_MSTR_NO_ERROR;
 198:.\Generated_Source\PSoC4/I2C_1_I2C_MASTER.c ****         }
 199:.\Generated_Source\PSoC4/I2C_1_I2C_MASTER.c ****         else
 200:.\Generated_Source\PSoC4/I2C_1_I2C_MASTER.c ****         {
 201:.\Generated_Source\PSoC4/I2C_1_I2C_MASTER.c ****             /* Unexpected FSM state: exit */
 202:.\Generated_Source\PSoC4/I2C_1_I2C_MASTER.c ****         }
 203:.\Generated_Source\PSoC4/I2C_1_I2C_MASTER.c ****     }
ARM GAS  C:\Users\Milo\AppData\Local\Temp\ccfBxLki.s 			page 5


 204:.\Generated_Source\PSoC4/I2C_1_I2C_MASTER.c **** 
 205:.\Generated_Source\PSoC4/I2C_1_I2C_MASTER.c ****     /* Check master ready to proceed */
 206:.\Generated_Source\PSoC4/I2C_1_I2C_MASTER.c ****     if(I2C_1_I2C_MSTR_NO_ERROR == errStatus) /* No error proceed */
 207:.\Generated_Source\PSoC4/I2C_1_I2C_MASTER.c ****     {
 208:.\Generated_Source\PSoC4/I2C_1_I2C_MASTER.c ****         /* Set up read transaction */
 209:.\Generated_Source\PSoC4/I2C_1_I2C_MASTER.c ****         I2C_1_state = I2C_1_I2C_FSM_MSTR_RD_ADDR;
 210:.\Generated_Source\PSoC4/I2C_1_I2C_MASTER.c ****         I2C_1_mstrRdBufIndex = 0u;
 211:.\Generated_Source\PSoC4/I2C_1_I2C_MASTER.c ****         I2C_1_mstrRdBufSize  = cnt;
 212:.\Generated_Source\PSoC4/I2C_1_I2C_MASTER.c ****         I2C_1_mstrRdBufPtr   = (volatile uint8 *) rdData;
 213:.\Generated_Source\PSoC4/I2C_1_I2C_MASTER.c ****         I2C_1_mstrControl    = (uint8) mode;
 214:.\Generated_Source\PSoC4/I2C_1_I2C_MASTER.c **** 
 215:.\Generated_Source\PSoC4/I2C_1_I2C_MASTER.c ****         slaveAddress = (I2C_1_GET_I2C_8BIT_ADDRESS(slaveAddress) | I2C_1_I2C_READ_FLAG);
 216:.\Generated_Source\PSoC4/I2C_1_I2C_MASTER.c **** 
 217:.\Generated_Source\PSoC4/I2C_1_I2C_MASTER.c ****         I2C_1_mstrStatus &= (uint16) ~I2C_1_I2C_MSTAT_RD_CMPLT;
 218:.\Generated_Source\PSoC4/I2C_1_I2C_MASTER.c **** 
 219:.\Generated_Source\PSoC4/I2C_1_I2C_MASTER.c ****         I2C_1_ClearMasterInterruptSource(I2C_1_INTR_MASTER_ALL);
 220:.\Generated_Source\PSoC4/I2C_1_I2C_MASTER.c **** 
 221:.\Generated_Source\PSoC4/I2C_1_I2C_MASTER.c ****         /* The TX and RX FIFO have to be EMPTY */
 222:.\Generated_Source\PSoC4/I2C_1_I2C_MASTER.c **** 
 223:.\Generated_Source\PSoC4/I2C_1_I2C_MASTER.c ****         /* Generate Start or ReStart */
 224:.\Generated_Source\PSoC4/I2C_1_I2C_MASTER.c ****         if(I2C_1_CHECK_I2C_MODE_RESTART(mode))
 225:.\Generated_Source\PSoC4/I2C_1_I2C_MASTER.c ****         {
 226:.\Generated_Source\PSoC4/I2C_1_I2C_MASTER.c ****             I2C_1_I2C_MASTER_GENERATE_RESTART;
 227:.\Generated_Source\PSoC4/I2C_1_I2C_MASTER.c ****             I2C_1_TX_FIFO_WR_REG = (slaveAddress);
 228:.\Generated_Source\PSoC4/I2C_1_I2C_MASTER.c ****         }
 229:.\Generated_Source\PSoC4/I2C_1_I2C_MASTER.c ****         else
 230:.\Generated_Source\PSoC4/I2C_1_I2C_MASTER.c ****         {
 231:.\Generated_Source\PSoC4/I2C_1_I2C_MASTER.c ****             I2C_1_TX_FIFO_WR_REG = (slaveAddress);
 232:.\Generated_Source\PSoC4/I2C_1_I2C_MASTER.c ****             I2C_1_I2C_MASTER_GENERATE_START;
 233:.\Generated_Source\PSoC4/I2C_1_I2C_MASTER.c ****         }
 234:.\Generated_Source\PSoC4/I2C_1_I2C_MASTER.c **** 
 235:.\Generated_Source\PSoC4/I2C_1_I2C_MASTER.c ****         /* Prepare reading */
 236:.\Generated_Source\PSoC4/I2C_1_I2C_MASTER.c ****         if(I2C_1_mstrRdBufSize < I2C_1_I2C_FIFO_SIZE) /* Reading byte-by-byte */
 237:.\Generated_Source\PSoC4/I2C_1_I2C_MASTER.c ****         {
 238:.\Generated_Source\PSoC4/I2C_1_I2C_MASTER.c ****             I2C_1_SetRxInterruptMode(I2C_1_INTR_RX_NOT_EMPTY);
 239:.\Generated_Source\PSoC4/I2C_1_I2C_MASTER.c ****         }
 240:.\Generated_Source\PSoC4/I2C_1_I2C_MASTER.c ****         else /* Reading use RX FIFO */
 241:.\Generated_Source\PSoC4/I2C_1_I2C_MASTER.c ****         {
 242:.\Generated_Source\PSoC4/I2C_1_I2C_MASTER.c ****             I2C_1_ENABLE_MASTER_AUTO_DATA_ACK;
 243:.\Generated_Source\PSoC4/I2C_1_I2C_MASTER.c ****             I2C_1_SetRxInterruptMode(I2C_1_INTR_RX_FULL);
 244:.\Generated_Source\PSoC4/I2C_1_I2C_MASTER.c ****         }
 245:.\Generated_Source\PSoC4/I2C_1_I2C_MASTER.c ****     }
 246:.\Generated_Source\PSoC4/I2C_1_I2C_MASTER.c **** 
 247:.\Generated_Source\PSoC4/I2C_1_I2C_MASTER.c ****     I2C_1_EnableInt();
 248:.\Generated_Source\PSoC4/I2C_1_I2C_MASTER.c **** 
 249:.\Generated_Source\PSoC4/I2C_1_I2C_MASTER.c ****     return(errStatus);
 250:.\Generated_Source\PSoC4/I2C_1_I2C_MASTER.c **** }
 251:.\Generated_Source\PSoC4/I2C_1_I2C_MASTER.c **** 
 252:.\Generated_Source\PSoC4/I2C_1_I2C_MASTER.c **** 
 253:.\Generated_Source\PSoC4/I2C_1_I2C_MASTER.c **** /*******************************************************************************
 254:.\Generated_Source\PSoC4/I2C_1_I2C_MASTER.c **** * Function Name: I2C_1_I2CMasterSendStart
 255:.\Generated_Source\PSoC4/I2C_1_I2C_MASTER.c **** ********************************************************************************
 256:.\Generated_Source\PSoC4/I2C_1_I2C_MASTER.c **** *
 257:.\Generated_Source\PSoC4/I2C_1_I2C_MASTER.c **** * Summary:
 258:.\Generated_Source\PSoC4/I2C_1_I2C_MASTER.c **** *  Generates Start condition and sends slave address with read/write bit.
 259:.\Generated_Source\PSoC4/I2C_1_I2C_MASTER.c **** *  Disables the I2C interrupt.
 260:.\Generated_Source\PSoC4/I2C_1_I2C_MASTER.c **** *  This function is blocking and does not return until start condition and
ARM GAS  C:\Users\Milo\AppData\Local\Temp\ccfBxLki.s 			page 6


 261:.\Generated_Source\PSoC4/I2C_1_I2C_MASTER.c **** *  address byte are sent and ACK/NACK response is received or errors occurred.
 262:.\Generated_Source\PSoC4/I2C_1_I2C_MASTER.c **** *
 263:.\Generated_Source\PSoC4/I2C_1_I2C_MASTER.c **** * Parameters:
 264:.\Generated_Source\PSoC4/I2C_1_I2C_MASTER.c **** *  slaveAddress: Right justified 7-bit Slave address (valid range 8 to 120).
 265:.\Generated_Source\PSoC4/I2C_1_I2C_MASTER.c **** *  bitRnW:       Direction of the following transfer. It is defined by
 266:.\Generated_Source\PSoC4/I2C_1_I2C_MASTER.c **** *                read/write bit within address byte.
 267:.\Generated_Source\PSoC4/I2C_1_I2C_MASTER.c **** *
 268:.\Generated_Source\PSoC4/I2C_1_I2C_MASTER.c **** * Return:
 269:.\Generated_Source\PSoC4/I2C_1_I2C_MASTER.c **** *  Erorr status.
 270:.\Generated_Source\PSoC4/I2C_1_I2C_MASTER.c **** *
 271:.\Generated_Source\PSoC4/I2C_1_I2C_MASTER.c **** * Global variables:
 272:.\Generated_Source\PSoC4/I2C_1_I2C_MASTER.c **** *  I2C_1_state - used to store current state of software FSM.
 273:.\Generated_Source\PSoC4/I2C_1_I2C_MASTER.c **** *
 274:.\Generated_Source\PSoC4/I2C_1_I2C_MASTER.c **** *******************************************************************************/
 275:.\Generated_Source\PSoC4/I2C_1_I2C_MASTER.c **** uint32 I2C_1_I2CMasterSendStart(uint32 slaveAddress, uint32 bitRnW)
 276:.\Generated_Source\PSoC4/I2C_1_I2C_MASTER.c **** {
  26              		.loc 1 276 0
  27              		.cfi_startproc
  28              	.LVL0:
  29 0000 F8B5     		push	{r3, r4, r5, r6, r7, lr}
  30              	.LCFI0:
  31              		.cfi_def_cfa_offset 24
  32              		.cfi_offset 3, -24
  33              		.cfi_offset 4, -20
  34              		.cfi_offset 5, -16
  35              		.cfi_offset 6, -12
  36              		.cfi_offset 7, -8
  37              		.cfi_offset 14, -4
 277:.\Generated_Source\PSoC4/I2C_1_I2C_MASTER.c ****     uint32  resetIp;
 278:.\Generated_Source\PSoC4/I2C_1_I2C_MASTER.c ****     uint32 errStatus;
 279:.\Generated_Source\PSoC4/I2C_1_I2C_MASTER.c **** 
 280:.\Generated_Source\PSoC4/I2C_1_I2C_MASTER.c ****     resetIp   = 0u;
 281:.\Generated_Source\PSoC4/I2C_1_I2C_MASTER.c ****     errStatus = I2C_1_I2C_MSTR_NOT_READY;
 282:.\Generated_Source\PSoC4/I2C_1_I2C_MASTER.c **** 
 283:.\Generated_Source\PSoC4/I2C_1_I2C_MASTER.c ****     /* Check FSM state before generating Start condition */
 284:.\Generated_Source\PSoC4/I2C_1_I2C_MASTER.c ****     if(I2C_1_CHECK_I2C_FSM_IDLE)
  38              		.loc 1 284 0
  39 0002 254C     		ldr	r4, .L20
 276:.\Generated_Source\PSoC4/I2C_1_I2C_MASTER.c **** {
  40              		.loc 1 276 0
  41 0004 071C     		mov	r7, r0
  42              		.loc 1 284 0
  43 0006 2378     		ldrb	r3, [r4]
 276:.\Generated_Source\PSoC4/I2C_1_I2C_MASTER.c **** {
  44              		.loc 1 276 0
  45 0008 0E1C     		mov	r6, r1
 281:.\Generated_Source\PSoC4/I2C_1_I2C_MASTER.c ****     errStatus = I2C_1_I2C_MSTR_NOT_READY;
  46              		.loc 1 281 0
  47 000a 0420     		mov	r0, #4
  48              	.LVL1:
  49              		.loc 1 284 0
  50 000c 102B     		cmp	r3, #16
  51 000e 42D1     		bne	.L2
 285:.\Generated_Source\PSoC4/I2C_1_I2C_MASTER.c ****     {
 286:.\Generated_Source\PSoC4/I2C_1_I2C_MASTER.c ****         /* If bus is free, generate Start condition */
 287:.\Generated_Source\PSoC4/I2C_1_I2C_MASTER.c ****         if(I2C_1_CHECK_I2C_STATUS(I2C_1_I2C_STATUS_BUS_BUSY))
  52              		.loc 1 287 0
ARM GAS  C:\Users\Milo\AppData\Local\Temp\ccfBxLki.s 			page 7


  53 0010 2248     		ldr	r0, .L20+4
  54 0012 0125     		mov	r5, #1
  55 0014 0168     		ldr	r1, [r0]
  56              	.LVL2:
 288:.\Generated_Source\PSoC4/I2C_1_I2C_MASTER.c ****         {
 289:.\Generated_Source\PSoC4/I2C_1_I2C_MASTER.c ****             errStatus = I2C_1_I2C_MSTR_BUS_BUSY;
  57              		.loc 1 289 0
  58 0016 0820     		mov	r0, #8
 287:.\Generated_Source\PSoC4/I2C_1_I2C_MASTER.c ****         if(I2C_1_CHECK_I2C_STATUS(I2C_1_I2C_STATUS_BUS_BUSY))
  59              		.loc 1 287 0
  60 0018 2942     		tst	r1, r5
  61 001a 3CD1     		bne	.L2
 290:.\Generated_Source\PSoC4/I2C_1_I2C_MASTER.c ****         }
 291:.\Generated_Source\PSoC4/I2C_1_I2C_MASTER.c ****         else
 292:.\Generated_Source\PSoC4/I2C_1_I2C_MASTER.c ****         {
 293:.\Generated_Source\PSoC4/I2C_1_I2C_MASTER.c ****             I2C_1_DisableInt();
  62              		.loc 1 293 0
  63 001c 0B20     		mov	r0, #11
  64 001e FFF7FEFF 		bl	CyIntDisable
  65              	.LVL3:
 294:.\Generated_Source\PSoC4/I2C_1_I2C_MASTER.c **** 
 295:.\Generated_Source\PSoC4/I2C_1_I2C_MASTER.c ****             slaveAddress = I2C_1_GET_I2C_8BIT_ADDRESS(slaveAddress);
  66              		.loc 1 295 0
  67 0022 AF40     		lsl	r7, r7, r5
  68              	.LVL4:
  69 0024 FF22     		mov	r2, #255
  70 0026 1740     		and	r7, r2
  71              	.LVL5:
 296:.\Generated_Source\PSoC4/I2C_1_I2C_MASTER.c **** 
 297:.\Generated_Source\PSoC4/I2C_1_I2C_MASTER.c ****             if(0u == bitRnW) /* Write direction */
  72              		.loc 1 297 0
  73 0028 002E     		cmp	r6, #0
  74 002a 02D1     		bne	.L3
 298:.\Generated_Source\PSoC4/I2C_1_I2C_MASTER.c ****             {
 299:.\Generated_Source\PSoC4/I2C_1_I2C_MASTER.c ****                 I2C_1_state = I2C_1_I2C_FSM_MSTR_WR_DATA;
  75              		.loc 1 299 0
  76 002c 2423     		mov	r3, #36
  77 002e 2370     		strb	r3, [r4]
  78 0030 02E0     		b	.L4
  79              	.L3:
 300:.\Generated_Source\PSoC4/I2C_1_I2C_MASTER.c ****             }
 301:.\Generated_Source\PSoC4/I2C_1_I2C_MASTER.c ****             else /* Read direction */
 302:.\Generated_Source\PSoC4/I2C_1_I2C_MASTER.c ****             {
 303:.\Generated_Source\PSoC4/I2C_1_I2C_MASTER.c ****                 I2C_1_state = I2C_1_I2C_FSM_MSTR_RD_DATA;
  80              		.loc 1 303 0
  81 0032 2526     		mov	r6, #37
  82              	.LVL6:
  83 0034 2670     		strb	r6, [r4]
 304:.\Generated_Source\PSoC4/I2C_1_I2C_MASTER.c ****                          slaveAddress |= I2C_1_I2C_READ_FLAG;
  84              		.loc 1 304 0
  85 0036 2F43     		orr	r7, r5
  86              	.LVL7:
  87              	.L4:
 305:.\Generated_Source\PSoC4/I2C_1_I2C_MASTER.c ****             }
 306:.\Generated_Source\PSoC4/I2C_1_I2C_MASTER.c **** 
 307:.\Generated_Source\PSoC4/I2C_1_I2C_MASTER.c ****             /* The TX and RX FIFO have to be EMPTY */
 308:.\Generated_Source\PSoC4/I2C_1_I2C_MASTER.c **** 
ARM GAS  C:\Users\Milo\AppData\Local\Temp\ccfBxLki.s 			page 8


 309:.\Generated_Source\PSoC4/I2C_1_I2C_MASTER.c ****             I2C_1_TX_FIFO_WR_REG = slaveAddress; /* Put address in TX FIFO */
  88              		.loc 1 309 0
  89 0038 1948     		ldr	r0, .L20+8
 310:.\Generated_Source\PSoC4/I2C_1_I2C_MASTER.c ****             I2C_1_ClearMasterInterruptSource(I2C_1_INTR_MASTER_ALL);
  90              		.loc 1 310 0
  91 003a 1A49     		ldr	r1, .L20+12
 309:.\Generated_Source\PSoC4/I2C_1_I2C_MASTER.c ****             I2C_1_TX_FIFO_WR_REG = slaveAddress; /* Put address in TX FIFO */
  92              		.loc 1 309 0
  93 003c 0760     		str	r7, [r0]
 311:.\Generated_Source\PSoC4/I2C_1_I2C_MASTER.c **** 
 312:.\Generated_Source\PSoC4/I2C_1_I2C_MASTER.c ****             I2C_1_I2C_MASTER_GENERATE_START;
  94              		.loc 1 312 0
  95 003e 1A4A     		ldr	r2, .L20+16
 310:.\Generated_Source\PSoC4/I2C_1_I2C_MASTER.c ****             I2C_1_ClearMasterInterruptSource(I2C_1_INTR_MASTER_ALL);
  96              		.loc 1 310 0
  97 0040 1A4F     		ldr	r7, .L20+20
  98              	.LVL8:
  99              		.loc 1 312 0
 100 0042 0225     		mov	r5, #2
 310:.\Generated_Source\PSoC4/I2C_1_I2C_MASTER.c ****             I2C_1_ClearMasterInterruptSource(I2C_1_INTR_MASTER_ALL);
 101              		.loc 1 310 0
 102 0044 3960     		str	r1, [r7]
 103              		.loc 1 312 0
 104 0046 1560     		str	r5, [r2]
 105              	.L5:
 313:.\Generated_Source\PSoC4/I2C_1_I2C_MASTER.c **** 
 314:.\Generated_Source\PSoC4/I2C_1_I2C_MASTER.c **** 
 315:.\Generated_Source\PSoC4/I2C_1_I2C_MASTER.c ****             while(!I2C_1_CHECK_INTR_MASTER(I2C_1_INTR_MASTER_I2C_ACK      |
 106              		.loc 1 315 0 discriminator 1
 107 0048 3E68     		ldr	r6, [r7]
 108 004a 194D     		ldr	r5, .L20+24
 109 004c 1749     		ldr	r1, .L20+20
 110 004e 2E42     		tst	r6, r5
 111 0050 FAD0     		beq	.L5
 316:.\Generated_Source\PSoC4/I2C_1_I2C_MASTER.c ****                                                       I2C_1_INTR_MASTER_I2C_NACK     |
 317:.\Generated_Source\PSoC4/I2C_1_I2C_MASTER.c ****                                                       I2C_1_INTR_MASTER_I2C_ARB_LOST |
 318:.\Generated_Source\PSoC4/I2C_1_I2C_MASTER.c ****                                                       I2C_1_INTR_MASTER_I2C_BUS_ERROR))
 319:.\Generated_Source\PSoC4/I2C_1_I2C_MASTER.c ****             {
 320:.\Generated_Source\PSoC4/I2C_1_I2C_MASTER.c ****                 /*
 321:.\Generated_Source\PSoC4/I2C_1_I2C_MASTER.c ****                 * Write: wait until address has been transferred
 322:.\Generated_Source\PSoC4/I2C_1_I2C_MASTER.c ****                 * Read : wait until address has been transferred, data byte is going to RX FIFO as 
 323:.\Generated_Source\PSoC4/I2C_1_I2C_MASTER.c ****                 */
 324:.\Generated_Source\PSoC4/I2C_1_I2C_MASTER.c ****             }
 325:.\Generated_Source\PSoC4/I2C_1_I2C_MASTER.c **** 
 326:.\Generated_Source\PSoC4/I2C_1_I2C_MASTER.c ****             /* Check the results of the address phase */
 327:.\Generated_Source\PSoC4/I2C_1_I2C_MASTER.c ****             if(I2C_1_CHECK_INTR_MASTER(I2C_1_INTR_MASTER_I2C_ACK))
 112              		.loc 1 327 0
 113 0052 0868     		ldr	r0, [r1]
 114              	.LVL9:
 115 0054 0423     		mov	r3, #4
 116 0056 0340     		and	r3, r0
 117 0058 0ED1     		bne	.L10
 328:.\Generated_Source\PSoC4/I2C_1_I2C_MASTER.c ****             {
 329:.\Generated_Source\PSoC4/I2C_1_I2C_MASTER.c ****                 errStatus = I2C_1_I2C_MSTR_NO_ERROR;
 330:.\Generated_Source\PSoC4/I2C_1_I2C_MASTER.c ****             }
 331:.\Generated_Source\PSoC4/I2C_1_I2C_MASTER.c ****             else if(I2C_1_CHECK_INTR_MASTER(I2C_1_INTR_MASTER_I2C_NACK))
 118              		.loc 1 331 0
ARM GAS  C:\Users\Milo\AppData\Local\Temp\ccfBxLki.s 			page 9


 119 005a 0A68     		ldr	r2, [r1]
 120 005c 0220     		mov	r0, #2
 121 005e 0242     		tst	r2, r0
 122 0060 0CD1     		bne	.L6
 332:.\Generated_Source\PSoC4/I2C_1_I2C_MASTER.c ****             {
 333:.\Generated_Source\PSoC4/I2C_1_I2C_MASTER.c ****                 errStatus = I2C_1_I2C_MSTR_ERR_LB_NAK;
 334:.\Generated_Source\PSoC4/I2C_1_I2C_MASTER.c ****             }
 335:.\Generated_Source\PSoC4/I2C_1_I2C_MASTER.c ****             else if(I2C_1_CHECK_INTR_MASTER(I2C_1_INTR_MASTER_I2C_ARB_LOST))
 123              		.loc 1 335 0
 124 0062 0968     		ldr	r1, [r1]
 125 0064 1026     		mov	r6, #16
 126 0066 0123     		mov	r3, #1
 336:.\Generated_Source\PSoC4/I2C_1_I2C_MASTER.c ****             {
 337:.\Generated_Source\PSoC4/I2C_1_I2C_MASTER.c ****                 I2C_1_state = I2C_1_I2C_FSM_IDLE;
 127              		.loc 1 337 0
 128 0068 2670     		strb	r6, [r4]
 335:.\Generated_Source\PSoC4/I2C_1_I2C_MASTER.c ****             else if(I2C_1_CHECK_INTR_MASTER(I2C_1_INTR_MASTER_I2C_ARB_LOST))
 129              		.loc 1 335 0
 130 006a 1942     		tst	r1, r3
 131 006c 01D0     		beq	.L7
 132              	.LVL10:
 338:.\Generated_Source\PSoC4/I2C_1_I2C_MASTER.c ****                              errStatus = I2C_1_I2C_MSTR_ERR_ARB_LOST;
 133              		.loc 1 338 0
 134 006e 181C     		mov	r0, r3
 135 0070 04E0     		b	.L6
 136              	.LVL11:
 137              	.L7:
 339:.\Generated_Source\PSoC4/I2C_1_I2C_MASTER.c ****                              resetIp   = I2C_1_I2C_RESET_ERROR;
 340:.\Generated_Source\PSoC4/I2C_1_I2C_MASTER.c ****             }
 341:.\Generated_Source\PSoC4/I2C_1_I2C_MASTER.c ****             else /* I2C_1_INTR_MASTER_I2C_BUS_ERROR set is else condition */
 342:.\Generated_Source\PSoC4/I2C_1_I2C_MASTER.c ****             {
 343:.\Generated_Source\PSoC4/I2C_1_I2C_MASTER.c ****                 I2C_1_state = I2C_1_I2C_FSM_IDLE;
 344:.\Generated_Source\PSoC4/I2C_1_I2C_MASTER.c ****                              errStatus = I2C_1_I2C_MSTR_ERR_BUS_ERR;
 138              		.loc 1 344 0
 139 0072 8024     		mov	r4, #128
 140 0074 6000     		lsl	r0, r4, #1
 141 0076 01E0     		b	.L6
 142              	.LVL12:
 143              	.L10:
 329:.\Generated_Source\PSoC4/I2C_1_I2C_MASTER.c ****                 errStatus = I2C_1_I2C_MSTR_NO_ERROR;
 144              		.loc 1 329 0
 145 0078 0020     		mov	r0, #0
 280:.\Generated_Source\PSoC4/I2C_1_I2C_MASTER.c ****     resetIp   = 0u;
 146              		.loc 1 280 0
 147 007a 031C     		mov	r3, r0
 148              	.LVL13:
 149              	.L6:
 345:.\Generated_Source\PSoC4/I2C_1_I2C_MASTER.c ****                              resetIp   = I2C_1_I2C_RESET_ERROR;
 346:.\Generated_Source\PSoC4/I2C_1_I2C_MASTER.c ****             }
 347:.\Generated_Source\PSoC4/I2C_1_I2C_MASTER.c **** 
 348:.\Generated_Source\PSoC4/I2C_1_I2C_MASTER.c ****             I2C_1_ClearMasterInterruptSource(I2C_1_INTR_MASTER_I2C_ACK      |
 150              		.loc 1 348 0
 151 007c 3D60     		str	r5, [r7]
 349:.\Generated_Source\PSoC4/I2C_1_I2C_MASTER.c ****                                                         I2C_1_INTR_MASTER_I2C_NACK     |
 350:.\Generated_Source\PSoC4/I2C_1_I2C_MASTER.c ****                                                         I2C_1_INTR_MASTER_I2C_ARB_LOST |
 351:.\Generated_Source\PSoC4/I2C_1_I2C_MASTER.c ****                                                         I2C_1_INTR_MASTER_I2C_BUS_ERROR);
 352:.\Generated_Source\PSoC4/I2C_1_I2C_MASTER.c **** 
ARM GAS  C:\Users\Milo\AppData\Local\Temp\ccfBxLki.s 			page 10


 353:.\Generated_Source\PSoC4/I2C_1_I2C_MASTER.c ****             /* Reset block in case of: LOST_ARB or BUS_ERR */
 354:.\Generated_Source\PSoC4/I2C_1_I2C_MASTER.c ****             if(0u != resetIp)
 152              		.loc 1 354 0
 153 007e 002B     		cmp	r3, #0
 154 0080 09D0     		beq	.L2
 355:.\Generated_Source\PSoC4/I2C_1_I2C_MASTER.c ****             {
 356:.\Generated_Source\PSoC4/I2C_1_I2C_MASTER.c ****                 I2C_1_SCB_SW_RESET;
 155              		.loc 1 356 0
 156 0082 0C4F     		ldr	r7, .L20+28
 157 0084 8024     		mov	r4, #128
 158 0086 3D68     		ldr	r5, [r7]
 159 0088 2306     		lsl	r3, r4, #24
 160              	.LVL14:
 161 008a 6A00     		lsl	r2, r5, #1
 162 008c 5108     		lsr	r1, r2, #1
 163 008e 3960     		str	r1, [r7]
 164 0090 3E68     		ldr	r6, [r7]
 165 0092 3343     		orr	r3, r6
 166 0094 3B60     		str	r3, [r7]
 167              	.LVL15:
 168              	.L2:
 357:.\Generated_Source\PSoC4/I2C_1_I2C_MASTER.c ****             }
 358:.\Generated_Source\PSoC4/I2C_1_I2C_MASTER.c ****         }
 359:.\Generated_Source\PSoC4/I2C_1_I2C_MASTER.c ****     }
 360:.\Generated_Source\PSoC4/I2C_1_I2C_MASTER.c **** 
 361:.\Generated_Source\PSoC4/I2C_1_I2C_MASTER.c ****     return(errStatus);
 362:.\Generated_Source\PSoC4/I2C_1_I2C_MASTER.c **** }
 169              		.loc 1 362 0
 170              		@ sp needed for prologue
 171 0096 F8BD     		pop	{r3, r4, r5, r6, r7, pc}
 172              	.L21:
 173              		.align	2
 174              	.L20:
 175 0098 00000000 		.word	I2C_1_state
 176 009c 64000740 		.word	1074200676
 177 00a0 40020740 		.word	1074201152
 178 00a4 17030000 		.word	791
 179 00a8 68000740 		.word	1074200680
 180 00ac 000F0740 		.word	1074204416
 181 00b0 07010000 		.word	263
 182 00b4 00000740 		.word	1074200576
 183              		.cfi_endproc
 184              	.LFE2:
 185              		.size	I2C_1_I2CMasterSendStart, .-I2C_1_I2CMasterSendStart
 186              		.section	.text.I2C_1_I2CMasterSendStop,"ax",%progbits
 187              		.align	1
 188              		.global	I2C_1_I2CMasterSendStop
 189              		.code	16
 190              		.thumb_func
 191              		.type	I2C_1_I2CMasterSendStop, %function
 192              	I2C_1_I2CMasterSendStop:
 193              	.LFB4:
 363:.\Generated_Source\PSoC4/I2C_1_I2C_MASTER.c **** 
 364:.\Generated_Source\PSoC4/I2C_1_I2C_MASTER.c **** 
 365:.\Generated_Source\PSoC4/I2C_1_I2C_MASTER.c **** /*******************************************************************************
 366:.\Generated_Source\PSoC4/I2C_1_I2C_MASTER.c **** * Function Name: I2C_1_I2CMasterSendRestart
 367:.\Generated_Source\PSoC4/I2C_1_I2C_MASTER.c **** ********************************************************************************
ARM GAS  C:\Users\Milo\AppData\Local\Temp\ccfBxLki.s 			page 11


 368:.\Generated_Source\PSoC4/I2C_1_I2C_MASTER.c **** *
 369:.\Generated_Source\PSoC4/I2C_1_I2C_MASTER.c **** * Summary:
 370:.\Generated_Source\PSoC4/I2C_1_I2C_MASTER.c **** *  Generates Restart condition and sends slave address with read/write bit.
 371:.\Generated_Source\PSoC4/I2C_1_I2C_MASTER.c **** *  This function is blocking and does not return until start condition and
 372:.\Generated_Source\PSoC4/I2C_1_I2C_MASTER.c **** *  address are sent and ACK/NACK response is received or errors occurred.
 373:.\Generated_Source\PSoC4/I2C_1_I2C_MASTER.c **** *
 374:.\Generated_Source\PSoC4/I2C_1_I2C_MASTER.c **** * Parameters:
 375:.\Generated_Source\PSoC4/I2C_1_I2C_MASTER.c **** *  slaveAddress: Right justified 7-bit Slave address (valid range 8 to 120).
 376:.\Generated_Source\PSoC4/I2C_1_I2C_MASTER.c **** *  bitRnW:       Direction of the following transfer. It is defined by
 377:.\Generated_Source\PSoC4/I2C_1_I2C_MASTER.c **** *                read/write bit within address byte.
 378:.\Generated_Source\PSoC4/I2C_1_I2C_MASTER.c **** *
 379:.\Generated_Source\PSoC4/I2C_1_I2C_MASTER.c **** * Return:
 380:.\Generated_Source\PSoC4/I2C_1_I2C_MASTER.c **** *  Error status
 381:.\Generated_Source\PSoC4/I2C_1_I2C_MASTER.c **** *
 382:.\Generated_Source\PSoC4/I2C_1_I2C_MASTER.c **** *
 383:.\Generated_Source\PSoC4/I2C_1_I2C_MASTER.c **** * Global variables:
 384:.\Generated_Source\PSoC4/I2C_1_I2C_MASTER.c **** *  I2C_1_state - used to store current state of software FSM.
 385:.\Generated_Source\PSoC4/I2C_1_I2C_MASTER.c **** *
 386:.\Generated_Source\PSoC4/I2C_1_I2C_MASTER.c **** *******************************************************************************/
 387:.\Generated_Source\PSoC4/I2C_1_I2C_MASTER.c **** uint32 I2C_1_I2CMasterSendRestart(uint32 slaveAddress, uint32 bitRnW)
 388:.\Generated_Source\PSoC4/I2C_1_I2C_MASTER.c **** {
 389:.\Generated_Source\PSoC4/I2C_1_I2C_MASTER.c ****     uint32 resetIp;
 390:.\Generated_Source\PSoC4/I2C_1_I2C_MASTER.c ****     uint32 errStatus;
 391:.\Generated_Source\PSoC4/I2C_1_I2C_MASTER.c **** 
 392:.\Generated_Source\PSoC4/I2C_1_I2C_MASTER.c ****     resetIp   = 0u;
 393:.\Generated_Source\PSoC4/I2C_1_I2C_MASTER.c ****     errStatus = I2C_1_I2C_MSTR_NOT_READY;
 394:.\Generated_Source\PSoC4/I2C_1_I2C_MASTER.c **** 
 395:.\Generated_Source\PSoC4/I2C_1_I2C_MASTER.c ****     /* Check FSM state before generating ReStart condition */
 396:.\Generated_Source\PSoC4/I2C_1_I2C_MASTER.c ****     if(I2C_1_CHECK_I2C_MASTER_ACTIVE)
 397:.\Generated_Source\PSoC4/I2C_1_I2C_MASTER.c ****     {
 398:.\Generated_Source\PSoC4/I2C_1_I2C_MASTER.c ****         slaveAddress = I2C_1_GET_I2C_8BIT_ADDRESS(slaveAddress);
 399:.\Generated_Source\PSoC4/I2C_1_I2C_MASTER.c **** 
 400:.\Generated_Source\PSoC4/I2C_1_I2C_MASTER.c ****         if(0u == bitRnW) /* Write direction */
 401:.\Generated_Source\PSoC4/I2C_1_I2C_MASTER.c ****         {
 402:.\Generated_Source\PSoC4/I2C_1_I2C_MASTER.c ****             I2C_1_state = I2C_1_I2C_FSM_MSTR_WR_DATA;
 403:.\Generated_Source\PSoC4/I2C_1_I2C_MASTER.c ****         }
 404:.\Generated_Source\PSoC4/I2C_1_I2C_MASTER.c ****         else  /* Read direction */
 405:.\Generated_Source\PSoC4/I2C_1_I2C_MASTER.c ****         {
 406:.\Generated_Source\PSoC4/I2C_1_I2C_MASTER.c ****             I2C_1_state  = I2C_1_I2C_FSM_MSTR_RD_DATA;
 407:.\Generated_Source\PSoC4/I2C_1_I2C_MASTER.c ****                       slaveAddress |= I2C_1_I2C_READ_FLAG;
 408:.\Generated_Source\PSoC4/I2C_1_I2C_MASTER.c ****         }
 409:.\Generated_Source\PSoC4/I2C_1_I2C_MASTER.c **** 
 410:.\Generated_Source\PSoC4/I2C_1_I2C_MASTER.c ****         /* The TX and RX FIFO have to be EMPTY */
 411:.\Generated_Source\PSoC4/I2C_1_I2C_MASTER.c **** 
 412:.\Generated_Source\PSoC4/I2C_1_I2C_MASTER.c ****         /* Clean-up interrupt status */
 413:.\Generated_Source\PSoC4/I2C_1_I2C_MASTER.c ****         I2C_1_ClearMasterInterruptSource(I2C_1_INTR_MASTER_ALL);
 414:.\Generated_Source\PSoC4/I2C_1_I2C_MASTER.c **** 
 415:.\Generated_Source\PSoC4/I2C_1_I2C_MASTER.c ****         /* Proper ReStart sequence is: generate ReStart then put address byte in the TX FIFO.
 416:.\Generated_Source\PSoC4/I2C_1_I2C_MASTER.c ****         * Otherwise master treats address in the TX FIFO as data byte if previous transfer is write
 417:.\Generated_Source\PSoC4/I2C_1_I2C_MASTER.c ****         * The write transfer continue instead of ReStart.
 418:.\Generated_Source\PSoC4/I2C_1_I2C_MASTER.c ****         */
 419:.\Generated_Source\PSoC4/I2C_1_I2C_MASTER.c ****         I2C_1_I2C_MASTER_GENERATE_RESTART;
 420:.\Generated_Source\PSoC4/I2C_1_I2C_MASTER.c **** 
 421:.\Generated_Source\PSoC4/I2C_1_I2C_MASTER.c ****         while(I2C_1_CHECK_I2C_MASTER_CMD(I2C_1_I2C_MASTER_CMD_M_START))
 422:.\Generated_Source\PSoC4/I2C_1_I2C_MASTER.c ****         {
 423:.\Generated_Source\PSoC4/I2C_1_I2C_MASTER.c ****             /* Wait until ReStart has been generated */
 424:.\Generated_Source\PSoC4/I2C_1_I2C_MASTER.c ****         }
ARM GAS  C:\Users\Milo\AppData\Local\Temp\ccfBxLki.s 			page 12


 425:.\Generated_Source\PSoC4/I2C_1_I2C_MASTER.c **** 
 426:.\Generated_Source\PSoC4/I2C_1_I2C_MASTER.c ****         /* Put address into TX FIFO */
 427:.\Generated_Source\PSoC4/I2C_1_I2C_MASTER.c ****         I2C_1_TX_FIFO_WR_REG = slaveAddress;
 428:.\Generated_Source\PSoC4/I2C_1_I2C_MASTER.c **** 
 429:.\Generated_Source\PSoC4/I2C_1_I2C_MASTER.c ****         /* Wait for address to be transferred */
 430:.\Generated_Source\PSoC4/I2C_1_I2C_MASTER.c ****         while(!I2C_1_CHECK_INTR_MASTER(I2C_1_INTR_MASTER_I2C_ACK      |
 431:.\Generated_Source\PSoC4/I2C_1_I2C_MASTER.c ****                                                   I2C_1_INTR_MASTER_I2C_NACK     |
 432:.\Generated_Source\PSoC4/I2C_1_I2C_MASTER.c ****                                                   I2C_1_INTR_MASTER_I2C_ARB_LOST |
 433:.\Generated_Source\PSoC4/I2C_1_I2C_MASTER.c ****                                                   I2C_1_INTR_MASTER_I2C_BUS_ERROR))
 434:.\Generated_Source\PSoC4/I2C_1_I2C_MASTER.c ****         {
 435:.\Generated_Source\PSoC4/I2C_1_I2C_MASTER.c ****             /* Wait until address has been transferred */
 436:.\Generated_Source\PSoC4/I2C_1_I2C_MASTER.c ****         }
 437:.\Generated_Source\PSoC4/I2C_1_I2C_MASTER.c **** 
 438:.\Generated_Source\PSoC4/I2C_1_I2C_MASTER.c ****         /* Check results of address phase */
 439:.\Generated_Source\PSoC4/I2C_1_I2C_MASTER.c ****         if(I2C_1_CHECK_INTR_MASTER(I2C_1_INTR_MASTER_I2C_ACK))
 440:.\Generated_Source\PSoC4/I2C_1_I2C_MASTER.c ****         {
 441:.\Generated_Source\PSoC4/I2C_1_I2C_MASTER.c ****             errStatus = I2C_1_I2C_MSTR_NO_ERROR;
 442:.\Generated_Source\PSoC4/I2C_1_I2C_MASTER.c ****         }
 443:.\Generated_Source\PSoC4/I2C_1_I2C_MASTER.c ****         else if(I2C_1_CHECK_INTR_MASTER(I2C_1_INTR_MASTER_I2C_NACK))
 444:.\Generated_Source\PSoC4/I2C_1_I2C_MASTER.c ****         {
 445:.\Generated_Source\PSoC4/I2C_1_I2C_MASTER.c ****              errStatus = I2C_1_I2C_MSTR_ERR_LB_NAK;
 446:.\Generated_Source\PSoC4/I2C_1_I2C_MASTER.c ****         }
 447:.\Generated_Source\PSoC4/I2C_1_I2C_MASTER.c ****         else if(I2C_1_CHECK_INTR_MASTER(I2C_1_INTR_MASTER_I2C_ARB_LOST))
 448:.\Generated_Source\PSoC4/I2C_1_I2C_MASTER.c ****         {
 449:.\Generated_Source\PSoC4/I2C_1_I2C_MASTER.c ****             I2C_1_state = I2C_1_I2C_FSM_IDLE;
 450:.\Generated_Source\PSoC4/I2C_1_I2C_MASTER.c ****                          errStatus = I2C_1_I2C_MSTR_ERR_ARB_LOST;
 451:.\Generated_Source\PSoC4/I2C_1_I2C_MASTER.c ****                          resetIp   = I2C_1_I2C_RESET_ERROR;
 452:.\Generated_Source\PSoC4/I2C_1_I2C_MASTER.c ****         }
 453:.\Generated_Source\PSoC4/I2C_1_I2C_MASTER.c ****         else /* I2C_1_INTR_MASTER_I2C_BUS_ERROR set is else condition */
 454:.\Generated_Source\PSoC4/I2C_1_I2C_MASTER.c ****         {
 455:.\Generated_Source\PSoC4/I2C_1_I2C_MASTER.c ****             I2C_1_state = I2C_1_I2C_FSM_IDLE;
 456:.\Generated_Source\PSoC4/I2C_1_I2C_MASTER.c ****                          errStatus = I2C_1_I2C_MSTR_ERR_BUS_ERR;
 457:.\Generated_Source\PSoC4/I2C_1_I2C_MASTER.c ****                          resetIp   = I2C_1_I2C_RESET_ERROR;
 458:.\Generated_Source\PSoC4/I2C_1_I2C_MASTER.c ****         }
 459:.\Generated_Source\PSoC4/I2C_1_I2C_MASTER.c **** 
 460:.\Generated_Source\PSoC4/I2C_1_I2C_MASTER.c ****         I2C_1_ClearMasterInterruptSource(I2C_1_INTR_MASTER_I2C_ACK      |
 461:.\Generated_Source\PSoC4/I2C_1_I2C_MASTER.c ****                                                     I2C_1_INTR_MASTER_I2C_NACK     |
 462:.\Generated_Source\PSoC4/I2C_1_I2C_MASTER.c ****                                                     I2C_1_INTR_MASTER_I2C_ARB_LOST |
 463:.\Generated_Source\PSoC4/I2C_1_I2C_MASTER.c ****                                                     I2C_1_INTR_MASTER_I2C_BUS_ERROR);
 464:.\Generated_Source\PSoC4/I2C_1_I2C_MASTER.c **** 
 465:.\Generated_Source\PSoC4/I2C_1_I2C_MASTER.c ****         /* Reset block in case of: LOST_ARB or BUS_ERR */
 466:.\Generated_Source\PSoC4/I2C_1_I2C_MASTER.c ****         if(0u != resetIp)
 467:.\Generated_Source\PSoC4/I2C_1_I2C_MASTER.c ****         {
 468:.\Generated_Source\PSoC4/I2C_1_I2C_MASTER.c ****             I2C_1_SCB_SW_RESET;
 469:.\Generated_Source\PSoC4/I2C_1_I2C_MASTER.c ****         }
 470:.\Generated_Source\PSoC4/I2C_1_I2C_MASTER.c ****     }
 471:.\Generated_Source\PSoC4/I2C_1_I2C_MASTER.c **** 
 472:.\Generated_Source\PSoC4/I2C_1_I2C_MASTER.c ****     return(errStatus);
 473:.\Generated_Source\PSoC4/I2C_1_I2C_MASTER.c **** }
 474:.\Generated_Source\PSoC4/I2C_1_I2C_MASTER.c **** 
 475:.\Generated_Source\PSoC4/I2C_1_I2C_MASTER.c **** 
 476:.\Generated_Source\PSoC4/I2C_1_I2C_MASTER.c **** /*******************************************************************************
 477:.\Generated_Source\PSoC4/I2C_1_I2C_MASTER.c **** * Function Name: I2C_1_I2CMasterSendStop
 478:.\Generated_Source\PSoC4/I2C_1_I2C_MASTER.c **** ********************************************************************************
 479:.\Generated_Source\PSoC4/I2C_1_I2C_MASTER.c **** *
 480:.\Generated_Source\PSoC4/I2C_1_I2C_MASTER.c **** * Summary:
 481:.\Generated_Source\PSoC4/I2C_1_I2C_MASTER.c **** *  Generates Stop condition on the bus.
ARM GAS  C:\Users\Milo\AppData\Local\Temp\ccfBxLki.s 			page 13


 482:.\Generated_Source\PSoC4/I2C_1_I2C_MASTER.c **** *  At least one byte has to be read if start or restart condition with read
 483:.\Generated_Source\PSoC4/I2C_1_I2C_MASTER.c **** *  direction was generated before.
 484:.\Generated_Source\PSoC4/I2C_1_I2C_MASTER.c **** *  This function is blocking and does not return until a stop condition
 485:.\Generated_Source\PSoC4/I2C_1_I2C_MASTER.c **** *  is generated or error occurred.
 486:.\Generated_Source\PSoC4/I2C_1_I2C_MASTER.c **** *
 487:.\Generated_Source\PSoC4/I2C_1_I2C_MASTER.c **** * Parameters:
 488:.\Generated_Source\PSoC4/I2C_1_I2C_MASTER.c **** *  None
 489:.\Generated_Source\PSoC4/I2C_1_I2C_MASTER.c **** *
 490:.\Generated_Source\PSoC4/I2C_1_I2C_MASTER.c **** * Return:
 491:.\Generated_Source\PSoC4/I2C_1_I2C_MASTER.c **** *  Error status
 492:.\Generated_Source\PSoC4/I2C_1_I2C_MASTER.c **** *
 493:.\Generated_Source\PSoC4/I2C_1_I2C_MASTER.c **** * Side Effects:
 494:.\Generated_Source\PSoC4/I2C_1_I2C_MASTER.c **** *  A valid Start or ReStart condition must be generated before calling
 495:.\Generated_Source\PSoC4/I2C_1_I2C_MASTER.c **** *  this function. This function does nothing if Start or ReStart condition
 496:.\Generated_Source\PSoC4/I2C_1_I2C_MASTER.c **** *  failed before this function was called.
 497:.\Generated_Source\PSoC4/I2C_1_I2C_MASTER.c **** *  For read transfer, at least one byte has to be read before Stop generation.
 498:.\Generated_Source\PSoC4/I2C_1_I2C_MASTER.c **** *
 499:.\Generated_Source\PSoC4/I2C_1_I2C_MASTER.c **** * Global variables:
 500:.\Generated_Source\PSoC4/I2C_1_I2C_MASTER.c **** *  I2C_1_state - used to store current state of software FSM.
 501:.\Generated_Source\PSoC4/I2C_1_I2C_MASTER.c **** *
 502:.\Generated_Source\PSoC4/I2C_1_I2C_MASTER.c **** *******************************************************************************/
 503:.\Generated_Source\PSoC4/I2C_1_I2C_MASTER.c **** uint32 I2C_1_I2CMasterSendStop(void)
 504:.\Generated_Source\PSoC4/I2C_1_I2C_MASTER.c **** {
 194              		.loc 1 504 0
 195              		.cfi_startproc
 196              	.LVL16:
 197 0000 10B5     		push	{r4, lr}
 198              	.LCFI1:
 199              		.cfi_def_cfa_offset 8
 200              		.cfi_offset 4, -8
 201              		.cfi_offset 14, -4
 505:.\Generated_Source\PSoC4/I2C_1_I2C_MASTER.c ****     uint32 resetIp;
 506:.\Generated_Source\PSoC4/I2C_1_I2C_MASTER.c ****     uint32 errStatus;
 507:.\Generated_Source\PSoC4/I2C_1_I2C_MASTER.c **** 
 508:.\Generated_Source\PSoC4/I2C_1_I2C_MASTER.c ****     resetIp   = 0u;
 509:.\Generated_Source\PSoC4/I2C_1_I2C_MASTER.c ****     errStatus = I2C_1_I2C_MSTR_NOT_READY;
 510:.\Generated_Source\PSoC4/I2C_1_I2C_MASTER.c **** 
 511:.\Generated_Source\PSoC4/I2C_1_I2C_MASTER.c ****     /* Check FSM state before generating Stop condition */
 512:.\Generated_Source\PSoC4/I2C_1_I2C_MASTER.c ****     if(I2C_1_CHECK_I2C_MASTER_ACTIVE)
 202              		.loc 1 512 0
 203 0002 194B     		ldr	r3, .L40
 204 0004 2022     		mov	r2, #32
 205 0006 1978     		ldrb	r1, [r3]
 206 0008 1C1C     		mov	r4, r3
 509:.\Generated_Source\PSoC4/I2C_1_I2C_MASTER.c ****     errStatus = I2C_1_I2C_MSTR_NOT_READY;
 207              		.loc 1 509 0
 208 000a 0420     		mov	r0, #4
 209              		.loc 1 512 0
 210 000c 1142     		tst	r1, r2
 211 000e 29D0     		beq	.L23
 513:.\Generated_Source\PSoC4/I2C_1_I2C_MASTER.c ****     {
 514:.\Generated_Source\PSoC4/I2C_1_I2C_MASTER.c ****         /*
 515:.\Generated_Source\PSoC4/I2C_1_I2C_MASTER.c ****         * Write direction: generates Stop
 516:.\Generated_Source\PSoC4/I2C_1_I2C_MASTER.c ****         * Read  direction: generates NACK and Stop
 517:.\Generated_Source\PSoC4/I2C_1_I2C_MASTER.c ****         */
 518:.\Generated_Source\PSoC4/I2C_1_I2C_MASTER.c ****         I2C_1_I2C_MASTER_GENERATE_STOP;
 212              		.loc 1 518 0
ARM GAS  C:\Users\Milo\AppData\Local\Temp\ccfBxLki.s 			page 14


 213 0010 1648     		ldr	r0, .L40+4
 214 0012 1023     		mov	r3, #16
 215 0014 0168     		ldr	r1, [r0]
 216 0016 1142     		tst	r1, r2
 217 0018 00D0     		beq	.L24
 218 001a 1823     		mov	r3, #24
 219              	.L24:
 220              		.loc 1 518 0 is_stmt 0 discriminator 3
 221 001c 144A     		ldr	r2, .L40+8
 222 001e 1360     		str	r3, [r2]
 223              	.L25:
 519:.\Generated_Source\PSoC4/I2C_1_I2C_MASTER.c **** 
 520:.\Generated_Source\PSoC4/I2C_1_I2C_MASTER.c ****         while(!I2C_1_CHECK_INTR_MASTER(I2C_1_INTR_MASTER_I2C_STOP     |
 224              		.loc 1 520 0 is_stmt 1 discriminator 1
 225 0020 144A     		ldr	r2, .L40+12
 226 0022 1549     		ldr	r1, .L40+16
 227 0024 1068     		ldr	r0, [r2]
 228 0026 0842     		tst	r0, r1
 229 0028 FAD0     		beq	.L25
 521:.\Generated_Source\PSoC4/I2C_1_I2C_MASTER.c ****                                                   I2C_1_INTR_MASTER_I2C_ARB_LOST |
 522:.\Generated_Source\PSoC4/I2C_1_I2C_MASTER.c ****                                                   I2C_1_INTR_MASTER_I2C_BUS_ERROR))
 523:.\Generated_Source\PSoC4/I2C_1_I2C_MASTER.c ****         {
 524:.\Generated_Source\PSoC4/I2C_1_I2C_MASTER.c ****             /* Wait until Stop has been generated */
 525:.\Generated_Source\PSoC4/I2C_1_I2C_MASTER.c ****         }
 526:.\Generated_Source\PSoC4/I2C_1_I2C_MASTER.c **** 
 527:.\Generated_Source\PSoC4/I2C_1_I2C_MASTER.c ****         /* Check Stop generation */
 528:.\Generated_Source\PSoC4/I2C_1_I2C_MASTER.c ****         if(I2C_1_CHECK_INTR_MASTER(I2C_1_INTR_MASTER_I2C_STOP))
 230              		.loc 1 528 0
 231 002a 1368     		ldr	r3, [r2]
 232 002c D806     		lsl	r0, r3, #27
 233 002e 05D4     		bmi	.L29
 529:.\Generated_Source\PSoC4/I2C_1_I2C_MASTER.c ****         {
 530:.\Generated_Source\PSoC4/I2C_1_I2C_MASTER.c ****             errStatus = I2C_1_I2C_MSTR_NO_ERROR;
 531:.\Generated_Source\PSoC4/I2C_1_I2C_MASTER.c ****         }
 532:.\Generated_Source\PSoC4/I2C_1_I2C_MASTER.c ****         else if(I2C_1_CHECK_INTR_MASTER(I2C_1_INTR_MASTER_I2C_ARB_LOST))
 234              		.loc 1 532 0
 235 0030 1068     		ldr	r0, [r2]
 236 0032 0123     		mov	r3, #1
 237 0034 1842     		tst	r0, r3
 238 0036 04D0     		beq	.L30
 533:.\Generated_Source\PSoC4/I2C_1_I2C_MASTER.c ****         {
 534:.\Generated_Source\PSoC4/I2C_1_I2C_MASTER.c ****             errStatus = I2C_1_I2C_MSTR_ERR_ARB_LOST;
 239              		.loc 1 534 0
 240 0038 181C     		mov	r0, r3
 241 003a 04E0     		b	.L26
 242              	.L29:
 530:.\Generated_Source\PSoC4/I2C_1_I2C_MASTER.c ****             errStatus = I2C_1_I2C_MSTR_NO_ERROR;
 243              		.loc 1 530 0
 244 003c 0020     		mov	r0, #0
 508:.\Generated_Source\PSoC4/I2C_1_I2C_MASTER.c ****     resetIp   = 0u;
 245              		.loc 1 508 0
 246 003e 031C     		mov	r3, r0
 247 0040 01E0     		b	.L26
 248              	.L30:
 535:.\Generated_Source\PSoC4/I2C_1_I2C_MASTER.c ****             resetIp   = I2C_1_I2C_RESET_ERROR;
 536:.\Generated_Source\PSoC4/I2C_1_I2C_MASTER.c ****         }
 537:.\Generated_Source\PSoC4/I2C_1_I2C_MASTER.c ****         else /* I2C_1_INTR_MASTER_I2C_BUS_ERROR is set */
ARM GAS  C:\Users\Milo\AppData\Local\Temp\ccfBxLki.s 			page 15


 538:.\Generated_Source\PSoC4/I2C_1_I2C_MASTER.c ****         {
 539:.\Generated_Source\PSoC4/I2C_1_I2C_MASTER.c ****             errStatus = I2C_1_I2C_MSTR_ERR_BUS_ERR;
 249              		.loc 1 539 0
 250 0042 8020     		mov	r0, #128
 251 0044 4000     		lsl	r0, r0, #1
 252              	.L26:
 253              	.LVL17:
 540:.\Generated_Source\PSoC4/I2C_1_I2C_MASTER.c ****             resetIp   = I2C_1_I2C_RESET_ERROR;
 541:.\Generated_Source\PSoC4/I2C_1_I2C_MASTER.c ****         }
 542:.\Generated_Source\PSoC4/I2C_1_I2C_MASTER.c **** 
 543:.\Generated_Source\PSoC4/I2C_1_I2C_MASTER.c ****         I2C_1_ClearMasterInterruptSource(I2C_1_INTR_MASTER_I2C_STOP     |
 254              		.loc 1 543 0
 255 0046 1160     		str	r1, [r2]
 544:.\Generated_Source\PSoC4/I2C_1_I2C_MASTER.c ****                                                     I2C_1_INTR_MASTER_I2C_ARB_LOST |
 545:.\Generated_Source\PSoC4/I2C_1_I2C_MASTER.c ****                                                     I2C_1_INTR_MASTER_I2C_BUS_ERROR);
 546:.\Generated_Source\PSoC4/I2C_1_I2C_MASTER.c **** 
 547:.\Generated_Source\PSoC4/I2C_1_I2C_MASTER.c ****         I2C_1_state = I2C_1_I2C_FSM_IDLE;
 256              		.loc 1 547 0
 257 0048 1022     		mov	r2, #16
 258 004a 2270     		strb	r2, [r4]
 548:.\Generated_Source\PSoC4/I2C_1_I2C_MASTER.c **** 
 549:.\Generated_Source\PSoC4/I2C_1_I2C_MASTER.c ****         /* Reset block in case of: LOST_ARB or BUS_ERR */
 550:.\Generated_Source\PSoC4/I2C_1_I2C_MASTER.c ****         if(0u != resetIp)
 259              		.loc 1 550 0
 260 004c 002B     		cmp	r3, #0
 261 004e 09D0     		beq	.L23
 551:.\Generated_Source\PSoC4/I2C_1_I2C_MASTER.c ****         {
 552:.\Generated_Source\PSoC4/I2C_1_I2C_MASTER.c ****             I2C_1_SCB_SW_RESET;
 262              		.loc 1 552 0
 263 0050 0A4C     		ldr	r4, .L40+20
 264 0052 2168     		ldr	r1, [r4]
 265 0054 4B00     		lsl	r3, r1, #1
 266              	.LVL18:
 267 0056 5A08     		lsr	r2, r3, #1
 268 0058 2260     		str	r2, [r4]
 269 005a 2168     		ldr	r1, [r4]
 270 005c 8023     		mov	r3, #128
 271 005e 1A06     		lsl	r2, r3, #24
 272 0060 0A43     		orr	r2, r1
 273 0062 2260     		str	r2, [r4]
 274              	.LVL19:
 275              	.L23:
 553:.\Generated_Source\PSoC4/I2C_1_I2C_MASTER.c ****         }
 554:.\Generated_Source\PSoC4/I2C_1_I2C_MASTER.c ****     }
 555:.\Generated_Source\PSoC4/I2C_1_I2C_MASTER.c **** 
 556:.\Generated_Source\PSoC4/I2C_1_I2C_MASTER.c ****     return(errStatus);
 557:.\Generated_Source\PSoC4/I2C_1_I2C_MASTER.c **** }
 276              		.loc 1 557 0
 277              		@ sp needed for prologue
 278 0064 10BD     		pop	{r4, pc}
 279              	.L41:
 280 0066 C046     		.align	2
 281              	.L40:
 282 0068 00000000 		.word	I2C_1_state
 283 006c 64000740 		.word	1074200676
 284 0070 68000740 		.word	1074200680
 285 0074 000F0740 		.word	1074204416
ARM GAS  C:\Users\Milo\AppData\Local\Temp\ccfBxLki.s 			page 16


 286 0078 11010000 		.word	273
 287 007c 00000740 		.word	1074200576
 288              		.cfi_endproc
 289              	.LFE4:
 290              		.size	I2C_1_I2CMasterSendStop, .-I2C_1_I2CMasterSendStop
 291              		.section	.text.I2C_1_I2CMasterWriteByte,"ax",%progbits
 292              		.align	1
 293              		.global	I2C_1_I2CMasterWriteByte
 294              		.code	16
 295              		.thumb_func
 296              		.type	I2C_1_I2CMasterWriteByte, %function
 297              	I2C_1_I2CMasterWriteByte:
 298              	.LFB5:
 558:.\Generated_Source\PSoC4/I2C_1_I2C_MASTER.c **** 
 559:.\Generated_Source\PSoC4/I2C_1_I2C_MASTER.c **** 
 560:.\Generated_Source\PSoC4/I2C_1_I2C_MASTER.c **** /*******************************************************************************
 561:.\Generated_Source\PSoC4/I2C_1_I2C_MASTER.c **** * Function Name: I2C_1_I2CMasterWriteByte
 562:.\Generated_Source\PSoC4/I2C_1_I2C_MASTER.c **** ********************************************************************************
 563:.\Generated_Source\PSoC4/I2C_1_I2C_MASTER.c **** *
 564:.\Generated_Source\PSoC4/I2C_1_I2C_MASTER.c **** * Summary:
 565:.\Generated_Source\PSoC4/I2C_1_I2C_MASTER.c **** *  Sends one byte to a slave.
 566:.\Generated_Source\PSoC4/I2C_1_I2C_MASTER.c **** *  This function is blocking and does not return until byte is transmitted
 567:.\Generated_Source\PSoC4/I2C_1_I2C_MASTER.c **** *  or error occurred.
 568:.\Generated_Source\PSoC4/I2C_1_I2C_MASTER.c **** *
 569:.\Generated_Source\PSoC4/I2C_1_I2C_MASTER.c **** * Parameters:
 570:.\Generated_Source\PSoC4/I2C_1_I2C_MASTER.c **** *  data: The data byte to send to the slave.
 571:.\Generated_Source\PSoC4/I2C_1_I2C_MASTER.c **** *
 572:.\Generated_Source\PSoC4/I2C_1_I2C_MASTER.c **** * Return:
 573:.\Generated_Source\PSoC4/I2C_1_I2C_MASTER.c **** *  Error status
 574:.\Generated_Source\PSoC4/I2C_1_I2C_MASTER.c **** *
 575:.\Generated_Source\PSoC4/I2C_1_I2C_MASTER.c **** * Side Effects:
 576:.\Generated_Source\PSoC4/I2C_1_I2C_MASTER.c **** *  A valid Start or ReStart condition must be generated before calling
 577:.\Generated_Source\PSoC4/I2C_1_I2C_MASTER.c **** *  this function. This function does nothing if Start or ReStart condition
 578:.\Generated_Source\PSoC4/I2C_1_I2C_MASTER.c **** *  failed before this function was called.
 579:.\Generated_Source\PSoC4/I2C_1_I2C_MASTER.c **** *
 580:.\Generated_Source\PSoC4/I2C_1_I2C_MASTER.c **** * Global variables:
 581:.\Generated_Source\PSoC4/I2C_1_I2C_MASTER.c **** *  I2C_1_state - used to store current state of software FSM.
 582:.\Generated_Source\PSoC4/I2C_1_I2C_MASTER.c **** *
 583:.\Generated_Source\PSoC4/I2C_1_I2C_MASTER.c **** *******************************************************************************/
 584:.\Generated_Source\PSoC4/I2C_1_I2C_MASTER.c **** uint32 I2C_1_I2CMasterWriteByte(uint32 theByte)
 585:.\Generated_Source\PSoC4/I2C_1_I2C_MASTER.c **** {
 299              		.loc 1 585 0
 300              		.cfi_startproc
 301              	.LVL20:
 302 0000 30B5     		push	{r4, r5, lr}
 303              	.LCFI2:
 304              		.cfi_def_cfa_offset 12
 305              		.cfi_offset 4, -12
 306              		.cfi_offset 5, -8
 307              		.cfi_offset 14, -4
 586:.\Generated_Source\PSoC4/I2C_1_I2C_MASTER.c ****     uint32 resetIp;
 587:.\Generated_Source\PSoC4/I2C_1_I2C_MASTER.c ****     uint32 errStatus;
 588:.\Generated_Source\PSoC4/I2C_1_I2C_MASTER.c **** 
 589:.\Generated_Source\PSoC4/I2C_1_I2C_MASTER.c ****     resetIp   = 0u;
 590:.\Generated_Source\PSoC4/I2C_1_I2C_MASTER.c ****     errStatus = I2C_1_I2C_MSTR_NOT_READY;
 591:.\Generated_Source\PSoC4/I2C_1_I2C_MASTER.c **** 
 592:.\Generated_Source\PSoC4/I2C_1_I2C_MASTER.c ****     /* Check FSM state before write byte */
ARM GAS  C:\Users\Milo\AppData\Local\Temp\ccfBxLki.s 			page 17


 593:.\Generated_Source\PSoC4/I2C_1_I2C_MASTER.c ****     if(I2C_1_CHECK_I2C_MASTER_ACTIVE)
 308              		.loc 1 593 0
 309 0002 1A49     		ldr	r1, .L58
 585:.\Generated_Source\PSoC4/I2C_1_I2C_MASTER.c **** {
 310              		.loc 1 585 0
 311 0004 021C     		mov	r2, r0
 312              		.loc 1 593 0
 313 0006 0B78     		ldrb	r3, [r1]
 590:.\Generated_Source\PSoC4/I2C_1_I2C_MASTER.c ****     errStatus = I2C_1_I2C_MSTR_NOT_READY;
 314              		.loc 1 590 0
 315 0008 0420     		mov	r0, #4
 316              	.LVL21:
 317              		.loc 1 593 0
 318 000a 9C06     		lsl	r4, r3, #26
 319 000c 2CD5     		bpl	.L43
 594:.\Generated_Source\PSoC4/I2C_1_I2C_MASTER.c ****     {
 595:.\Generated_Source\PSoC4/I2C_1_I2C_MASTER.c ****         I2C_1_TX_FIFO_WR_REG = theByte;
 320              		.loc 1 595 0
 321 000e 1848     		ldr	r0, .L58+4
 322 0010 0260     		str	r2, [r0]
 323              	.LVL22:
 324              	.L44:
 596:.\Generated_Source\PSoC4/I2C_1_I2C_MASTER.c **** 
 597:.\Generated_Source\PSoC4/I2C_1_I2C_MASTER.c ****         while(!I2C_1_CHECK_INTR_MASTER(I2C_1_INTR_MASTER_I2C_ACK      |
 325              		.loc 1 597 0 discriminator 1
 326 0012 184A     		ldr	r2, .L58+8
 327 0014 184C     		ldr	r4, .L58+12
 328 0016 1568     		ldr	r5, [r2]
 329 0018 2542     		tst	r5, r4
 330 001a FAD0     		beq	.L44
 598:.\Generated_Source\PSoC4/I2C_1_I2C_MASTER.c ****                                                   I2C_1_INTR_MASTER_I2C_NACK     |
 599:.\Generated_Source\PSoC4/I2C_1_I2C_MASTER.c ****                                                   I2C_1_INTR_MASTER_I2C_ARB_LOST |
 600:.\Generated_Source\PSoC4/I2C_1_I2C_MASTER.c ****                                                   I2C_1_INTR_MASTER_I2C_BUS_ERROR))
 601:.\Generated_Source\PSoC4/I2C_1_I2C_MASTER.c ****         {
 602:.\Generated_Source\PSoC4/I2C_1_I2C_MASTER.c ****             /* Wait until byte has been transferred */
 603:.\Generated_Source\PSoC4/I2C_1_I2C_MASTER.c ****         }
 604:.\Generated_Source\PSoC4/I2C_1_I2C_MASTER.c **** 
 605:.\Generated_Source\PSoC4/I2C_1_I2C_MASTER.c ****         /* Check the results after byte was sent */
 606:.\Generated_Source\PSoC4/I2C_1_I2C_MASTER.c ****         if(I2C_1_CHECK_INTR_MASTER(I2C_1_INTR_MASTER_I2C_ACK))
 331              		.loc 1 606 0
 332 001c 1068     		ldr	r0, [r2]
 333              	.LVL23:
 334 001e 0423     		mov	r3, #4
 335 0020 0340     		and	r3, r0
 336 0022 04D0     		beq	.L45
 607:.\Generated_Source\PSoC4/I2C_1_I2C_MASTER.c ****         {
 608:.\Generated_Source\PSoC4/I2C_1_I2C_MASTER.c ****             I2C_1_state = I2C_1_I2C_FSM_MSTR_HALT;
 337              		.loc 1 608 0
 338 0024 6023     		mov	r3, #96
 609:.\Generated_Source\PSoC4/I2C_1_I2C_MASTER.c ****                          errStatus = I2C_1_I2C_MSTR_NO_ERROR;
 339              		.loc 1 609 0
 340 0026 0020     		mov	r0, #0
 608:.\Generated_Source\PSoC4/I2C_1_I2C_MASTER.c ****             I2C_1_state = I2C_1_I2C_FSM_MSTR_HALT;
 341              		.loc 1 608 0
 342 0028 0B70     		strb	r3, [r1]
 343              	.LVL24:
 589:.\Generated_Source\PSoC4/I2C_1_I2C_MASTER.c ****     resetIp   = 0u;
ARM GAS  C:\Users\Milo\AppData\Local\Temp\ccfBxLki.s 			page 18


 344              		.loc 1 589 0
 345 002a 031C     		mov	r3, r0
 346 002c 0FE0     		b	.L46
 347              	.LVL25:
 348              	.L45:
 610:.\Generated_Source\PSoC4/I2C_1_I2C_MASTER.c ****         }
 611:.\Generated_Source\PSoC4/I2C_1_I2C_MASTER.c ****         else if(I2C_1_CHECK_INTR_MASTER(I2C_1_INTR_MASTER_I2C_NACK))
 349              		.loc 1 611 0
 350 002e 1568     		ldr	r5, [r2]
 351 0030 0220     		mov	r0, #2
 352 0032 0542     		tst	r5, r0
 353 0034 02D0     		beq	.L47
 612:.\Generated_Source\PSoC4/I2C_1_I2C_MASTER.c ****         {
 613:.\Generated_Source\PSoC4/I2C_1_I2C_MASTER.c ****             I2C_1_state = I2C_1_I2C_FSM_MSTR_HALT;
 354              		.loc 1 613 0
 355 0036 6025     		mov	r5, #96
 356 0038 0D70     		strb	r5, [r1]
 357              	.LVL26:
 358 003a 08E0     		b	.L46
 359              	.LVL27:
 360              	.L47:
 614:.\Generated_Source\PSoC4/I2C_1_I2C_MASTER.c ****                          errStatus = I2C_1_I2C_MSTR_ERR_LB_NAK;
 615:.\Generated_Source\PSoC4/I2C_1_I2C_MASTER.c ****         }
 616:.\Generated_Source\PSoC4/I2C_1_I2C_MASTER.c ****         else if(I2C_1_CHECK_INTR_MASTER(I2C_1_INTR_MASTER_I2C_ARB_LOST))
 361              		.loc 1 616 0
 362 003c 1568     		ldr	r5, [r2]
 363 003e 1020     		mov	r0, #16
 364 0040 0123     		mov	r3, #1
 617:.\Generated_Source\PSoC4/I2C_1_I2C_MASTER.c ****         {
 618:.\Generated_Source\PSoC4/I2C_1_I2C_MASTER.c ****             I2C_1_state = I2C_1_I2C_FSM_IDLE;
 365              		.loc 1 618 0
 366 0042 0870     		strb	r0, [r1]
 619:.\Generated_Source\PSoC4/I2C_1_I2C_MASTER.c ****                          errStatus = I2C_1_I2C_MSTR_ERR_ARB_LOST;
 367              		.loc 1 619 0
 368 0044 181C     		mov	r0, r3
 616:.\Generated_Source\PSoC4/I2C_1_I2C_MASTER.c ****         else if(I2C_1_CHECK_INTR_MASTER(I2C_1_INTR_MASTER_I2C_ARB_LOST))
 369              		.loc 1 616 0
 370 0046 1D42     		tst	r5, r3
 371 0048 01D1     		bne	.L46
 372              	.LVL28:
 620:.\Generated_Source\PSoC4/I2C_1_I2C_MASTER.c ****                          resetIp   = I2C_1_I2C_RESET_ERROR;
 621:.\Generated_Source\PSoC4/I2C_1_I2C_MASTER.c ****         }
 622:.\Generated_Source\PSoC4/I2C_1_I2C_MASTER.c ****         else /* I2C_1_INTR_MASTER_I2C_BUS_ERROR set is */
 623:.\Generated_Source\PSoC4/I2C_1_I2C_MASTER.c ****         {
 624:.\Generated_Source\PSoC4/I2C_1_I2C_MASTER.c ****             I2C_1_state = I2C_1_I2C_FSM_IDLE;
 625:.\Generated_Source\PSoC4/I2C_1_I2C_MASTER.c ****                          errStatus = I2C_1_I2C_MSTR_ERR_BUS_ERR;
 373              		.loc 1 625 0
 374 004a 8021     		mov	r1, #128
 375 004c 4800     		lsl	r0, r1, #1
 376              	.LVL29:
 377              	.L46:
 626:.\Generated_Source\PSoC4/I2C_1_I2C_MASTER.c ****                          resetIp   = I2C_1_I2C_RESET_ERROR;
 627:.\Generated_Source\PSoC4/I2C_1_I2C_MASTER.c ****         }
 628:.\Generated_Source\PSoC4/I2C_1_I2C_MASTER.c **** 
 629:.\Generated_Source\PSoC4/I2C_1_I2C_MASTER.c ****         I2C_1_ClearMasterInterruptSource(I2C_1_INTR_MASTER_I2C_ACK      |
 378              		.loc 1 629 0
 379 004e 1460     		str	r4, [r2]
ARM GAS  C:\Users\Milo\AppData\Local\Temp\ccfBxLki.s 			page 19


 630:.\Generated_Source\PSoC4/I2C_1_I2C_MASTER.c ****                                                     I2C_1_INTR_MASTER_I2C_NACK     |
 631:.\Generated_Source\PSoC4/I2C_1_I2C_MASTER.c ****                                                     I2C_1_INTR_MASTER_I2C_ARB_LOST |
 632:.\Generated_Source\PSoC4/I2C_1_I2C_MASTER.c ****                                                     I2C_1_INTR_MASTER_I2C_BUS_ERROR);
 633:.\Generated_Source\PSoC4/I2C_1_I2C_MASTER.c **** 
 634:.\Generated_Source\PSoC4/I2C_1_I2C_MASTER.c ****         /* Reset block in case of: LOST_ARB or BUS_ERR */
 635:.\Generated_Source\PSoC4/I2C_1_I2C_MASTER.c ****         if(0u != resetIp)
 380              		.loc 1 635 0
 381 0050 002B     		cmp	r3, #0
 382 0052 09D0     		beq	.L43
 636:.\Generated_Source\PSoC4/I2C_1_I2C_MASTER.c ****         {
 637:.\Generated_Source\PSoC4/I2C_1_I2C_MASTER.c ****             I2C_1_SCB_SW_RESET;
 383              		.loc 1 637 0
 384 0054 094C     		ldr	r4, .L58+16
 385 0056 2268     		ldr	r2, [r4]
 386 0058 5100     		lsl	r1, r2, #1
 387 005a 4D08     		lsr	r5, r1, #1
 388 005c 2560     		str	r5, [r4]
 389 005e 2368     		ldr	r3, [r4]
 390              	.LVL30:
 391 0060 8022     		mov	r2, #128
 392 0062 1106     		lsl	r1, r2, #24
 393 0064 1943     		orr	r1, r3
 394 0066 2160     		str	r1, [r4]
 395              	.LVL31:
 396              	.L43:
 638:.\Generated_Source\PSoC4/I2C_1_I2C_MASTER.c ****         }
 639:.\Generated_Source\PSoC4/I2C_1_I2C_MASTER.c ****     }
 640:.\Generated_Source\PSoC4/I2C_1_I2C_MASTER.c **** 
 641:.\Generated_Source\PSoC4/I2C_1_I2C_MASTER.c ****     return(errStatus);
 642:.\Generated_Source\PSoC4/I2C_1_I2C_MASTER.c **** }
 397              		.loc 1 642 0
 398              		@ sp needed for prologue
 399 0068 30BD     		pop	{r4, r5, pc}
 400              	.L59:
 401 006a C046     		.align	2
 402              	.L58:
 403 006c 00000000 		.word	I2C_1_state
 404 0070 40020740 		.word	1074201152
 405 0074 000F0740 		.word	1074204416
 406 0078 07010000 		.word	263
 407 007c 00000740 		.word	1074200576
 408              		.cfi_endproc
 409              	.LFE5:
 410              		.size	I2C_1_I2CMasterWriteByte, .-I2C_1_I2CMasterWriteByte
 411              		.section	.text.I2C_1_I2CMasterReadByte,"ax",%progbits
 412              		.align	1
 413              		.global	I2C_1_I2CMasterReadByte
 414              		.code	16
 415              		.thumb_func
 416              		.type	I2C_1_I2CMasterReadByte, %function
 417              	I2C_1_I2CMasterReadByte:
 418              	.LFB6:
 643:.\Generated_Source\PSoC4/I2C_1_I2C_MASTER.c **** 
 644:.\Generated_Source\PSoC4/I2C_1_I2C_MASTER.c **** 
 645:.\Generated_Source\PSoC4/I2C_1_I2C_MASTER.c **** /*******************************************************************************
 646:.\Generated_Source\PSoC4/I2C_1_I2C_MASTER.c **** * Function Name: I2C_1_I2CMasterReadByte
 647:.\Generated_Source\PSoC4/I2C_1_I2C_MASTER.c **** ********************************************************************************
ARM GAS  C:\Users\Milo\AppData\Local\Temp\ccfBxLki.s 			page 20


 648:.\Generated_Source\PSoC4/I2C_1_I2C_MASTER.c **** *
 649:.\Generated_Source\PSoC4/I2C_1_I2C_MASTER.c **** * Summary:
 650:.\Generated_Source\PSoC4/I2C_1_I2C_MASTER.c **** *  Reads one byte from a slave and ACKs or NAKs received byte.
 651:.\Generated_Source\PSoC4/I2C_1_I2C_MASTER.c **** *  This function does not generate NAK explicitly. The following call
 652:.\Generated_Source\PSoC4/I2C_1_I2C_MASTER.c **** *  SCB_I2CMasterSendStop() or SCB_I2CMasterSendRestart() will generate NAK and
 653:.\Generated_Source\PSoC4/I2C_1_I2C_MASTER.c **** *  Stop or ReStart condition appropriately.
 654:.\Generated_Source\PSoC4/I2C_1_I2C_MASTER.c **** *  This function is blocking and does not return until byte is received
 655:.\Generated_Source\PSoC4/I2C_1_I2C_MASTER.c **** *  or error occurred.
 656:.\Generated_Source\PSoC4/I2C_1_I2C_MASTER.c **** *
 657:.\Generated_Source\PSoC4/I2C_1_I2C_MASTER.c **** * Parameters:
 658:.\Generated_Source\PSoC4/I2C_1_I2C_MASTER.c **** *  ackNack: Response to received byte.
 659:.\Generated_Source\PSoC4/I2C_1_I2C_MASTER.c **** *
 660:.\Generated_Source\PSoC4/I2C_1_I2C_MASTER.c **** * Return:
 661:.\Generated_Source\PSoC4/I2C_1_I2C_MASTER.c **** *  Byte read from the slave. In case of error the MSB of returned data
 662:.\Generated_Source\PSoC4/I2C_1_I2C_MASTER.c **** *  is set to 1.
 663:.\Generated_Source\PSoC4/I2C_1_I2C_MASTER.c **** *
 664:.\Generated_Source\PSoC4/I2C_1_I2C_MASTER.c **** * Side Effects:
 665:.\Generated_Source\PSoC4/I2C_1_I2C_MASTER.c **** *  A valid Start or ReStart condition must be generated before calling this
 666:.\Generated_Source\PSoC4/I2C_1_I2C_MASTER.c **** *  function. This function does nothing and returns invalid byte value
 667:.\Generated_Source\PSoC4/I2C_1_I2C_MASTER.c **** *  if Start or ReStart conditions failed before this function was called.
 668:.\Generated_Source\PSoC4/I2C_1_I2C_MASTER.c **** *
 669:.\Generated_Source\PSoC4/I2C_1_I2C_MASTER.c **** * Global variables:
 670:.\Generated_Source\PSoC4/I2C_1_I2C_MASTER.c **** *  I2C_1_state - used to store current state of software FSM.
 671:.\Generated_Source\PSoC4/I2C_1_I2C_MASTER.c **** *
 672:.\Generated_Source\PSoC4/I2C_1_I2C_MASTER.c **** *******************************************************************************/
 673:.\Generated_Source\PSoC4/I2C_1_I2C_MASTER.c **** uint32 I2C_1_I2CMasterReadByte(uint32 ackNack)
 674:.\Generated_Source\PSoC4/I2C_1_I2C_MASTER.c **** {
 419              		.loc 1 674 0
 420              		.cfi_startproc
 421              	.LVL32:
 422 0000 10B5     		push	{r4, lr}
 423              	.LCFI3:
 424              		.cfi_def_cfa_offset 8
 425              		.cfi_offset 4, -8
 426              		.cfi_offset 14, -4
 675:.\Generated_Source\PSoC4/I2C_1_I2C_MASTER.c ****     uint32 theByte;
 676:.\Generated_Source\PSoC4/I2C_1_I2C_MASTER.c **** 
 677:.\Generated_Source\PSoC4/I2C_1_I2C_MASTER.c ****     /* Return invalid byte in case BUS_ERR happen during receiving */
 678:.\Generated_Source\PSoC4/I2C_1_I2C_MASTER.c ****     theByte = I2C_1_I2C_INVALID_BYTE;
 679:.\Generated_Source\PSoC4/I2C_1_I2C_MASTER.c **** 
 680:.\Generated_Source\PSoC4/I2C_1_I2C_MASTER.c ****     /* Check FSM state before read byte */
 681:.\Generated_Source\PSoC4/I2C_1_I2C_MASTER.c ****     if(I2C_1_CHECK_I2C_MASTER_ACTIVE)
 427              		.loc 1 681 0
 428 0002 174B     		ldr	r3, .L72
 674:.\Generated_Source\PSoC4/I2C_1_I2C_MASTER.c **** {
 429              		.loc 1 674 0
 430 0004 011C     		mov	r1, r0
 431              		.loc 1 681 0
 432 0006 1878     		ldrb	r0, [r3]
 433              	.LVL33:
 434 0008 1A1C     		mov	r2, r3
 435 000a 8306     		lsl	r3, r0, #26
 436 000c 25D5     		bpl	.L66
 437              	.L69:
 682:.\Generated_Source\PSoC4/I2C_1_I2C_MASTER.c ****     {
 683:.\Generated_Source\PSoC4/I2C_1_I2C_MASTER.c ****         while((!I2C_1_CHECK_INTR_RX(I2C_1_INTR_RX_NOT_EMPTY)) &&
 438              		.loc 1 683 0
ARM GAS  C:\Users\Milo\AppData\Local\Temp\ccfBxLki.s 			page 21


 439 000e 154B     		ldr	r3, .L72+4
 440 0010 1C68     		ldr	r4, [r3]
 441 0012 6407     		lsl	r4, r4, #29
 442 0014 04D4     		bmi	.L62
 684:.\Generated_Source\PSoC4/I2C_1_I2C_MASTER.c ****               (!I2C_1_CHECK_INTR_MASTER(I2C_1_INTR_MASTER_I2C_ARB_LOST |
 443              		.loc 1 684 0 discriminator 2
 444 0016 1448     		ldr	r0, .L72+8
 445 0018 0468     		ldr	r4, [r0]
 683:.\Generated_Source\PSoC4/I2C_1_I2C_MASTER.c ****         while((!I2C_1_CHECK_INTR_RX(I2C_1_INTR_RX_NOT_EMPTY)) &&
 446              		.loc 1 683 0 discriminator 2
 447 001a 1448     		ldr	r0, .L72+12
 448 001c 0442     		tst	r4, r0
 449 001e F6D0     		beq	.L69
 450              	.L62:
 685:.\Generated_Source\PSoC4/I2C_1_I2C_MASTER.c ****                                                   I2C_1_INTR_MASTER_I2C_BUS_ERROR)))
 686:.\Generated_Source\PSoC4/I2C_1_I2C_MASTER.c ****         {
 687:.\Generated_Source\PSoC4/I2C_1_I2C_MASTER.c ****             /* Wait until byte has been received */
 688:.\Generated_Source\PSoC4/I2C_1_I2C_MASTER.c ****         }
 689:.\Generated_Source\PSoC4/I2C_1_I2C_MASTER.c **** 
 690:.\Generated_Source\PSoC4/I2C_1_I2C_MASTER.c ****         /* Check the results after the byte was sent */
 691:.\Generated_Source\PSoC4/I2C_1_I2C_MASTER.c ****         if(I2C_1_CHECK_INTR_RX(I2C_1_INTR_RX_NOT_EMPTY))
 451              		.loc 1 691 0
 452 0020 1C68     		ldr	r4, [r3]
 453 0022 0423     		mov	r3, #4
 454 0024 1C42     		tst	r4, r3
 455 0026 0BD0     		beq	.L64
 692:.\Generated_Source\PSoC4/I2C_1_I2C_MASTER.c ****         {
 693:.\Generated_Source\PSoC4/I2C_1_I2C_MASTER.c ****             theByte = I2C_1_RX_FIFO_RD_REG;
 456              		.loc 1 693 0
 457 0028 114C     		ldr	r4, .L72+16
 458 002a 2068     		ldr	r0, [r4]
 459              	.LVL34:
 694:.\Generated_Source\PSoC4/I2C_1_I2C_MASTER.c **** 
 695:.\Generated_Source\PSoC4/I2C_1_I2C_MASTER.c ****             I2C_1_ClearRxInterruptSource(I2C_1_INTR_RX_NOT_EMPTY);
 460              		.loc 1 695 0
 461 002c 0D4C     		ldr	r4, .L72+4
 462 002e 2360     		str	r3, [r4]
 696:.\Generated_Source\PSoC4/I2C_1_I2C_MASTER.c **** 
 697:.\Generated_Source\PSoC4/I2C_1_I2C_MASTER.c ****             if(0u == ackNack)
 463              		.loc 1 697 0
 464 0030 0029     		cmp	r1, #0
 465 0032 02D1     		bne	.L65
 698:.\Generated_Source\PSoC4/I2C_1_I2C_MASTER.c ****             {
 699:.\Generated_Source\PSoC4/I2C_1_I2C_MASTER.c ****                 I2C_1_I2C_MASTER_GENERATE_ACK;
 466              		.loc 1 699 0
 467 0034 0F4A     		ldr	r2, .L72+20
 468 0036 1360     		str	r3, [r2]
 469 0038 11E0     		b	.L61
 470              	.L65:
 700:.\Generated_Source\PSoC4/I2C_1_I2C_MASTER.c ****             }
 701:.\Generated_Source\PSoC4/I2C_1_I2C_MASTER.c ****             else
 702:.\Generated_Source\PSoC4/I2C_1_I2C_MASTER.c ****             {
 703:.\Generated_Source\PSoC4/I2C_1_I2C_MASTER.c ****                 /* NACK is generated by Stop or ReStart command*/
 704:.\Generated_Source\PSoC4/I2C_1_I2C_MASTER.c ****                 I2C_1_state = I2C_1_I2C_FSM_MSTR_HALT;
 471              		.loc 1 704 0
 472 003a 6021     		mov	r1, #96
 473              	.LVL35:
ARM GAS  C:\Users\Milo\AppData\Local\Temp\ccfBxLki.s 			page 22


 474 003c 1170     		strb	r1, [r2]
 475 003e 0EE0     		b	.L61
 476              	.LVL36:
 477              	.L64:
 705:.\Generated_Source\PSoC4/I2C_1_I2C_MASTER.c ****             }
 706:.\Generated_Source\PSoC4/I2C_1_I2C_MASTER.c ****         }
 707:.\Generated_Source\PSoC4/I2C_1_I2C_MASTER.c ****         else
 708:.\Generated_Source\PSoC4/I2C_1_I2C_MASTER.c ****         {
 709:.\Generated_Source\PSoC4/I2C_1_I2C_MASTER.c ****             I2C_1_ClearMasterInterruptSource(I2C_1_INTR_MASTER_ALL);
 478              		.loc 1 709 0
 479 0040 0D49     		ldr	r1, .L72+24
 480              	.LVL37:
 481 0042 094A     		ldr	r2, .L72+8
 710:.\Generated_Source\PSoC4/I2C_1_I2C_MASTER.c **** 
 711:.\Generated_Source\PSoC4/I2C_1_I2C_MASTER.c ****             /* Reset block in case of: LOST_ARB or BUS_ERR */
 712:.\Generated_Source\PSoC4/I2C_1_I2C_MASTER.c ****             I2C_1_SCB_SW_RESET;
 482              		.loc 1 712 0
 483 0044 0D48     		ldr	r0, .L72+28
 709:.\Generated_Source\PSoC4/I2C_1_I2C_MASTER.c ****             I2C_1_ClearMasterInterruptSource(I2C_1_INTR_MASTER_ALL);
 484              		.loc 1 709 0
 485 0046 1160     		str	r1, [r2]
 486              		.loc 1 712 0
 487 0048 0468     		ldr	r4, [r0]
 488 004a 8022     		mov	r2, #128
 489 004c 6300     		lsl	r3, r4, #1
 490 004e 5908     		lsr	r1, r3, #1
 491 0050 0160     		str	r1, [r0]
 492 0052 0468     		ldr	r4, [r0]
 493 0054 1306     		lsl	r3, r2, #24
 494 0056 2343     		orr	r3, r4
 495 0058 0360     		str	r3, [r0]
 496              	.L66:
 678:.\Generated_Source\PSoC4/I2C_1_I2C_MASTER.c ****     theByte = I2C_1_I2C_INVALID_BYTE;
 497              		.loc 1 678 0
 498 005a 0120     		mov	r0, #1
 499 005c 4042     		neg	r0, r0
 500              	.LVL38:
 501              	.L61:
 713:.\Generated_Source\PSoC4/I2C_1_I2C_MASTER.c ****         }
 714:.\Generated_Source\PSoC4/I2C_1_I2C_MASTER.c ****     }
 715:.\Generated_Source\PSoC4/I2C_1_I2C_MASTER.c **** 
 716:.\Generated_Source\PSoC4/I2C_1_I2C_MASTER.c ****     return(theByte);
 717:.\Generated_Source\PSoC4/I2C_1_I2C_MASTER.c **** }
 502              		.loc 1 717 0
 503              		@ sp needed for prologue
 504 005e 10BD     		pop	{r4, pc}
 505              	.L73:
 506              		.align	2
 507              	.L72:
 508 0060 00000000 		.word	I2C_1_state
 509 0064 C00F0740 		.word	1074204608
 510 0068 000F0740 		.word	1074204416
 511 006c 01010000 		.word	257
 512 0070 40030740 		.word	1074201408
 513 0074 68000740 		.word	1074200680
 514 0078 17030000 		.word	791
 515 007c 00000740 		.word	1074200576
ARM GAS  C:\Users\Milo\AppData\Local\Temp\ccfBxLki.s 			page 23


 516              		.cfi_endproc
 517              	.LFE6:
 518              		.size	I2C_1_I2CMasterReadByte, .-I2C_1_I2CMasterReadByte
 519              		.section	.text.I2C_1_I2CMasterGetReadBufSize,"ax",%progbits
 520              		.align	1
 521              		.global	I2C_1_I2CMasterGetReadBufSize
 522              		.code	16
 523              		.thumb_func
 524              		.type	I2C_1_I2CMasterGetReadBufSize, %function
 525              	I2C_1_I2CMasterGetReadBufSize:
 526              	.LFB7:
 718:.\Generated_Source\PSoC4/I2C_1_I2C_MASTER.c **** 
 719:.\Generated_Source\PSoC4/I2C_1_I2C_MASTER.c **** 
 720:.\Generated_Source\PSoC4/I2C_1_I2C_MASTER.c **** /*******************************************************************************
 721:.\Generated_Source\PSoC4/I2C_1_I2C_MASTER.c **** * Function Name: I2C_1_I2CMasterGetReadBufSize
 722:.\Generated_Source\PSoC4/I2C_1_I2C_MASTER.c **** ********************************************************************************
 723:.\Generated_Source\PSoC4/I2C_1_I2C_MASTER.c **** *
 724:.\Generated_Source\PSoC4/I2C_1_I2C_MASTER.c **** * Summary:
 725:.\Generated_Source\PSoC4/I2C_1_I2C_MASTER.c **** *  Returns the number of bytes that has been transferred with an
 726:.\Generated_Source\PSoC4/I2C_1_I2C_MASTER.c **** *  SCB_I2CMasterReadBuf() function.
 727:.\Generated_Source\PSoC4/I2C_1_I2C_MASTER.c **** *
 728:.\Generated_Source\PSoC4/I2C_1_I2C_MASTER.c **** * Parameters:
 729:.\Generated_Source\PSoC4/I2C_1_I2C_MASTER.c **** *  None
 730:.\Generated_Source\PSoC4/I2C_1_I2C_MASTER.c **** *
 731:.\Generated_Source\PSoC4/I2C_1_I2C_MASTER.c **** * Return:
 732:.\Generated_Source\PSoC4/I2C_1_I2C_MASTER.c **** *  Byte count of transfer. If the transfer is not yet complete, it returns
 733:.\Generated_Source\PSoC4/I2C_1_I2C_MASTER.c **** *  the byte count transferred so far.
 734:.\Generated_Source\PSoC4/I2C_1_I2C_MASTER.c **** *
 735:.\Generated_Source\PSoC4/I2C_1_I2C_MASTER.c **** * Side Effects:
 736:.\Generated_Source\PSoC4/I2C_1_I2C_MASTER.c **** *  This function returns not valid value if SCB_I2C_MSTAT_ERR_ARB_LOST
 737:.\Generated_Source\PSoC4/I2C_1_I2C_MASTER.c **** *  or SCB_I2C_MSTAT_ERR_BUS_ERROR occurred while read transfer.
 738:.\Generated_Source\PSoC4/I2C_1_I2C_MASTER.c **** *
 739:.\Generated_Source\PSoC4/I2C_1_I2C_MASTER.c **** * Global variables:
 740:.\Generated_Source\PSoC4/I2C_1_I2C_MASTER.c **** *  I2C_1_mstrRdBufIndex - used to current index within master read
 741:.\Generated_Source\PSoC4/I2C_1_I2C_MASTER.c **** *  buffer.
 742:.\Generated_Source\PSoC4/I2C_1_I2C_MASTER.c **** *
 743:.\Generated_Source\PSoC4/I2C_1_I2C_MASTER.c **** *******************************************************************************/
 744:.\Generated_Source\PSoC4/I2C_1_I2C_MASTER.c **** uint32 I2C_1_I2CMasterGetReadBufSize(void)
 745:.\Generated_Source\PSoC4/I2C_1_I2C_MASTER.c **** {
 527              		.loc 1 745 0
 528              		.cfi_startproc
 746:.\Generated_Source\PSoC4/I2C_1_I2C_MASTER.c ****     return(I2C_1_mstrRdBufIndex);
 529              		.loc 1 746 0
 530 0000 014B     		ldr	r3, .L75
 747:.\Generated_Source\PSoC4/I2C_1_I2C_MASTER.c **** }
 531              		.loc 1 747 0
 532              		@ sp needed for prologue
 746:.\Generated_Source\PSoC4/I2C_1_I2C_MASTER.c ****     return(I2C_1_mstrRdBufIndex);
 533              		.loc 1 746 0
 534 0002 1868     		ldr	r0, [r3]
 535              		.loc 1 747 0
 536 0004 7047     		bx	lr
 537              	.L76:
 538 0006 C046     		.align	2
 539              	.L75:
 540 0008 00000000 		.word	I2C_1_mstrRdBufIndex
 541              		.cfi_endproc
ARM GAS  C:\Users\Milo\AppData\Local\Temp\ccfBxLki.s 			page 24


 542              	.LFE7:
 543              		.size	I2C_1_I2CMasterGetReadBufSize, .-I2C_1_I2CMasterGetReadBufSize
 544              		.section	.text.I2C_1_I2CMasterGetWriteBufSize,"ax",%progbits
 545              		.align	1
 546              		.global	I2C_1_I2CMasterGetWriteBufSize
 547              		.code	16
 548              		.thumb_func
 549              		.type	I2C_1_I2CMasterGetWriteBufSize, %function
 550              	I2C_1_I2CMasterGetWriteBufSize:
 551              	.LFB8:
 748:.\Generated_Source\PSoC4/I2C_1_I2C_MASTER.c **** 
 749:.\Generated_Source\PSoC4/I2C_1_I2C_MASTER.c **** 
 750:.\Generated_Source\PSoC4/I2C_1_I2C_MASTER.c **** /*******************************************************************************
 751:.\Generated_Source\PSoC4/I2C_1_I2C_MASTER.c **** * Function Name: I2C_1_I2CMasterGetWriteBufSize
 752:.\Generated_Source\PSoC4/I2C_1_I2C_MASTER.c **** ********************************************************************************
 753:.\Generated_Source\PSoC4/I2C_1_I2C_MASTER.c **** *
 754:.\Generated_Source\PSoC4/I2C_1_I2C_MASTER.c **** * Summary:
 755:.\Generated_Source\PSoC4/I2C_1_I2C_MASTER.c **** *  Returns the number of bytes that have been transferred with an
 756:.\Generated_Source\PSoC4/I2C_1_I2C_MASTER.c **** *  SCB_I2CMasterWriteBuf() function.
 757:.\Generated_Source\PSoC4/I2C_1_I2C_MASTER.c **** *
 758:.\Generated_Source\PSoC4/I2C_1_I2C_MASTER.c **** * Parameters:
 759:.\Generated_Source\PSoC4/I2C_1_I2C_MASTER.c **** *  None
 760:.\Generated_Source\PSoC4/I2C_1_I2C_MASTER.c **** *
 761:.\Generated_Source\PSoC4/I2C_1_I2C_MASTER.c **** * Return:
 762:.\Generated_Source\PSoC4/I2C_1_I2C_MASTER.c **** *  Byte count of transfer. If the transfer is not yet complete, it returns
 763:.\Generated_Source\PSoC4/I2C_1_I2C_MASTER.c **** *  zero unit transfer completion.
 764:.\Generated_Source\PSoC4/I2C_1_I2C_MASTER.c **** *
 765:.\Generated_Source\PSoC4/I2C_1_I2C_MASTER.c **** * Side Effects:
 766:.\Generated_Source\PSoC4/I2C_1_I2C_MASTER.c **** *  This function returns not valid value if SCB_I2C_MSTAT_ERR_ARB_LOST
 767:.\Generated_Source\PSoC4/I2C_1_I2C_MASTER.c **** *  or SCB_I2C_MSTAT_ERR_BUS_ERROR occurred while read transfer.
 768:.\Generated_Source\PSoC4/I2C_1_I2C_MASTER.c **** *
 769:.\Generated_Source\PSoC4/I2C_1_I2C_MASTER.c **** * Global variables:
 770:.\Generated_Source\PSoC4/I2C_1_I2C_MASTER.c **** *  I2C_1_mstrWrBufIndex - used to current index within master write
 771:.\Generated_Source\PSoC4/I2C_1_I2C_MASTER.c **** *  buffer.
 772:.\Generated_Source\PSoC4/I2C_1_I2C_MASTER.c **** *
 773:.\Generated_Source\PSoC4/I2C_1_I2C_MASTER.c **** *******************************************************************************/
 774:.\Generated_Source\PSoC4/I2C_1_I2C_MASTER.c **** uint32 I2C_1_I2CMasterGetWriteBufSize(void)
 775:.\Generated_Source\PSoC4/I2C_1_I2C_MASTER.c **** {
 552              		.loc 1 775 0
 553              		.cfi_startproc
 776:.\Generated_Source\PSoC4/I2C_1_I2C_MASTER.c ****     return(I2C_1_mstrWrBufIndex);
 554              		.loc 1 776 0
 555 0000 014B     		ldr	r3, .L78
 777:.\Generated_Source\PSoC4/I2C_1_I2C_MASTER.c **** }
 556              		.loc 1 777 0
 557              		@ sp needed for prologue
 776:.\Generated_Source\PSoC4/I2C_1_I2C_MASTER.c ****     return(I2C_1_mstrWrBufIndex);
 558              		.loc 1 776 0
 559 0002 1868     		ldr	r0, [r3]
 560              		.loc 1 777 0
 561 0004 7047     		bx	lr
 562              	.L79:
 563 0006 C046     		.align	2
 564              	.L78:
 565 0008 00000000 		.word	I2C_1_mstrWrBufIndex
 566              		.cfi_endproc
 567              	.LFE8:
ARM GAS  C:\Users\Milo\AppData\Local\Temp\ccfBxLki.s 			page 25


 568              		.size	I2C_1_I2CMasterGetWriteBufSize, .-I2C_1_I2CMasterGetWriteBufSize
 569              		.section	.text.I2C_1_I2CMasterClearReadBuf,"ax",%progbits
 570              		.align	1
 571              		.global	I2C_1_I2CMasterClearReadBuf
 572              		.code	16
 573              		.thumb_func
 574              		.type	I2C_1_I2CMasterClearReadBuf, %function
 575              	I2C_1_I2CMasterClearReadBuf:
 576              	.LFB9:
 778:.\Generated_Source\PSoC4/I2C_1_I2C_MASTER.c **** 
 779:.\Generated_Source\PSoC4/I2C_1_I2C_MASTER.c **** 
 780:.\Generated_Source\PSoC4/I2C_1_I2C_MASTER.c **** /*******************************************************************************
 781:.\Generated_Source\PSoC4/I2C_1_I2C_MASTER.c **** * Function Name: I2C_1_I2CMasterClearReadBuf
 782:.\Generated_Source\PSoC4/I2C_1_I2C_MASTER.c **** ********************************************************************************
 783:.\Generated_Source\PSoC4/I2C_1_I2C_MASTER.c **** *
 784:.\Generated_Source\PSoC4/I2C_1_I2C_MASTER.c **** * Summary:
 785:.\Generated_Source\PSoC4/I2C_1_I2C_MASTER.c **** *  Resets the read buffer pointer back to the first byte in the buffer.
 786:.\Generated_Source\PSoC4/I2C_1_I2C_MASTER.c **** *
 787:.\Generated_Source\PSoC4/I2C_1_I2C_MASTER.c **** * Parameters:
 788:.\Generated_Source\PSoC4/I2C_1_I2C_MASTER.c **** *  None
 789:.\Generated_Source\PSoC4/I2C_1_I2C_MASTER.c **** *
 790:.\Generated_Source\PSoC4/I2C_1_I2C_MASTER.c **** * Return:
 791:.\Generated_Source\PSoC4/I2C_1_I2C_MASTER.c **** *  None
 792:.\Generated_Source\PSoC4/I2C_1_I2C_MASTER.c **** *
 793:.\Generated_Source\PSoC4/I2C_1_I2C_MASTER.c **** * Global variables:
 794:.\Generated_Source\PSoC4/I2C_1_I2C_MASTER.c **** *  I2C_1_mstrRdBufIndex - used to current index within master read
 795:.\Generated_Source\PSoC4/I2C_1_I2C_MASTER.c **** *   buffer.
 796:.\Generated_Source\PSoC4/I2C_1_I2C_MASTER.c **** *  I2C_1_mstrStatus - used to store current status of I2C Master.
 797:.\Generated_Source\PSoC4/I2C_1_I2C_MASTER.c **** *
 798:.\Generated_Source\PSoC4/I2C_1_I2C_MASTER.c **** *******************************************************************************/
 799:.\Generated_Source\PSoC4/I2C_1_I2C_MASTER.c **** void I2C_1_I2CMasterClearReadBuf(void)
 800:.\Generated_Source\PSoC4/I2C_1_I2C_MASTER.c **** {
 577              		.loc 1 800 0
 578              		.cfi_startproc
 801:.\Generated_Source\PSoC4/I2C_1_I2C_MASTER.c ****     I2C_1_mstrRdBufIndex = 0u;
 579              		.loc 1 801 0
 580 0000 044B     		ldr	r3, .L81
 802:.\Generated_Source\PSoC4/I2C_1_I2C_MASTER.c ****     I2C_1_mstrStatus    &= (uint16) ~I2C_1_I2C_MSTAT_RD_CMPLT;
 581              		.loc 1 802 0
 582 0002 0548     		ldr	r0, .L81+4
 801:.\Generated_Source\PSoC4/I2C_1_I2C_MASTER.c ****     I2C_1_mstrRdBufIndex = 0u;
 583              		.loc 1 801 0
 584 0004 0022     		mov	r2, #0
 585 0006 1A60     		str	r2, [r3]
 586              		.loc 1 802 0
 587 0008 0288     		ldrh	r2, [r0]
 588 000a 0121     		mov	r1, #1
 589 000c 8A43     		bic	r2, r1
 590 000e 0280     		strh	r2, [r0]
 803:.\Generated_Source\PSoC4/I2C_1_I2C_MASTER.c **** }
 591              		.loc 1 803 0
 592              		@ sp needed for prologue
 593 0010 7047     		bx	lr
 594              	.L82:
 595 0012 C046     		.align	2
 596              	.L81:
 597 0014 00000000 		.word	I2C_1_mstrRdBufIndex
ARM GAS  C:\Users\Milo\AppData\Local\Temp\ccfBxLki.s 			page 26


 598 0018 00000000 		.word	I2C_1_mstrStatus
 599              		.cfi_endproc
 600              	.LFE9:
 601              		.size	I2C_1_I2CMasterClearReadBuf, .-I2C_1_I2CMasterClearReadBuf
 602              		.section	.text.I2C_1_I2CMasterClearWriteBuf,"ax",%progbits
 603              		.align	1
 604              		.global	I2C_1_I2CMasterClearWriteBuf
 605              		.code	16
 606              		.thumb_func
 607              		.type	I2C_1_I2CMasterClearWriteBuf, %function
 608              	I2C_1_I2CMasterClearWriteBuf:
 609              	.LFB10:
 804:.\Generated_Source\PSoC4/I2C_1_I2C_MASTER.c **** 
 805:.\Generated_Source\PSoC4/I2C_1_I2C_MASTER.c **** 
 806:.\Generated_Source\PSoC4/I2C_1_I2C_MASTER.c **** /*******************************************************************************
 807:.\Generated_Source\PSoC4/I2C_1_I2C_MASTER.c **** * Function Name: I2C_1_I2CMasterClearWriteBuf
 808:.\Generated_Source\PSoC4/I2C_1_I2C_MASTER.c **** ********************************************************************************
 809:.\Generated_Source\PSoC4/I2C_1_I2C_MASTER.c **** *
 810:.\Generated_Source\PSoC4/I2C_1_I2C_MASTER.c **** * Summary:
 811:.\Generated_Source\PSoC4/I2C_1_I2C_MASTER.c **** *  Resets the write buffer pointer back to the first byte in the buffer.
 812:.\Generated_Source\PSoC4/I2C_1_I2C_MASTER.c **** *
 813:.\Generated_Source\PSoC4/I2C_1_I2C_MASTER.c **** * Parameters:
 814:.\Generated_Source\PSoC4/I2C_1_I2C_MASTER.c **** *  None
 815:.\Generated_Source\PSoC4/I2C_1_I2C_MASTER.c **** *
 816:.\Generated_Source\PSoC4/I2C_1_I2C_MASTER.c **** * Return:
 817:.\Generated_Source\PSoC4/I2C_1_I2C_MASTER.c **** *  None
 818:.\Generated_Source\PSoC4/I2C_1_I2C_MASTER.c **** *
 819:.\Generated_Source\PSoC4/I2C_1_I2C_MASTER.c **** * Global variables:
 820:.\Generated_Source\PSoC4/I2C_1_I2C_MASTER.c **** *  I2C_1_mstrRdBufIndex - used to current index within master read
 821:.\Generated_Source\PSoC4/I2C_1_I2C_MASTER.c **** *   buffer.
 822:.\Generated_Source\PSoC4/I2C_1_I2C_MASTER.c **** *  I2C_1_mstrStatus - used to store current status of I2C Master.
 823:.\Generated_Source\PSoC4/I2C_1_I2C_MASTER.c **** *
 824:.\Generated_Source\PSoC4/I2C_1_I2C_MASTER.c **** *******************************************************************************/
 825:.\Generated_Source\PSoC4/I2C_1_I2C_MASTER.c **** void I2C_1_I2CMasterClearWriteBuf(void)
 826:.\Generated_Source\PSoC4/I2C_1_I2C_MASTER.c **** {
 610              		.loc 1 826 0
 611              		.cfi_startproc
 827:.\Generated_Source\PSoC4/I2C_1_I2C_MASTER.c ****     I2C_1_mstrWrBufIndex = 0u;
 612              		.loc 1 827 0
 613 0000 044B     		ldr	r3, .L84
 828:.\Generated_Source\PSoC4/I2C_1_I2C_MASTER.c ****     I2C_1_mstrStatus    &= (uint16) ~I2C_1_I2C_MSTAT_WR_CMPLT;
 614              		.loc 1 828 0
 615 0002 0548     		ldr	r0, .L84+4
 827:.\Generated_Source\PSoC4/I2C_1_I2C_MASTER.c ****     I2C_1_mstrWrBufIndex = 0u;
 616              		.loc 1 827 0
 617 0004 0022     		mov	r2, #0
 618 0006 1A60     		str	r2, [r3]
 619              		.loc 1 828 0
 620 0008 0288     		ldrh	r2, [r0]
 621 000a 0221     		mov	r1, #2
 622 000c 8A43     		bic	r2, r1
 623 000e 0280     		strh	r2, [r0]
 829:.\Generated_Source\PSoC4/I2C_1_I2C_MASTER.c **** }
 624              		.loc 1 829 0
 625              		@ sp needed for prologue
 626 0010 7047     		bx	lr
 627              	.L85:
ARM GAS  C:\Users\Milo\AppData\Local\Temp\ccfBxLki.s 			page 27


 628 0012 C046     		.align	2
 629              	.L84:
 630 0014 00000000 		.word	I2C_1_mstrWrBufIndex
 631 0018 00000000 		.word	I2C_1_mstrStatus
 632              		.cfi_endproc
 633              	.LFE10:
 634              		.size	I2C_1_I2CMasterClearWriteBuf, .-I2C_1_I2CMasterClearWriteBuf
 635              		.section	.text.I2C_1_I2CMasterStatus,"ax",%progbits
 636              		.align	1
 637              		.global	I2C_1_I2CMasterStatus
 638              		.code	16
 639              		.thumb_func
 640              		.type	I2C_1_I2CMasterStatus, %function
 641              	I2C_1_I2CMasterStatus:
 642              	.LFB11:
 830:.\Generated_Source\PSoC4/I2C_1_I2C_MASTER.c **** 
 831:.\Generated_Source\PSoC4/I2C_1_I2C_MASTER.c **** 
 832:.\Generated_Source\PSoC4/I2C_1_I2C_MASTER.c **** /*******************************************************************************
 833:.\Generated_Source\PSoC4/I2C_1_I2C_MASTER.c **** * Function Name: I2C_1_I2CMasterStatus
 834:.\Generated_Source\PSoC4/I2C_1_I2C_MASTER.c **** ********************************************************************************
 835:.\Generated_Source\PSoC4/I2C_1_I2C_MASTER.c **** *
 836:.\Generated_Source\PSoC4/I2C_1_I2C_MASTER.c **** * Summary:
 837:.\Generated_Source\PSoC4/I2C_1_I2C_MASTER.c **** *  Returns the master's communication status.
 838:.\Generated_Source\PSoC4/I2C_1_I2C_MASTER.c **** *
 839:.\Generated_Source\PSoC4/I2C_1_I2C_MASTER.c **** * Parameters:
 840:.\Generated_Source\PSoC4/I2C_1_I2C_MASTER.c **** *  None
 841:.\Generated_Source\PSoC4/I2C_1_I2C_MASTER.c **** *
 842:.\Generated_Source\PSoC4/I2C_1_I2C_MASTER.c **** * Return:
 843:.\Generated_Source\PSoC4/I2C_1_I2C_MASTER.c **** *  Current status of I2C master.
 844:.\Generated_Source\PSoC4/I2C_1_I2C_MASTER.c **** *
 845:.\Generated_Source\PSoC4/I2C_1_I2C_MASTER.c **** * Global variables:
 846:.\Generated_Source\PSoC4/I2C_1_I2C_MASTER.c **** *  I2C_1_mstrStatus - used to store current status of I2C Master.
 847:.\Generated_Source\PSoC4/I2C_1_I2C_MASTER.c **** *
 848:.\Generated_Source\PSoC4/I2C_1_I2C_MASTER.c **** *******************************************************************************/
 849:.\Generated_Source\PSoC4/I2C_1_I2C_MASTER.c **** uint32 I2C_1_I2CMasterStatus(void)
 850:.\Generated_Source\PSoC4/I2C_1_I2C_MASTER.c **** {
 643              		.loc 1 850 0
 644              		.cfi_startproc
 645 0000 00B5     		push	{lr}
 646              	.LCFI4:
 647              		.cfi_def_cfa_offset 4
 648              		.cfi_offset 14, -4
 851:.\Generated_Source\PSoC4/I2C_1_I2C_MASTER.c ****     uint32 status;
 852:.\Generated_Source\PSoC4/I2C_1_I2C_MASTER.c **** 
 853:.\Generated_Source\PSoC4/I2C_1_I2C_MASTER.c ****     status = (uint32) I2C_1_mstrStatus;
 649              		.loc 1 853 0
 650 0002 044B     		ldr	r3, .L89
 854:.\Generated_Source\PSoC4/I2C_1_I2C_MASTER.c **** 
 855:.\Generated_Source\PSoC4/I2C_1_I2C_MASTER.c ****     if(I2C_1_CHECK_I2C_MASTER_ACTIVE)
 651              		.loc 1 855 0
 652 0004 0449     		ldr	r1, .L89+4
 853:.\Generated_Source\PSoC4/I2C_1_I2C_MASTER.c ****     status = (uint32) I2C_1_mstrStatus;
 653              		.loc 1 853 0
 654 0006 1888     		ldrh	r0, [r3]
 655              	.LVL39:
 656              		.loc 1 855 0
 657 0008 0A78     		ldrb	r2, [r1]
ARM GAS  C:\Users\Milo\AppData\Local\Temp\ccfBxLki.s 			page 28


 658 000a 9206     		lsl	r2, r2, #26
 659 000c 01D5     		bpl	.L88
 856:.\Generated_Source\PSoC4/I2C_1_I2C_MASTER.c ****     {
 857:.\Generated_Source\PSoC4/I2C_1_I2C_MASTER.c ****         /* Add status of master pending transaction: MSTAT_XFER_INP */
 858:.\Generated_Source\PSoC4/I2C_1_I2C_MASTER.c ****         status |= (uint32) I2C_1_I2C_MSTAT_XFER_INP;
 660              		.loc 1 858 0
 661 000e 0423     		mov	r3, #4
 662 0010 1843     		orr	r0, r3
 663              	.LVL40:
 664              	.L88:
 859:.\Generated_Source\PSoC4/I2C_1_I2C_MASTER.c ****     }
 860:.\Generated_Source\PSoC4/I2C_1_I2C_MASTER.c **** 
 861:.\Generated_Source\PSoC4/I2C_1_I2C_MASTER.c ****     return(status);
 862:.\Generated_Source\PSoC4/I2C_1_I2C_MASTER.c **** }
 665              		.loc 1 862 0
 666              		@ sp needed for prologue
 667 0012 00BD     		pop	{pc}
 668              	.L90:
 669              		.align	2
 670              	.L89:
 671 0014 00000000 		.word	I2C_1_mstrStatus
 672 0018 00000000 		.word	I2C_1_state
 673              		.cfi_endproc
 674              	.LFE11:
 675              		.size	I2C_1_I2CMasterStatus, .-I2C_1_I2CMasterStatus
 676              		.section	.text.I2C_1_I2CMasterClearStatus,"ax",%progbits
 677              		.align	1
 678              		.global	I2C_1_I2CMasterClearStatus
 679              		.code	16
 680              		.thumb_func
 681              		.type	I2C_1_I2CMasterClearStatus, %function
 682              	I2C_1_I2CMasterClearStatus:
 683              	.LFB12:
 863:.\Generated_Source\PSoC4/I2C_1_I2C_MASTER.c **** 
 864:.\Generated_Source\PSoC4/I2C_1_I2C_MASTER.c **** 
 865:.\Generated_Source\PSoC4/I2C_1_I2C_MASTER.c **** /*******************************************************************************
 866:.\Generated_Source\PSoC4/I2C_1_I2C_MASTER.c **** * Function Name: I2C_1_I2CMasterClearStatus
 867:.\Generated_Source\PSoC4/I2C_1_I2C_MASTER.c **** ********************************************************************************
 868:.\Generated_Source\PSoC4/I2C_1_I2C_MASTER.c **** *
 869:.\Generated_Source\PSoC4/I2C_1_I2C_MASTER.c **** * Summary:
 870:.\Generated_Source\PSoC4/I2C_1_I2C_MASTER.c **** *  Clears all status flags and returns the master status.
 871:.\Generated_Source\PSoC4/I2C_1_I2C_MASTER.c **** *
 872:.\Generated_Source\PSoC4/I2C_1_I2C_MASTER.c **** * Parameters:
 873:.\Generated_Source\PSoC4/I2C_1_I2C_MASTER.c **** *  None
 874:.\Generated_Source\PSoC4/I2C_1_I2C_MASTER.c **** *
 875:.\Generated_Source\PSoC4/I2C_1_I2C_MASTER.c **** * Return:
 876:.\Generated_Source\PSoC4/I2C_1_I2C_MASTER.c **** *  Current status of I2C master.
 877:.\Generated_Source\PSoC4/I2C_1_I2C_MASTER.c **** *
 878:.\Generated_Source\PSoC4/I2C_1_I2C_MASTER.c **** * Global variables:
 879:.\Generated_Source\PSoC4/I2C_1_I2C_MASTER.c **** *  I2C_1_mstrStatus - used to store current status of I2C Master.
 880:.\Generated_Source\PSoC4/I2C_1_I2C_MASTER.c **** *
 881:.\Generated_Source\PSoC4/I2C_1_I2C_MASTER.c **** *******************************************************************************/
 882:.\Generated_Source\PSoC4/I2C_1_I2C_MASTER.c **** uint32 I2C_1_I2CMasterClearStatus(void)
 883:.\Generated_Source\PSoC4/I2C_1_I2C_MASTER.c **** {
 684              		.loc 1 883 0
 685              		.cfi_startproc
 884:.\Generated_Source\PSoC4/I2C_1_I2C_MASTER.c ****     uint32 status;
ARM GAS  C:\Users\Milo\AppData\Local\Temp\ccfBxLki.s 			page 29


 885:.\Generated_Source\PSoC4/I2C_1_I2C_MASTER.c **** 
 886:.\Generated_Source\PSoC4/I2C_1_I2C_MASTER.c ****     /* Read and clear master status */
 887:.\Generated_Source\PSoC4/I2C_1_I2C_MASTER.c ****     status = (uint32) I2C_1_mstrStatus;
 686              		.loc 1 887 0
 687 0000 024B     		ldr	r3, .L92
 888:.\Generated_Source\PSoC4/I2C_1_I2C_MASTER.c ****     I2C_1_mstrStatus = I2C_1_I2C_MSTAT_CLEAR;
 688              		.loc 1 888 0
 689 0002 0022     		mov	r2, #0
 887:.\Generated_Source\PSoC4/I2C_1_I2C_MASTER.c ****     status = (uint32) I2C_1_mstrStatus;
 690              		.loc 1 887 0
 691 0004 1888     		ldrh	r0, [r3]
 692              	.LVL41:
 889:.\Generated_Source\PSoC4/I2C_1_I2C_MASTER.c **** 
 890:.\Generated_Source\PSoC4/I2C_1_I2C_MASTER.c ****     return(status);
 891:.\Generated_Source\PSoC4/I2C_1_I2C_MASTER.c **** }
 693              		.loc 1 891 0
 694              		@ sp needed for prologue
 888:.\Generated_Source\PSoC4/I2C_1_I2C_MASTER.c ****     I2C_1_mstrStatus = I2C_1_I2C_MSTAT_CLEAR;
 695              		.loc 1 888 0
 696 0006 1A80     		strh	r2, [r3]
 697              		.loc 1 891 0
 698 0008 7047     		bx	lr
 699              	.L93:
 700 000a C046     		.align	2
 701              	.L92:
 702 000c 00000000 		.word	I2C_1_mstrStatus
 703              		.cfi_endproc
 704              	.LFE12:
 705              		.size	I2C_1_I2CMasterClearStatus, .-I2C_1_I2CMasterClearStatus
 706              		.section	.text.I2C_1_I2CReStartGeneration,"ax",%progbits
 707              		.align	1
 708              		.global	I2C_1_I2CReStartGeneration
 709              		.code	16
 710              		.thumb_func
 711              		.type	I2C_1_I2CReStartGeneration, %function
 712              	I2C_1_I2CReStartGeneration:
 713              	.LFB13:
 892:.\Generated_Source\PSoC4/I2C_1_I2C_MASTER.c **** 
 893:.\Generated_Source\PSoC4/I2C_1_I2C_MASTER.c **** 
 894:.\Generated_Source\PSoC4/I2C_1_I2C_MASTER.c **** /*******************************************************************************
 895:.\Generated_Source\PSoC4/I2C_1_I2C_MASTER.c **** * Function Name: I2C_1_I2CReStartGeneration
 896:.\Generated_Source\PSoC4/I2C_1_I2C_MASTER.c **** ********************************************************************************
 897:.\Generated_Source\PSoC4/I2C_1_I2C_MASTER.c **** *
 898:.\Generated_Source\PSoC4/I2C_1_I2C_MASTER.c **** * Summary:
 899:.\Generated_Source\PSoC4/I2C_1_I2C_MASTER.c **** *  Generates a ReStart condition:
 900:.\Generated_Source\PSoC4/I2C_1_I2C_MASTER.c **** *  SCB IP V1 and later: Generates ReStart using the scb IP functionality
 901:.\Generated_Source\PSoC4/I2C_1_I2C_MASTER.c **** *    Sets the I2C_MASTER_CMD_M_START and I2C_MASTER_CMD_M_NACK (if the previous
 902:.\Generated_Source\PSoC4/I2C_1_I2C_MASTER.c **** *    transaction was read) bits in the SCB.I2C_MASTER_CMD register. This combination
 903:.\Generated_Source\PSoC4/I2C_1_I2C_MASTER.c **** *    forces the master to generate ReStart.
 904:.\Generated_Source\PSoC4/I2C_1_I2C_MASTER.c **** *
 905:.\Generated_Source\PSoC4/I2C_1_I2C_MASTER.c **** *  SCB IP V0: Generates Restart using the GPIO and scb IP functionality.
 906:.\Generated_Source\PSoC4/I2C_1_I2C_MASTER.c **** *   After the master completes write or read, the SCL is stretched. The master waits
 907:.\Generated_Source\PSoC4/I2C_1_I2C_MASTER.c **** *   until SDA line is released by the slave. Then the GPIO function is enabled and
 908:.\Generated_Source\PSoC4/I2C_1_I2C_MASTER.c **** *   the scb IP disabled as it already does not drive the bus. In case of the previous
 909:.\Generated_Source\PSoC4/I2C_1_I2C_MASTER.c **** *   transfer was read, the NACK is generated by the GPIO. The delay of tLOW is
 910:.\Generated_Source\PSoC4/I2C_1_I2C_MASTER.c **** *   added to manage the hold time. Set I2C_M_CMD.START and enable the scb IP.
 911:.\Generated_Source\PSoC4/I2C_1_I2C_MASTER.c **** *   The ReStart generation is started after the I2C function is enabled for the SCL.
ARM GAS  C:\Users\Milo\AppData\Local\Temp\ccfBxLki.s 			page 30


 912:.\Generated_Source\PSoC4/I2C_1_I2C_MASTER.c **** *   Note1: the scb IP due re-enable generates Start but on the I2C bus it
 913:.\Generated_Source\PSoC4/I2C_1_I2C_MASTER.c **** *          appears as ReStart.
 914:.\Generated_Source\PSoC4/I2C_1_I2C_MASTER.c **** *   Note2: the I2C_M_CMD.START is queued if scb IP is disabled.
 915:.\Generated_Source\PSoC4/I2C_1_I2C_MASTER.c **** *   Note3: the I2C_STATUS_M_READ is cleared is address was NACKed before.
 916:.\Generated_Source\PSoC4/I2C_1_I2C_MASTER.c **** *
 917:.\Generated_Source\PSoC4/I2C_1_I2C_MASTER.c **** * Parameters:
 918:.\Generated_Source\PSoC4/I2C_1_I2C_MASTER.c **** *  None
 919:.\Generated_Source\PSoC4/I2C_1_I2C_MASTER.c **** *
 920:.\Generated_Source\PSoC4/I2C_1_I2C_MASTER.c **** * Return:
 921:.\Generated_Source\PSoC4/I2C_1_I2C_MASTER.c **** *  None
 922:.\Generated_Source\PSoC4/I2C_1_I2C_MASTER.c **** *
 923:.\Generated_Source\PSoC4/I2C_1_I2C_MASTER.c **** * Side Effects:
 924:.\Generated_Source\PSoC4/I2C_1_I2C_MASTER.c **** *  SCB IP V0: The NACK generation by the GPIO may cause a greater SCL period than
 925:.\Generated_Source\PSoC4/I2C_1_I2C_MASTER.c **** *  expected for the selected master data rate.
 926:.\Generated_Source\PSoC4/I2C_1_I2C_MASTER.c **** *
 927:.\Generated_Source\PSoC4/I2C_1_I2C_MASTER.c **** *******************************************************************************/
 928:.\Generated_Source\PSoC4/I2C_1_I2C_MASTER.c **** void I2C_1_I2CReStartGeneration(void)
 929:.\Generated_Source\PSoC4/I2C_1_I2C_MASTER.c **** {
 714              		.loc 1 929 0
 715              		.cfi_startproc
 716 0000 F8B5     		push	{r3, r4, r5, r6, r7, lr}
 717              	.LCFI5:
 718              		.cfi_def_cfa_offset 24
 719              		.cfi_offset 3, -24
 720              		.cfi_offset 4, -20
 721              		.cfi_offset 5, -16
 722              		.cfi_offset 6, -12
 723              		.cfi_offset 7, -8
 724              		.cfi_offset 14, -4
 930:.\Generated_Source\PSoC4/I2C_1_I2C_MASTER.c **** #if(I2C_1_CY_SCBIP_V0)
 931:.\Generated_Source\PSoC4/I2C_1_I2C_MASTER.c ****     /* Generates Restart use GPIO and scb IP functionality. Ticket ID#143715,
 932:.\Generated_Source\PSoC4/I2C_1_I2C_MASTER.c ****     ID#145238 and ID#173656 */
 933:.\Generated_Source\PSoC4/I2C_1_I2C_MASTER.c ****     uint32 status = I2C_1_I2C_STATUS_REG;
 725              		.loc 1 933 0
 726 0002 1E4B     		ldr	r3, .L109
 727 0004 1D68     		ldr	r5, [r3]
 728              	.LVL42:
 729              	.L95:
 934:.\Generated_Source\PSoC4/I2C_1_I2C_MASTER.c **** 
 935:.\Generated_Source\PSoC4/I2C_1_I2C_MASTER.c ****     while(I2C_1_WAIT_SDA_SET_HIGH)
 730              		.loc 1 935 0 discriminator 1
 731 0006 FFF7FEFF 		bl	I2C_1_sda_Read
 732              	.LVL43:
 733 000a 0028     		cmp	r0, #0
 734 000c FBD0     		beq	.L95
 936:.\Generated_Source\PSoC4/I2C_1_I2C_MASTER.c ****     {
 937:.\Generated_Source\PSoC4/I2C_1_I2C_MASTER.c ****         /* Wait when slave release SDA line: SCL tHIGH is complete */
 938:.\Generated_Source\PSoC4/I2C_1_I2C_MASTER.c ****     }
 939:.\Generated_Source\PSoC4/I2C_1_I2C_MASTER.c **** 
 940:.\Generated_Source\PSoC4/I2C_1_I2C_MASTER.c ****     /* Prepare DR register to drive SCL line */
 941:.\Generated_Source\PSoC4/I2C_1_I2C_MASTER.c ****     I2C_1_SET_I2C_SCL_DR(I2C_1_I2C_SCL_LOW);
 735              		.loc 1 941 0
 736 000e 0020     		mov	r0, #0
 737 0010 FFF7FEFF 		bl	I2C_1_scl_Write
 738              	.LVL44:
 942:.\Generated_Source\PSoC4/I2C_1_I2C_MASTER.c **** 
 943:.\Generated_Source\PSoC4/I2C_1_I2C_MASTER.c ****     /* Switch HSIOM to GPIO: SCL goes low */
ARM GAS  C:\Users\Milo\AppData\Local\Temp\ccfBxLki.s 			page 31


 944:.\Generated_Source\PSoC4/I2C_1_I2C_MASTER.c ****     I2C_1_SET_I2C_SCL_HSIOM_SEL(I2C_1_HSIOM_GPIO_SEL);
 739              		.loc 1 944 0
 740 0014 1A4A     		ldr	r2, .L109+4
 741 0016 1B4E     		ldr	r6, .L109+8
 742 0018 1068     		ldr	r0, [r2]
 945:.\Generated_Source\PSoC4/I2C_1_I2C_MASTER.c **** 
 946:.\Generated_Source\PSoC4/I2C_1_I2C_MASTER.c ****     /* Disable SCB block */
 947:.\Generated_Source\PSoC4/I2C_1_I2C_MASTER.c ****     I2C_1_CTRL_REG &= (uint32) ~I2C_1_CTRL_ENABLED;
 743              		.loc 1 947 0
 744 001a 1B4F     		ldr	r7, .L109+12
 944:.\Generated_Source\PSoC4/I2C_1_I2C_MASTER.c ****     I2C_1_SET_I2C_SCL_HSIOM_SEL(I2C_1_HSIOM_GPIO_SEL);
 745              		.loc 1 944 0
 746 001c 3040     		and	r0, r6
 747 001e 1060     		str	r0, [r2]
 748              		.loc 1 947 0
 749 0020 3968     		ldr	r1, [r7]
 750 0022 4C00     		lsl	r4, r1, #1
 751 0024 6308     		lsr	r3, r4, #1
 752 0026 3B60     		str	r3, [r7]
 753 0028 141C     		mov	r4, r2
 948:.\Generated_Source\PSoC4/I2C_1_I2C_MASTER.c **** 
 949:.\Generated_Source\PSoC4/I2C_1_I2C_MASTER.c ****     if(0u != (status & I2C_1_I2C_STATUS_M_READ))
 754              		.loc 1 949 0
 755 002a AB06     		lsl	r3, r5, #26
 756 002c 0FD5     		bpl	.L96
 950:.\Generated_Source\PSoC4/I2C_1_I2C_MASTER.c ****     {
 951:.\Generated_Source\PSoC4/I2C_1_I2C_MASTER.c ****         /* Generate NACK use GPIO functionality */
 952:.\Generated_Source\PSoC4/I2C_1_I2C_MASTER.c ****         I2C_1_SET_I2C_SCL_DR(I2C_1_I2C_SCL_LOW);
 757              		.loc 1 952 0
 758 002e 0020     		mov	r0, #0
 759 0030 FFF7FEFF 		bl	I2C_1_scl_Write
 760              	.LVL45:
 953:.\Generated_Source\PSoC4/I2C_1_I2C_MASTER.c ****         CyDelayUs(I2C_1_I2C_TLOW_TIME); /* Count tLOW */
 761              		.loc 1 953 0
 762 0034 1420     		mov	r0, #20
 763 0036 FFF7FEFF 		bl	CyDelayUs
 764              	.LVL46:
 954:.\Generated_Source\PSoC4/I2C_1_I2C_MASTER.c **** 
 955:.\Generated_Source\PSoC4/I2C_1_I2C_MASTER.c ****         I2C_1_SET_I2C_SCL_DR(I2C_1_I2C_SCL_HIGH);
 765              		.loc 1 955 0
 766 003a 0120     		mov	r0, #1
 767 003c FFF7FEFF 		bl	I2C_1_scl_Write
 768              	.LVL47:
 769              	.L97:
 956:.\Generated_Source\PSoC4/I2C_1_I2C_MASTER.c ****         while(I2C_1_WAIT_SCL_SET_HIGH)
 770              		.loc 1 956 0 discriminator 1
 771 0040 FFF7FEFF 		bl	I2C_1_scl_Read
 772              	.LVL48:
 773 0044 0028     		cmp	r0, #0
 774 0046 FBD0     		beq	.L97
 957:.\Generated_Source\PSoC4/I2C_1_I2C_MASTER.c ****         {
 958:.\Generated_Source\PSoC4/I2C_1_I2C_MASTER.c ****             /* Wait until slave releases SCL in case if it stretches */
 959:.\Generated_Source\PSoC4/I2C_1_I2C_MASTER.c ****         }
 960:.\Generated_Source\PSoC4/I2C_1_I2C_MASTER.c ****         CyDelayUs(I2C_1_I2C_THIGH_TIME); /* Count tHIGH */
 775              		.loc 1 960 0
 776 0048 1420     		mov	r0, #20
 777 004a FFF7FEFF 		bl	CyDelayUs
ARM GAS  C:\Users\Milo\AppData\Local\Temp\ccfBxLki.s 			page 32


 778              	.LVL49:
 779              	.L96:
 961:.\Generated_Source\PSoC4/I2C_1_I2C_MASTER.c ****     }
 962:.\Generated_Source\PSoC4/I2C_1_I2C_MASTER.c **** 
 963:.\Generated_Source\PSoC4/I2C_1_I2C_MASTER.c ****     /* Count tLOW as hold time for write and read */
 964:.\Generated_Source\PSoC4/I2C_1_I2C_MASTER.c ****     I2C_1_SET_I2C_SCL_DR(I2C_1_I2C_SCL_LOW);
 780              		.loc 1 964 0
 781 004e 0020     		mov	r0, #0
 782 0050 FFF7FEFF 		bl	I2C_1_scl_Write
 783              	.LVL50:
 965:.\Generated_Source\PSoC4/I2C_1_I2C_MASTER.c ****     CyDelayUs(I2C_1_I2C_TLOW_TIME); /* Count tLOW */
 966:.\Generated_Source\PSoC4/I2C_1_I2C_MASTER.c **** 
 967:.\Generated_Source\PSoC4/I2C_1_I2C_MASTER.c ****     /* Set command for Start generation: it will appear */
 968:.\Generated_Source\PSoC4/I2C_1_I2C_MASTER.c ****     I2C_1_I2C_MASTER_CMD_REG = I2C_1_I2C_MASTER_CMD_M_START;
 784              		.loc 1 968 0
 785 0054 0D4D     		ldr	r5, .L109+16
 786              	.LVL51:
 965:.\Generated_Source\PSoC4/I2C_1_I2C_MASTER.c ****     CyDelayUs(I2C_1_I2C_TLOW_TIME); /* Count tLOW */
 787              		.loc 1 965 0
 788 0056 1420     		mov	r0, #20
 789 0058 FFF7FEFF 		bl	CyDelayUs
 790              	.LVL52:
 791              		.loc 1 968 0
 792 005c 0120     		mov	r0, #1
 793 005e 2860     		str	r0, [r5]
 969:.\Generated_Source\PSoC4/I2C_1_I2C_MASTER.c **** 
 970:.\Generated_Source\PSoC4/I2C_1_I2C_MASTER.c ****     /* Enable SCB block */
 971:.\Generated_Source\PSoC4/I2C_1_I2C_MASTER.c ****     I2C_1_CTRL_REG |= (uint32) I2C_1_CTRL_ENABLED;
 794              		.loc 1 971 0
 795 0060 3A68     		ldr	r2, [r7]
 796 0062 8021     		mov	r1, #128
 797 0064 0B06     		lsl	r3, r1, #24
 798 0066 1343     		orr	r3, r2
 799 0068 3B60     		str	r3, [r7]
 972:.\Generated_Source\PSoC4/I2C_1_I2C_MASTER.c **** 
 973:.\Generated_Source\PSoC4/I2C_1_I2C_MASTER.c ****     /* Switch HSIOM to I2C: */
 974:.\Generated_Source\PSoC4/I2C_1_I2C_MASTER.c ****     I2C_1_SET_I2C_SCL_HSIOM_SEL(I2C_1_HSIOM_I2C_SEL);
 800              		.loc 1 974 0
 801 006a 2768     		ldr	r7, [r4]
 802 006c E025     		mov	r5, #224
 803 006e 2A03     		lsl	r2, r5, #12
 804 0070 3E40     		and	r6, r7
 805 0072 1643     		orr	r6, r2
 806 0074 2660     		str	r6, [r4]
 975:.\Generated_Source\PSoC4/I2C_1_I2C_MASTER.c **** 
 976:.\Generated_Source\PSoC4/I2C_1_I2C_MASTER.c ****     /* Revert SCL DR register */
 977:.\Generated_Source\PSoC4/I2C_1_I2C_MASTER.c ****     I2C_1_SET_I2C_SCL_DR(I2C_1_I2C_SCL_HIGH);
 807              		.loc 1 977 0
 808 0076 FFF7FEFF 		bl	I2C_1_scl_Write
 809              	.LVL53:
 978:.\Generated_Source\PSoC4/I2C_1_I2C_MASTER.c **** #else
 979:.\Generated_Source\PSoC4/I2C_1_I2C_MASTER.c ****     uint32 cmd;
 980:.\Generated_Source\PSoC4/I2C_1_I2C_MASTER.c **** 
 981:.\Generated_Source\PSoC4/I2C_1_I2C_MASTER.c ****     /* Generates ReStart use scb IP functionality */
 982:.\Generated_Source\PSoC4/I2C_1_I2C_MASTER.c ****     cmd  = I2C_1_I2C_MASTER_CMD_M_START;
 983:.\Generated_Source\PSoC4/I2C_1_I2C_MASTER.c ****     cmd |= I2C_1_CHECK_I2C_STATUS(I2C_1_I2C_STATUS_M_READ) ?
 984:.\Generated_Source\PSoC4/I2C_1_I2C_MASTER.c ****                 (I2C_1_I2C_MASTER_CMD_M_NACK) : (0u);
ARM GAS  C:\Users\Milo\AppData\Local\Temp\ccfBxLki.s 			page 33


 985:.\Generated_Source\PSoC4/I2C_1_I2C_MASTER.c **** 
 986:.\Generated_Source\PSoC4/I2C_1_I2C_MASTER.c ****     I2C_1_I2C_MASTER_CMD_REG = cmd;
 987:.\Generated_Source\PSoC4/I2C_1_I2C_MASTER.c **** #endif /* (I2C_1_CY_SCBIP_V1) */
 988:.\Generated_Source\PSoC4/I2C_1_I2C_MASTER.c **** }
 810              		.loc 1 988 0
 811              		@ sp needed for prologue
 812 007a F8BD     		pop	{r3, r4, r5, r6, r7, pc}
 813              	.L110:
 814              		.align	2
 815              	.L109:
 816 007c 64000740 		.word	1074200676
 817 0080 00000140 		.word	1073807360
 818 0084 FFFFF0FF 		.word	-983041
 819 0088 00000740 		.word	1074200576
 820 008c 68000740 		.word	1074200680
 821              		.cfi_endproc
 822              	.LFE13:
 823              		.size	I2C_1_I2CReStartGeneration, .-I2C_1_I2CReStartGeneration
 824              		.section	.text.I2C_1_I2CMasterSendRestart,"ax",%progbits
 825              		.align	1
 826              		.global	I2C_1_I2CMasterSendRestart
 827              		.code	16
 828              		.thumb_func
 829              		.type	I2C_1_I2CMasterSendRestart, %function
 830              	I2C_1_I2CMasterSendRestart:
 831              	.LFB3:
 388:.\Generated_Source\PSoC4/I2C_1_I2C_MASTER.c **** {
 832              		.loc 1 388 0
 833              		.cfi_startproc
 834              	.LVL54:
 835 0000 70B5     		push	{r4, r5, r6, lr}
 836              	.LCFI6:
 837              		.cfi_def_cfa_offset 16
 838              		.cfi_offset 4, -16
 839              		.cfi_offset 5, -12
 840              		.cfi_offset 6, -8
 841              		.cfi_offset 14, -4
 396:.\Generated_Source\PSoC4/I2C_1_I2C_MASTER.c ****     if(I2C_1_CHECK_I2C_MASTER_ACTIVE)
 842              		.loc 1 396 0
 843 0002 224C     		ldr	r4, .L131
 388:.\Generated_Source\PSoC4/I2C_1_I2C_MASTER.c **** {
 844              		.loc 1 388 0
 845 0004 051C     		mov	r5, r0
 396:.\Generated_Source\PSoC4/I2C_1_I2C_MASTER.c ****     if(I2C_1_CHECK_I2C_MASTER_ACTIVE)
 846              		.loc 1 396 0
 847 0006 2378     		ldrb	r3, [r4]
 393:.\Generated_Source\PSoC4/I2C_1_I2C_MASTER.c ****     errStatus = I2C_1_I2C_MSTR_NOT_READY;
 848              		.loc 1 393 0
 849 0008 0420     		mov	r0, #4
 850              	.LVL55:
 396:.\Generated_Source\PSoC4/I2C_1_I2C_MASTER.c ****     if(I2C_1_CHECK_I2C_MASTER_ACTIVE)
 851              		.loc 1 396 0
 852 000a 9A06     		lsl	r2, r3, #26
 853 000c 3DD5     		bpl	.L112
 398:.\Generated_Source\PSoC4/I2C_1_I2C_MASTER.c ****         slaveAddress = I2C_1_GET_I2C_8BIT_ADDRESS(slaveAddress);
 854              		.loc 1 398 0
 855 000e 6D00     		lsl	r5, r5, #1
ARM GAS  C:\Users\Milo\AppData\Local\Temp\ccfBxLki.s 			page 34


 856              	.LVL56:
 857 0010 FF20     		mov	r0, #255
 858 0012 0540     		and	r5, r0
 859              	.LVL57:
 400:.\Generated_Source\PSoC4/I2C_1_I2C_MASTER.c ****         if(0u == bitRnW) /* Write direction */
 860              		.loc 1 400 0
 861 0014 0029     		cmp	r1, #0
 862 0016 02D1     		bne	.L113
 402:.\Generated_Source\PSoC4/I2C_1_I2C_MASTER.c ****             I2C_1_state = I2C_1_I2C_FSM_MSTR_WR_DATA;
 863              		.loc 1 402 0
 864 0018 2426     		mov	r6, #36
 865 001a 2670     		strb	r6, [r4]
 866 001c 03E0     		b	.L114
 867              	.L113:
 406:.\Generated_Source\PSoC4/I2C_1_I2C_MASTER.c ****             I2C_1_state  = I2C_1_I2C_FSM_MSTR_RD_DATA;
 868              		.loc 1 406 0
 869 001e 2521     		mov	r1, #37
 870              	.LVL58:
 407:.\Generated_Source\PSoC4/I2C_1_I2C_MASTER.c ****                       slaveAddress |= I2C_1_I2C_READ_FLAG;
 871              		.loc 1 407 0
 872 0020 0122     		mov	r2, #1
 406:.\Generated_Source\PSoC4/I2C_1_I2C_MASTER.c ****             I2C_1_state  = I2C_1_I2C_FSM_MSTR_RD_DATA;
 873              		.loc 1 406 0
 874 0022 2170     		strb	r1, [r4]
 407:.\Generated_Source\PSoC4/I2C_1_I2C_MASTER.c ****                       slaveAddress |= I2C_1_I2C_READ_FLAG;
 875              		.loc 1 407 0
 876 0024 1543     		orr	r5, r2
 877              	.LVL59:
 878              	.L114:
 413:.\Generated_Source\PSoC4/I2C_1_I2C_MASTER.c ****         I2C_1_ClearMasterInterruptSource(I2C_1_INTR_MASTER_ALL);
 879              		.loc 1 413 0
 880 0026 1A4E     		ldr	r6, .L131+4
 881 0028 1A4B     		ldr	r3, .L131+8
 882 002a 3360     		str	r3, [r6]
 419:.\Generated_Source\PSoC4/I2C_1_I2C_MASTER.c ****         I2C_1_I2C_MASTER_GENERATE_RESTART;
 883              		.loc 1 419 0
 884 002c FFF7FEFF 		bl	I2C_1_I2CReStartGeneration
 885              	.LVL60:
 886              	.L115:
 421:.\Generated_Source\PSoC4/I2C_1_I2C_MASTER.c ****         while(I2C_1_CHECK_I2C_MASTER_CMD(I2C_1_I2C_MASTER_CMD_M_START))
 887              		.loc 1 421 0 discriminator 1
 888 0030 1948     		ldr	r0, .L131+12
 889 0032 0168     		ldr	r1, [r0]
 890 0034 CA07     		lsl	r2, r1, #31
 891 0036 FBD4     		bmi	.L115
 427:.\Generated_Source\PSoC4/I2C_1_I2C_MASTER.c ****         I2C_1_TX_FIFO_WR_REG = slaveAddress;
 892              		.loc 1 427 0
 893 0038 184A     		ldr	r2, .L131+16
 894 003a 1560     		str	r5, [r2]
 895              	.LVL61:
 896              	.L116:
 430:.\Generated_Source\PSoC4/I2C_1_I2C_MASTER.c ****         while(!I2C_1_CHECK_INTR_MASTER(I2C_1_INTR_MASTER_I2C_ACK      |
 897              		.loc 1 430 0 discriminator 1
 898 003c 3568     		ldr	r5, [r6]
 899 003e 1849     		ldr	r1, .L131+20
 900 0040 134A     		ldr	r2, .L131+4
 901 0042 0D42     		tst	r5, r1
ARM GAS  C:\Users\Milo\AppData\Local\Temp\ccfBxLki.s 			page 35


 902 0044 FAD0     		beq	.L116
 439:.\Generated_Source\PSoC4/I2C_1_I2C_MASTER.c ****         if(I2C_1_CHECK_INTR_MASTER(I2C_1_INTR_MASTER_I2C_ACK))
 903              		.loc 1 439 0
 904 0046 1068     		ldr	r0, [r2]
 905 0048 0423     		mov	r3, #4
 906 004a 0340     		and	r3, r0
 907 004c 0ED1     		bne	.L120
 443:.\Generated_Source\PSoC4/I2C_1_I2C_MASTER.c ****         else if(I2C_1_CHECK_INTR_MASTER(I2C_1_INTR_MASTER_I2C_NACK))
 908              		.loc 1 443 0
 909 004e 1568     		ldr	r5, [r2]
 910 0050 0220     		mov	r0, #2
 911 0052 0542     		tst	r5, r0
 912 0054 0CD1     		bne	.L117
 447:.\Generated_Source\PSoC4/I2C_1_I2C_MASTER.c ****         else if(I2C_1_CHECK_INTR_MASTER(I2C_1_INTR_MASTER_I2C_ARB_LOST))
 913              		.loc 1 447 0
 914 0056 1068     		ldr	r0, [r2]
 915 0058 0123     		mov	r3, #1
 916 005a 1022     		mov	r2, #16
 449:.\Generated_Source\PSoC4/I2C_1_I2C_MASTER.c ****             I2C_1_state = I2C_1_I2C_FSM_IDLE;
 917              		.loc 1 449 0
 918 005c 2270     		strb	r2, [r4]
 447:.\Generated_Source\PSoC4/I2C_1_I2C_MASTER.c ****         else if(I2C_1_CHECK_INTR_MASTER(I2C_1_INTR_MASTER_I2C_ARB_LOST))
 919              		.loc 1 447 0
 920 005e 1842     		tst	r0, r3
 921 0060 01D0     		beq	.L118
 922              	.LVL62:
 450:.\Generated_Source\PSoC4/I2C_1_I2C_MASTER.c ****                          errStatus = I2C_1_I2C_MSTR_ERR_ARB_LOST;
 923              		.loc 1 450 0
 924 0062 181C     		mov	r0, r3
 925 0064 04E0     		b	.L117
 926              	.LVL63:
 927              	.L118:
 456:.\Generated_Source\PSoC4/I2C_1_I2C_MASTER.c ****                          errStatus = I2C_1_I2C_MSTR_ERR_BUS_ERR;
 928              		.loc 1 456 0
 929 0066 8024     		mov	r4, #128
 930 0068 6000     		lsl	r0, r4, #1
 931 006a 01E0     		b	.L117
 932              	.LVL64:
 933              	.L120:
 441:.\Generated_Source\PSoC4/I2C_1_I2C_MASTER.c ****             errStatus = I2C_1_I2C_MSTR_NO_ERROR;
 934              		.loc 1 441 0
 935 006c 0020     		mov	r0, #0
 392:.\Generated_Source\PSoC4/I2C_1_I2C_MASTER.c ****     resetIp   = 0u;
 936              		.loc 1 392 0
 937 006e 031C     		mov	r3, r0
 938              	.LVL65:
 939              	.L117:
 460:.\Generated_Source\PSoC4/I2C_1_I2C_MASTER.c ****         I2C_1_ClearMasterInterruptSource(I2C_1_INTR_MASTER_I2C_ACK      |
 940              		.loc 1 460 0
 941 0070 3160     		str	r1, [r6]
 466:.\Generated_Source\PSoC4/I2C_1_I2C_MASTER.c ****         if(0u != resetIp)
 942              		.loc 1 466 0
 943 0072 002B     		cmp	r3, #0
 944 0074 09D0     		beq	.L112
 468:.\Generated_Source\PSoC4/I2C_1_I2C_MASTER.c ****             I2C_1_SCB_SW_RESET;
 945              		.loc 1 468 0
 946 0076 0B4E     		ldr	r6, .L131+24
ARM GAS  C:\Users\Milo\AppData\Local\Temp\ccfBxLki.s 			page 36


 947 0078 8023     		mov	r3, #128
 948              	.LVL66:
 949 007a 3168     		ldr	r1, [r6]
 950 007c 4D00     		lsl	r5, r1, #1
 951 007e 6A08     		lsr	r2, r5, #1
 952 0080 3260     		str	r2, [r6]
 953 0082 3468     		ldr	r4, [r6]
 954 0084 1906     		lsl	r1, r3, #24
 955 0086 2143     		orr	r1, r4
 956 0088 3160     		str	r1, [r6]
 957              	.LVL67:
 958              	.L112:
 473:.\Generated_Source\PSoC4/I2C_1_I2C_MASTER.c **** }
 959              		.loc 1 473 0
 960              		@ sp needed for prologue
 961 008a 70BD     		pop	{r4, r5, r6, pc}
 962              	.L132:
 963              		.align	2
 964              	.L131:
 965 008c 00000000 		.word	I2C_1_state
 966 0090 000F0740 		.word	1074204416
 967 0094 17030000 		.word	791
 968 0098 68000740 		.word	1074200680
 969 009c 40020740 		.word	1074201152
 970 00a0 07010000 		.word	263
 971 00a4 00000740 		.word	1074200576
 972              		.cfi_endproc
 973              	.LFE3:
 974              		.size	I2C_1_I2CMasterSendRestart, .-I2C_1_I2CMasterSendRestart
 975              		.section	.text.I2C_1_I2CMasterReadBuf,"ax",%progbits
 976              		.align	1
 977              		.global	I2C_1_I2CMasterReadBuf
 978              		.code	16
 979              		.thumb_func
 980              		.type	I2C_1_I2CMasterReadBuf, %function
 981              	I2C_1_I2CMasterReadBuf:
 982              	.LFB1:
 178:.\Generated_Source\PSoC4/I2C_1_I2C_MASTER.c **** {
 983              		.loc 1 178 0
 984              		.cfi_startproc
 985              	.LVL68:
 986 0000 F7B5     		push	{r0, r1, r2, r4, r5, r6, r7, lr}
 987              	.LCFI7:
 988              		.cfi_def_cfa_offset 32
 989              		.cfi_offset 0, -32
 990              		.cfi_offset 1, -28
 991              		.cfi_offset 2, -24
 992              		.cfi_offset 4, -20
 993              		.cfi_offset 5, -16
 994              		.cfi_offset 6, -12
 995              		.cfi_offset 7, -8
 996              		.cfi_offset 14, -4
 178:.\Generated_Source\PSoC4/I2C_1_I2C_MASTER.c **** {
 997              		.loc 1 178 0
 998 0002 071C     		mov	r7, r0
 999 0004 0D1C     		mov	r5, r1
 1000 0006 0192     		str	r2, [sp, #4]
ARM GAS  C:\Users\Milo\AppData\Local\Temp\ccfBxLki.s 			page 37


 1001 0008 0093     		str	r3, [sp]
 183:.\Generated_Source\PSoC4/I2C_1_I2C_MASTER.c ****     if(NULL != rdData)
 1002              		.loc 1 183 0
 1003 000a 4BD0     		beq	.L142
 186:.\Generated_Source\PSoC4/I2C_1_I2C_MASTER.c ****         if(I2C_1_CHECK_I2C_FSM_IDLE)
 1004              		.loc 1 186 0
 1005 000c 284E     		ldr	r6, .L148
 1006 000e 3378     		ldrb	r3, [r6]
 1007              	.LVL69:
 1008 0010 102B     		cmp	r3, #16
 1009 0012 08D1     		bne	.L135
 188:.\Generated_Source\PSoC4/I2C_1_I2C_MASTER.c ****             I2C_1_DisableInt();
 1010              		.loc 1 188 0
 1011 0014 0B20     		mov	r0, #11
 1012              	.LVL70:
 1013 0016 FFF7FEFF 		bl	CyIntDisable
 1014              	.LVL71:
 191:.\Generated_Source\PSoC4/I2C_1_I2C_MASTER.c ****             errStatus = I2C_1_CHECK_I2C_STATUS(I2C_1_I2C_STATUS_BUS_BUSY) ?
 1015              		.loc 1 191 0
 1016 001a 264B     		ldr	r3, .L148+4
 1017 001c 0824     		mov	r4, #8
 1018 001e 1868     		ldr	r0, [r3]
 1019 0020 C207     		lsl	r2, r0, #31
 1020 0022 40D4     		bmi	.L139
 1021 0024 08E0     		b	.L136
 1022              	.LVL72:
 1023              	.L135:
 194:.\Generated_Source\PSoC4/I2C_1_I2C_MASTER.c ****         else if(I2C_1_CHECK_I2C_FSM_HALT)
 1024              		.loc 1 194 0
 1025 0026 3078     		ldrb	r0, [r6]
 1026              	.LVL73:
 181:.\Generated_Source\PSoC4/I2C_1_I2C_MASTER.c ****     errStatus = I2C_1_I2C_MSTR_NOT_READY;
 1027              		.loc 1 181 0
 1028 0028 0424     		mov	r4, #4
 194:.\Generated_Source\PSoC4/I2C_1_I2C_MASTER.c ****         else if(I2C_1_CHECK_I2C_FSM_HALT)
 1029              		.loc 1 194 0
 1030 002a 6028     		cmp	r0, #96
 1031 002c 3BD1     		bne	.L139
 196:.\Generated_Source\PSoC4/I2C_1_I2C_MASTER.c ****             I2C_1_mstrStatus &= (uint16) ~I2C_1_I2C_MSTAT_XFER_HALT;
 1032              		.loc 1 196 0
 1033 002e 224C     		ldr	r4, .L148+8
 1034 0030 0821     		mov	r1, #8
 1035              	.LVL74:
 1036 0032 2288     		ldrh	r2, [r4]
 1037              	.LVL75:
 1038 0034 8A43     		bic	r2, r1
 1039 0036 2280     		strh	r2, [r4]
 1040              	.LVL76:
 1041              	.L136:
 209:.\Generated_Source\PSoC4/I2C_1_I2C_MASTER.c ****         I2C_1_state = I2C_1_I2C_FSM_MSTR_RD_ADDR;
 1042              		.loc 1 209 0
 1043 0038 2924     		mov	r4, #41
 210:.\Generated_Source\PSoC4/I2C_1_I2C_MASTER.c ****         I2C_1_mstrRdBufIndex = 0u;
 1044              		.loc 1 210 0
 1045 003a 204A     		ldr	r2, .L148+12
 212:.\Generated_Source\PSoC4/I2C_1_I2C_MASTER.c ****         I2C_1_mstrRdBufPtr   = (volatile uint8 *) rdData;
 1046              		.loc 1 212 0
ARM GAS  C:\Users\Milo\AppData\Local\Temp\ccfBxLki.s 			page 38


 1047 003c 204B     		ldr	r3, .L148+16
 209:.\Generated_Source\PSoC4/I2C_1_I2C_MASTER.c ****         I2C_1_state = I2C_1_I2C_FSM_MSTR_RD_ADDR;
 1048              		.loc 1 209 0
 1049 003e 3470     		strb	r4, [r6]
 210:.\Generated_Source\PSoC4/I2C_1_I2C_MASTER.c ****         I2C_1_mstrRdBufIndex = 0u;
 1050              		.loc 1 210 0
 1051 0040 0026     		mov	r6, #0
 1052 0042 1660     		str	r6, [r2]
 211:.\Generated_Source\PSoC4/I2C_1_I2C_MASTER.c ****         I2C_1_mstrRdBufSize  = cnt;
 1053              		.loc 1 211 0
 1054 0044 0199     		ldr	r1, [sp, #4]
 212:.\Generated_Source\PSoC4/I2C_1_I2C_MASTER.c ****         I2C_1_mstrRdBufPtr   = (volatile uint8 *) rdData;
 1055              		.loc 1 212 0
 1056 0046 1D60     		str	r5, [r3]
 211:.\Generated_Source\PSoC4/I2C_1_I2C_MASTER.c ****         I2C_1_mstrRdBufSize  = cnt;
 1057              		.loc 1 211 0
 1058 0048 1E4E     		ldr	r6, .L148+20
 213:.\Generated_Source\PSoC4/I2C_1_I2C_MASTER.c ****         I2C_1_mstrControl    = (uint8) mode;
 1059              		.loc 1 213 0
 1060 004a 6D46     		mov	r5, sp
 1061              	.LVL77:
 1062 004c 2878     		ldrb	r0, [r5]
 1063 004e 1E4C     		ldr	r4, .L148+24
 211:.\Generated_Source\PSoC4/I2C_1_I2C_MASTER.c ****         I2C_1_mstrRdBufSize  = cnt;
 1064              		.loc 1 211 0
 1065 0050 3160     		str	r1, [r6]
 217:.\Generated_Source\PSoC4/I2C_1_I2C_MASTER.c ****         I2C_1_mstrStatus &= (uint16) ~I2C_1_I2C_MSTAT_RD_CMPLT;
 1066              		.loc 1 217 0
 1067 0052 1949     		ldr	r1, .L148+8
 213:.\Generated_Source\PSoC4/I2C_1_I2C_MASTER.c ****         I2C_1_mstrControl    = (uint8) mode;
 1068              		.loc 1 213 0
 1069 0054 2070     		strb	r0, [r4]
 217:.\Generated_Source\PSoC4/I2C_1_I2C_MASTER.c ****         I2C_1_mstrStatus &= (uint16) ~I2C_1_I2C_MSTAT_RD_CMPLT;
 1070              		.loc 1 217 0
 1071 0056 0D88     		ldrh	r5, [r1]
 1072              	.LVL78:
 215:.\Generated_Source\PSoC4/I2C_1_I2C_MASTER.c ****         slaveAddress = (I2C_1_GET_I2C_8BIT_ADDRESS(slaveAddress) | I2C_1_I2C_READ_FLAG);
 1073              		.loc 1 215 0
 1074 0058 FF22     		mov	r2, #255
 1075 005a 7F00     		lsl	r7, r7, #1
 1076              	.LVL79:
 1077 005c 1740     		and	r7, r2
 1078 005e 0123     		mov	r3, #1
 219:.\Generated_Source\PSoC4/I2C_1_I2C_MASTER.c ****         I2C_1_ClearMasterInterruptSource(I2C_1_INTR_MASTER_ALL);
 1079              		.loc 1 219 0
 1080 0060 1A4C     		ldr	r4, .L148+28
 1081 0062 1B48     		ldr	r0, .L148+32
 224:.\Generated_Source\PSoC4/I2C_1_I2C_MASTER.c ****         if(I2C_1_CHECK_I2C_MODE_RESTART(mode))
 1082              		.loc 1 224 0
 1083 0064 009A     		ldr	r2, [sp]
 217:.\Generated_Source\PSoC4/I2C_1_I2C_MASTER.c ****         I2C_1_mstrStatus &= (uint16) ~I2C_1_I2C_MSTAT_RD_CMPLT;
 1084              		.loc 1 217 0
 1085 0066 9D43     		bic	r5, r3
 1086 0068 0D80     		strh	r5, [r1]
 215:.\Generated_Source\PSoC4/I2C_1_I2C_MASTER.c ****         slaveAddress = (I2C_1_GET_I2C_8BIT_ADDRESS(slaveAddress) | I2C_1_I2C_READ_FLAG);
 1087              		.loc 1 215 0
 1088 006a 1F43     		orr	r7, r3
ARM GAS  C:\Users\Milo\AppData\Local\Temp\ccfBxLki.s 			page 39


 1089              	.LVL80:
 219:.\Generated_Source\PSoC4/I2C_1_I2C_MASTER.c ****         I2C_1_ClearMasterInterruptSource(I2C_1_INTR_MASTER_ALL);
 1090              		.loc 1 219 0
 1091 006c 2060     		str	r0, [r4]
 1092 006e 194C     		ldr	r4, .L148+36
 224:.\Generated_Source\PSoC4/I2C_1_I2C_MASTER.c ****         if(I2C_1_CHECK_I2C_MODE_RESTART(mode))
 1093              		.loc 1 224 0
 1094 0070 1A42     		tst	r2, r3
 1095 0072 03D0     		beq	.L146
 226:.\Generated_Source\PSoC4/I2C_1_I2C_MASTER.c ****             I2C_1_I2C_MASTER_GENERATE_RESTART;
 1096              		.loc 1 226 0
 1097 0074 FFF7FEFF 		bl	I2C_1_I2CReStartGeneration
 1098              	.LVL81:
 227:.\Generated_Source\PSoC4/I2C_1_I2C_MASTER.c ****             I2C_1_TX_FIFO_WR_REG = (slaveAddress);
 1099              		.loc 1 227 0
 1100 0078 2760     		str	r7, [r4]
 1101 007a 03E0     		b	.L137
 1102              	.LVL82:
 1103              	.L146:
 232:.\Generated_Source\PSoC4/I2C_1_I2C_MASTER.c ****             I2C_1_I2C_MASTER_GENERATE_START;
 1104              		.loc 1 232 0
 1105 007c 164B     		ldr	r3, .L148+40
 231:.\Generated_Source\PSoC4/I2C_1_I2C_MASTER.c ****             I2C_1_TX_FIFO_WR_REG = (slaveAddress);
 1106              		.loc 1 231 0
 1107 007e 2760     		str	r7, [r4]
 232:.\Generated_Source\PSoC4/I2C_1_I2C_MASTER.c ****             I2C_1_I2C_MASTER_GENERATE_START;
 1108              		.loc 1 232 0
 1109 0080 0227     		mov	r7, #2
 1110              	.LVL83:
 1111 0082 1F60     		str	r7, [r3]
 1112              	.LVL84:
 1113              	.L137:
 236:.\Generated_Source\PSoC4/I2C_1_I2C_MASTER.c ****         if(I2C_1_mstrRdBufSize < I2C_1_I2C_FIFO_SIZE) /* Reading byte-by-byte */
 1114              		.loc 1 236 0
 1115 0084 3168     		ldr	r1, [r6]
 1116 0086 154D     		ldr	r5, .L148+44
 1117 0088 0729     		cmp	r1, #7
 1118 008a 01D8     		bhi	.L138
 238:.\Generated_Source\PSoC4/I2C_1_I2C_MASTER.c ****             I2C_1_SetRxInterruptMode(I2C_1_INTR_RX_NOT_EMPTY);
 1119              		.loc 1 238 0
 1120 008c 0427     		mov	r7, #4
 1121 008e 06E0     		b	.L147
 1122              	.L138:
 242:.\Generated_Source\PSoC4/I2C_1_I2C_MASTER.c ****             I2C_1_ENABLE_MASTER_AUTO_DATA_ACK;
 1123              		.loc 1 242 0
 1124 0090 134C     		ldr	r4, .L148+48
 1125 0092 8026     		mov	r6, #128
 1126 0094 2068     		ldr	r0, [r4]
 1127 0096 7200     		lsl	r2, r6, #1
 1128 0098 0243     		orr	r2, r0
 1129 009a 2260     		str	r2, [r4]
 243:.\Generated_Source\PSoC4/I2C_1_I2C_MASTER.c ****             I2C_1_SetRxInterruptMode(I2C_1_INTR_RX_FULL);
 1130              		.loc 1 243 0
 1131 009c 0827     		mov	r7, #8
 1132              	.L147:
 1133 009e 2F60     		str	r7, [r5]
 1134 00a0 0024     		mov	r4, #0
ARM GAS  C:\Users\Milo\AppData\Local\Temp\ccfBxLki.s 			page 40


 1135 00a2 00E0     		b	.L139
 1136              	.LVL85:
 1137              	.L142:
 181:.\Generated_Source\PSoC4/I2C_1_I2C_MASTER.c ****     errStatus = I2C_1_I2C_MSTR_NOT_READY;
 1138              		.loc 1 181 0
 1139 00a4 0424     		mov	r4, #4
 1140              	.LVL86:
 1141              	.L139:
 247:.\Generated_Source\PSoC4/I2C_1_I2C_MASTER.c ****     I2C_1_EnableInt();
 1142              		.loc 1 247 0
 1143 00a6 0B20     		mov	r0, #11
 1144 00a8 FFF7FEFF 		bl	CyIntEnable
 1145              	.LVL87:
 250:.\Generated_Source\PSoC4/I2C_1_I2C_MASTER.c **** }
 1146              		.loc 1 250 0
 1147              		@ sp needed for prologue
 1148 00ac 201C     		mov	r0, r4
 1149 00ae FEBD     		pop	{r1, r2, r3, r4, r5, r6, r7, pc}
 1150              	.L149:
 1151              		.align	2
 1152              	.L148:
 1153 00b0 00000000 		.word	I2C_1_state
 1154 00b4 64000740 		.word	1074200676
 1155 00b8 00000000 		.word	I2C_1_mstrStatus
 1156 00bc 00000000 		.word	I2C_1_mstrRdBufIndex
 1157 00c0 00000000 		.word	I2C_1_mstrRdBufPtr
 1158 00c4 00000000 		.word	I2C_1_mstrRdBufSize
 1159 00c8 00000000 		.word	I2C_1_mstrControl
 1160 00cc 000F0740 		.word	1074204416
 1161 00d0 17030000 		.word	791
 1162 00d4 40020740 		.word	1074201152
 1163 00d8 68000740 		.word	1074200680
 1164 00dc C80F0740 		.word	1074204616
 1165 00e0 60000740 		.word	1074200672
 1166              		.cfi_endproc
 1167              	.LFE1:
 1168              		.size	I2C_1_I2CMasterReadBuf, .-I2C_1_I2CMasterReadBuf
 1169              		.section	.text.I2C_1_I2CMasterWriteBuf,"ax",%progbits
 1170              		.align	1
 1171              		.global	I2C_1_I2CMasterWriteBuf
 1172              		.code	16
 1173              		.thumb_func
 1174              		.type	I2C_1_I2CMasterWriteBuf, %function
 1175              	I2C_1_I2CMasterWriteBuf:
 1176              	.LFB0:
  76:.\Generated_Source\PSoC4/I2C_1_I2C_MASTER.c **** {
 1177              		.loc 1 76 0
 1178              		.cfi_startproc
 1179              	.LVL88:
 1180 0000 F7B5     		push	{r0, r1, r2, r4, r5, r6, r7, lr}
 1181              	.LCFI8:
 1182              		.cfi_def_cfa_offset 32
 1183              		.cfi_offset 0, -32
 1184              		.cfi_offset 1, -28
 1185              		.cfi_offset 2, -24
 1186              		.cfi_offset 4, -20
 1187              		.cfi_offset 5, -16
ARM GAS  C:\Users\Milo\AppData\Local\Temp\ccfBxLki.s 			page 41


 1188              		.cfi_offset 6, -12
 1189              		.cfi_offset 7, -8
 1190              		.cfi_offset 14, -4
  76:.\Generated_Source\PSoC4/I2C_1_I2C_MASTER.c **** {
 1191              		.loc 1 76 0
 1192 0002 071C     		mov	r7, r0
 1193 0004 0D1C     		mov	r5, r1
 1194 0006 0192     		str	r2, [sp, #4]
 1195 0008 0093     		str	r3, [sp]
  81:.\Generated_Source\PSoC4/I2C_1_I2C_MASTER.c ****     if(NULL != wrData)  /* Check buffer pointer */
 1196              		.loc 1 81 0
 1197 000a 16D0     		beq	.L158
  84:.\Generated_Source\PSoC4/I2C_1_I2C_MASTER.c ****         if(I2C_1_CHECK_I2C_FSM_IDLE)
 1198              		.loc 1 84 0
 1199 000c 254E     		ldr	r6, .L163
 1200 000e 3378     		ldrb	r3, [r6]
 1201              	.LVL89:
 1202 0010 102B     		cmp	r3, #16
 1203 0012 08D1     		bne	.L152
  86:.\Generated_Source\PSoC4/I2C_1_I2C_MASTER.c ****             I2C_1_DisableInt();
 1204              		.loc 1 86 0
 1205 0014 0B20     		mov	r0, #11
 1206              	.LVL90:
 1207 0016 FFF7FEFF 		bl	CyIntDisable
 1208              	.LVL91:
  89:.\Generated_Source\PSoC4/I2C_1_I2C_MASTER.c ****             errStatus = I2C_1_CHECK_I2C_STATUS(I2C_1_I2C_STATUS_BUS_BUSY) ?
 1209              		.loc 1 89 0
 1210 001a 234B     		ldr	r3, .L163+4
 1211 001c 0824     		mov	r4, #8
 1212 001e 1868     		ldr	r0, [r3]
 1213 0020 C207     		lsl	r2, r0, #31
 1214 0022 39D4     		bmi	.L155
 1215 0024 0BE0     		b	.L153
 1216              	.LVL92:
 1217              	.L152:
  92:.\Generated_Source\PSoC4/I2C_1_I2C_MASTER.c ****         else if(I2C_1_CHECK_I2C_FSM_HALT)
 1218              		.loc 1 92 0
 1219 0026 3078     		ldrb	r0, [r6]
 1220              	.LVL93:
  79:.\Generated_Source\PSoC4/I2C_1_I2C_MASTER.c ****     errStatus = I2C_1_I2C_MSTR_NOT_READY;
 1221              		.loc 1 79 0
 1222 0028 0424     		mov	r4, #4
  92:.\Generated_Source\PSoC4/I2C_1_I2C_MASTER.c ****         else if(I2C_1_CHECK_I2C_FSM_HALT)
 1223              		.loc 1 92 0
 1224 002a 6028     		cmp	r0, #96
 1225 002c 34D1     		bne	.L155
  94:.\Generated_Source\PSoC4/I2C_1_I2C_MASTER.c ****             I2C_1_mstrStatus &= (uint16) ~I2C_1_I2C_MSTAT_XFER_HALT;
 1226              		.loc 1 94 0
 1227 002e 1F4C     		ldr	r4, .L163+8
 1228 0030 0821     		mov	r1, #8
 1229              	.LVL94:
 1230 0032 2288     		ldrh	r2, [r4]
 1231              	.LVL95:
 1232 0034 8A43     		bic	r2, r1
 1233 0036 2280     		strh	r2, [r4]
 1234              	.LVL96:
 1235 0038 01E0     		b	.L153
ARM GAS  C:\Users\Milo\AppData\Local\Temp\ccfBxLki.s 			page 42


 1236              	.LVL97:
 1237              	.L158:
  79:.\Generated_Source\PSoC4/I2C_1_I2C_MASTER.c ****     errStatus = I2C_1_I2C_MSTR_NOT_READY;
 1238              		.loc 1 79 0
 1239 003a 0424     		mov	r4, #4
 1240 003c 2CE0     		b	.L155
 1241              	.LVL98:
 1242              	.L153:
 108:.\Generated_Source\PSoC4/I2C_1_I2C_MASTER.c ****         I2C_1_state = I2C_1_I2C_FSM_MSTR_WR_ADDR;
 1243              		.loc 1 108 0
 1244 003e 2824     		mov	r4, #40
 1245 0040 3470     		strb	r4, [r6]
 112:.\Generated_Source\PSoC4/I2C_1_I2C_MASTER.c ****         I2C_1_mstrWrBufPtr      = (volatile uint8 *) wrData;
 1246              		.loc 1 112 0
 1247 0042 1B4C     		ldr	r4, .L163+12
 109:.\Generated_Source\PSoC4/I2C_1_I2C_MASTER.c ****         I2C_1_mstrWrBufIndexTmp = 0u;
 1248              		.loc 1 109 0
 1249 0044 1B4A     		ldr	r2, .L163+16
 110:.\Generated_Source\PSoC4/I2C_1_I2C_MASTER.c ****         I2C_1_mstrWrBufIndex    = 0u;
 1250              		.loc 1 110 0
 1251 0046 1C49     		ldr	r1, .L163+20
 111:.\Generated_Source\PSoC4/I2C_1_I2C_MASTER.c ****         I2C_1_mstrWrBufSize     = cnt;
 1252              		.loc 1 111 0
 1253 0048 0198     		ldr	r0, [sp, #4]
 112:.\Generated_Source\PSoC4/I2C_1_I2C_MASTER.c ****         I2C_1_mstrWrBufPtr      = (volatile uint8 *) wrData;
 1254              		.loc 1 112 0
 1255 004a 2560     		str	r5, [r4]
 109:.\Generated_Source\PSoC4/I2C_1_I2C_MASTER.c ****         I2C_1_mstrWrBufIndexTmp = 0u;
 1256              		.loc 1 109 0
 1257 004c 0026     		mov	r6, #0
 111:.\Generated_Source\PSoC4/I2C_1_I2C_MASTER.c ****         I2C_1_mstrWrBufSize     = cnt;
 1258              		.loc 1 111 0
 1259 004e 1B4B     		ldr	r3, .L163+24
 113:.\Generated_Source\PSoC4/I2C_1_I2C_MASTER.c ****         I2C_1_mstrControl       = (uint8) mode;
 1260              		.loc 1 113 0
 1261 0050 6D46     		mov	r5, sp
 1262              	.LVL99:
 109:.\Generated_Source\PSoC4/I2C_1_I2C_MASTER.c ****         I2C_1_mstrWrBufIndexTmp = 0u;
 1263              		.loc 1 109 0
 1264 0052 1660     		str	r6, [r2]
 110:.\Generated_Source\PSoC4/I2C_1_I2C_MASTER.c ****         I2C_1_mstrWrBufIndex    = 0u;
 1265              		.loc 1 110 0
 1266 0054 0E60     		str	r6, [r1]
 113:.\Generated_Source\PSoC4/I2C_1_I2C_MASTER.c ****         I2C_1_mstrControl       = (uint8) mode;
 1267              		.loc 1 113 0
 1268 0056 1A4A     		ldr	r2, .L163+28
 1269 0058 2E78     		ldrb	r6, [r5]
 111:.\Generated_Source\PSoC4/I2C_1_I2C_MASTER.c ****         I2C_1_mstrWrBufSize     = cnt;
 1270              		.loc 1 111 0
 1271 005a 1860     		str	r0, [r3]
 117:.\Generated_Source\PSoC4/I2C_1_I2C_MASTER.c ****         I2C_1_mstrStatus &= (uint16) ~I2C_1_I2C_MSTAT_WR_CMPLT;
 1272              		.loc 1 117 0
 1273 005c 134B     		ldr	r3, .L163+8
 113:.\Generated_Source\PSoC4/I2C_1_I2C_MASTER.c ****         I2C_1_mstrControl       = (uint8) mode;
 1274              		.loc 1 113 0
 1275 005e 1670     		strb	r6, [r2]
 117:.\Generated_Source\PSoC4/I2C_1_I2C_MASTER.c ****         I2C_1_mstrStatus &= (uint16) ~I2C_1_I2C_MSTAT_WR_CMPLT;
ARM GAS  C:\Users\Milo\AppData\Local\Temp\ccfBxLki.s 			page 43


 1276              		.loc 1 117 0
 1277 0060 1888     		ldrh	r0, [r3]
 1278 0062 0225     		mov	r5, #2
 1279              	.LVL100:
 115:.\Generated_Source\PSoC4/I2C_1_I2C_MASTER.c ****         slaveAddress = I2C_1_GET_I2C_8BIT_ADDRESS(slaveAddress);
 1280              		.loc 1 115 0
 1281 0064 FF21     		mov	r1, #255
 1282 0066 7F00     		lsl	r7, r7, #1
 1283              	.LVL101:
 117:.\Generated_Source\PSoC4/I2C_1_I2C_MASTER.c ****         I2C_1_mstrStatus &= (uint16) ~I2C_1_I2C_MSTAT_WR_CMPLT;
 1284              		.loc 1 117 0
 1285 0068 A843     		bic	r0, r5
 1286 006a 1880     		strh	r0, [r3]
 119:.\Generated_Source\PSoC4/I2C_1_I2C_MASTER.c ****         I2C_1_ClearMasterInterruptSource(I2C_1_INTR_MASTER_ALL);
 1287              		.loc 1 119 0
 1288 006c 154C     		ldr	r4, .L163+32
 115:.\Generated_Source\PSoC4/I2C_1_I2C_MASTER.c ****         slaveAddress = I2C_1_GET_I2C_8BIT_ADDRESS(slaveAddress);
 1289              		.loc 1 115 0
 1290 006e 0F40     		and	r7, r1
 1291              	.LVL102:
 119:.\Generated_Source\PSoC4/I2C_1_I2C_MASTER.c ****         I2C_1_ClearMasterInterruptSource(I2C_1_INTR_MASTER_ALL);
 1292              		.loc 1 119 0
 1293 0070 154E     		ldr	r6, .L163+36
 120:.\Generated_Source\PSoC4/I2C_1_I2C_MASTER.c ****         I2C_1_ClearTxInterruptSource(I2C_1_INTR_TX_UNDERFLOW);
 1294              		.loc 1 120 0
 1295 0072 1649     		ldr	r1, .L163+40
 124:.\Generated_Source\PSoC4/I2C_1_I2C_MASTER.c ****         if(I2C_1_CHECK_I2C_MODE_RESTART(mode))
 1296              		.loc 1 124 0
 1297 0074 009B     		ldr	r3, [sp]
 120:.\Generated_Source\PSoC4/I2C_1_I2C_MASTER.c ****         I2C_1_ClearTxInterruptSource(I2C_1_INTR_TX_UNDERFLOW);
 1298              		.loc 1 120 0
 1299 0076 4022     		mov	r2, #64
 119:.\Generated_Source\PSoC4/I2C_1_I2C_MASTER.c ****         I2C_1_ClearMasterInterruptSource(I2C_1_INTR_MASTER_ALL);
 1300              		.loc 1 119 0
 1301 0078 3460     		str	r4, [r6]
 120:.\Generated_Source\PSoC4/I2C_1_I2C_MASTER.c ****         I2C_1_ClearTxInterruptSource(I2C_1_INTR_TX_UNDERFLOW);
 1302              		.loc 1 120 0
 1303 007a 0A60     		str	r2, [r1]
 1304 007c 144C     		ldr	r4, .L163+44
 124:.\Generated_Source\PSoC4/I2C_1_I2C_MASTER.c ****         if(I2C_1_CHECK_I2C_MODE_RESTART(mode))
 1305              		.loc 1 124 0
 1306 007e DB07     		lsl	r3, r3, #31
 1307 0080 03D5     		bpl	.L162
 126:.\Generated_Source\PSoC4/I2C_1_I2C_MASTER.c ****             I2C_1_I2C_MASTER_GENERATE_RESTART;
 1308              		.loc 1 126 0
 1309 0082 FFF7FEFF 		bl	I2C_1_I2CReStartGeneration
 1310              	.LVL103:
 127:.\Generated_Source\PSoC4/I2C_1_I2C_MASTER.c ****             I2C_1_TX_FIFO_WR_REG = slaveAddress;
 1311              		.loc 1 127 0
 1312 0086 2760     		str	r7, [r4]
 1313 0088 02E0     		b	.L154
 1314              	.LVL104:
 1315              	.L162:
 131:.\Generated_Source\PSoC4/I2C_1_I2C_MASTER.c ****             I2C_1_TX_FIFO_WR_REG = slaveAddress;
 1316              		.loc 1 131 0
 1317 008a 2760     		str	r7, [r4]
 132:.\Generated_Source\PSoC4/I2C_1_I2C_MASTER.c ****             I2C_1_I2C_MASTER_GENERATE_START;
ARM GAS  C:\Users\Milo\AppData\Local\Temp\ccfBxLki.s 			page 44


 1318              		.loc 1 132 0
 1319 008c 114F     		ldr	r7, .L163+48
 1320              	.LVL105:
 1321 008e 3D60     		str	r5, [r7]
 1322              	.LVL106:
 1323              	.L154:
 136:.\Generated_Source\PSoC4/I2C_1_I2C_MASTER.c ****         I2C_1_SetTxInterruptMode(I2C_1_INTR_TX_UNDERFLOW);
 1324              		.loc 1 136 0
 1325 0090 114D     		ldr	r5, .L163+52
 1326 0092 4020     		mov	r0, #64
 1327 0094 2860     		str	r0, [r5]
 1328 0096 0024     		mov	r4, #0
 1329              	.LVL107:
 1330              	.L155:
 139:.\Generated_Source\PSoC4/I2C_1_I2C_MASTER.c ****     I2C_1_EnableInt();
 1331              		.loc 1 139 0
 1332 0098 0B20     		mov	r0, #11
 1333 009a FFF7FEFF 		bl	CyIntEnable
 1334              	.LVL108:
 142:.\Generated_Source\PSoC4/I2C_1_I2C_MASTER.c **** }
 1335              		.loc 1 142 0
 1336              		@ sp needed for prologue
 1337 009e 201C     		mov	r0, r4
 1338 00a0 FEBD     		pop	{r1, r2, r3, r4, r5, r6, r7, pc}
 1339              	.L164:
 1340 00a2 C046     		.align	2
 1341              	.L163:
 1342 00a4 00000000 		.word	I2C_1_state
 1343 00a8 64000740 		.word	1074200676
 1344 00ac 00000000 		.word	I2C_1_mstrStatus
 1345 00b0 00000000 		.word	I2C_1_mstrWrBufPtr
 1346 00b4 00000000 		.word	I2C_1_mstrWrBufIndexTmp
 1347 00b8 00000000 		.word	I2C_1_mstrWrBufIndex
 1348 00bc 00000000 		.word	I2C_1_mstrWrBufSize
 1349 00c0 00000000 		.word	I2C_1_mstrControl
 1350 00c4 17030000 		.word	791
 1351 00c8 000F0740 		.word	1074204416
 1352 00cc 800F0740 		.word	1074204544
 1353 00d0 40020740 		.word	1074201152
 1354 00d4 68000740 		.word	1074200680
 1355 00d8 880F0740 		.word	1074204552
 1356              		.cfi_endproc
 1357              	.LFE0:
 1358              		.size	I2C_1_I2CMasterWriteBuf, .-I2C_1_I2CMasterWriteBuf
 1359              		.comm	I2C_1_mstrWrBufIndexTmp,4,4
 1360              		.comm	I2C_1_mstrWrBufIndex,4,4
 1361              		.comm	I2C_1_mstrWrBufSize,4,4
 1362              		.comm	I2C_1_mstrWrBufPtr,4,4
 1363              		.comm	I2C_1_mstrRdBufIndex,4,4
 1364              		.comm	I2C_1_mstrRdBufSize,4,4
 1365              		.comm	I2C_1_mstrRdBufPtr,4,4
 1366              		.comm	I2C_1_mstrControl,1,1
 1367              		.comm	I2C_1_mstrStatus,2,2
 1368              		.text
 1369              	.Letext0:
 1370              		.file 2 "./Generated_Source/PSoC4/cytypes.h"
 1371              		.file 3 ".\\Generated_Source\\PSoC4\\I2C_1_I2C_PVT.h"
ARM GAS  C:\Users\Milo\AppData\Local\Temp\ccfBxLki.s 			page 45


 1372              		.file 4 "./Generated_Source/PSoC4/CyLib.h"
 1373              		.file 5 ".\\Generated_Source\\PSoC4\\I2C_1_scl.h"
 1374              		.file 6 ".\\Generated_Source\\PSoC4\\I2C_1_sda.h"