ARM GAS  C:\Users\Milo\AppData\Local\Temp\ccfBxLki.s 			page 1


   1              		.cpu cortex-m0
   2              		.fpu softvfp
   3              		.eabi_attribute 20, 1
   4              		.eabi_attribute 21, 1
   5              		.eabi_attribute 23, 3
   6              		.eabi_attribute 24, 1
   7              		.eabi_attribute 25, 1
   8              		.eabi_attribute 26, 1
   9              		.eabi_attribute 30, 4
  10              		.eabi_attribute 34, 0
  11              		.eabi_attribute 18, 4
  12              		.code	16
  13              		.file	"I2C_1_I2C_MASTER.c"
  14              		.text
  15              	.Ltext0:
  16              		.cfi_sections	.debug_frame
  17              		.section	.text.I2C_1_I2CMasterSendStart,"ax",%progbits
  18              		.align	1
  19              		.global	I2C_1_I2CMasterSendStart
  20              		.code	16
  21              		.thumb_func
  22              		.type	I2C_1_I2CMasterSendStart, %function
  23              	I2C_1_I2CMasterSendStart:
  24              	.LFB2:
  25              		.file 1 ".\\Generated_Source\\PSoC4\\I2C_1_I2C_MASTER.c"
   1:.\Generated_Source\PSoC4/I2C_1_I2C_MASTER.c **** /*******************************************************************************
   2:.\Generated_Source\PSoC4/I2C_1_I2C_MASTER.c **** * File Name: I2C_1_I2C_MASTER.c
   3:.\Generated_Source\PSoC4/I2C_1_I2C_MASTER.c **** * Version 1.20
   4:.\Generated_Source\PSoC4/I2C_1_I2C_MASTER.c **** *
   5:.\Generated_Source\PSoC4/I2C_1_I2C_MASTER.c **** * Description:
   6:.\Generated_Source\PSoC4/I2C_1_I2C_MASTER.c **** *  This file provides the source code to the API for the SCB Component in
   7:.\Generated_Source\PSoC4/I2C_1_I2C_MASTER.c **** *  I2C Master mode.
   8:.\Generated_Source\PSoC4/I2C_1_I2C_MASTER.c **** *
   9:.\Generated_Source\PSoC4/I2C_1_I2C_MASTER.c **** * Note:
  10:.\Generated_Source\PSoC4/I2C_1_I2C_MASTER.c **** *
  11:.\Generated_Source\PSoC4/I2C_1_I2C_MASTER.c **** *******************************************************************************
  12:.\Generated_Source\PSoC4/I2C_1_I2C_MASTER.c **** * Copyright 2013-2014, Cypress Semiconductor Corporation.  All rights reserved.
  13:.\Generated_Source\PSoC4/I2C_1_I2C_MASTER.c **** * You may use this file only in accordance with the license, terms, conditions,
  14:.\Generated_Source\PSoC4/I2C_1_I2C_MASTER.c **** * disclaimers, and limitations in the end user license agreement accompanying
  15:.\Generated_Source\PSoC4/I2C_1_I2C_MASTER.c **** * the software package with which this file was provided.
  16:.\Generated_Source\PSoC4/I2C_1_I2C_MASTER.c **** *******************************************************************************/
  17:.\Generated_Source\PSoC4/I2C_1_I2C_MASTER.c **** 
  18:.\Generated_Source\PSoC4/I2C_1_I2C_MASTER.c **** #include "I2C_1_PVT.h"
  19:.\Generated_Source\PSoC4/I2C_1_I2C_MASTER.c **** #include "I2C_1_I2C_PVT.h"
  20:.\Generated_Source\PSoC4/I2C_1_I2C_MASTER.c **** 
  21:.\Generated_Source\PSoC4/I2C_1_I2C_MASTER.c **** #if(I2C_1_I2C_MASTER_CONST)
  22:.\Generated_Source\PSoC4/I2C_1_I2C_MASTER.c **** 
  23:.\Generated_Source\PSoC4/I2C_1_I2C_MASTER.c **** /***************************************
  24:.\Generated_Source\PSoC4/I2C_1_I2C_MASTER.c **** *      I2C Master Private Vars
  25:.\Generated_Source\PSoC4/I2C_1_I2C_MASTER.c **** ***************************************/
  26:.\Generated_Source\PSoC4/I2C_1_I2C_MASTER.c **** 
  27:.\Generated_Source\PSoC4/I2C_1_I2C_MASTER.c **** /* Master variables */
  28:.\Generated_Source\PSoC4/I2C_1_I2C_MASTER.c **** volatile uint16 I2C_1_mstrStatus;      /* Master Status byte  */
  29:.\Generated_Source\PSoC4/I2C_1_I2C_MASTER.c **** volatile uint8  I2C_1_mstrControl;     /* Master Control byte */
  30:.\Generated_Source\PSoC4/I2C_1_I2C_MASTER.c **** 
  31:.\Generated_Source\PSoC4/I2C_1_I2C_MASTER.c **** /* Receive buffer variables */
  32:.\Generated_Source\PSoC4/I2C_1_I2C_MASTER.c **** volatile uint8 * I2C_1_mstrRdBufPtr;   /* Pointer to Master Read buffer */
ARM GAS  C:\Users\Milo\AppData\Local\Temp\ccfBxLki.s 			page 2


  33:.\Generated_Source\PSoC4/I2C_1_I2C_MASTER.c **** volatile uint32  I2C_1_mstrRdBufSize;  /* Master Read buffer size       */
  34:.\Generated_Source\PSoC4/I2C_1_I2C_MASTER.c **** volatile uint32  I2C_1_mstrRdBufIndex; /* Master Read buffer Index      */
  35:.\Generated_Source\PSoC4/I2C_1_I2C_MASTER.c **** 
  36:.\Generated_Source\PSoC4/I2C_1_I2C_MASTER.c **** /* Transmit buffer variables */
  37:.\Generated_Source\PSoC4/I2C_1_I2C_MASTER.c **** volatile uint8 * I2C_1_mstrWrBufPtr;   /* Pointer to Master Write buffer */
  38:.\Generated_Source\PSoC4/I2C_1_I2C_MASTER.c **** volatile uint32  I2C_1_mstrWrBufSize;  /* Master Write buffer size       */
  39:.\Generated_Source\PSoC4/I2C_1_I2C_MASTER.c **** volatile uint32  I2C_1_mstrWrBufIndex; /* Master Write buffer Index      */
  40:.\Generated_Source\PSoC4/I2C_1_I2C_MASTER.c **** volatile uint32  I2C_1_mstrWrBufIndexTmp; /* Master Write buffer Index Tmp */
  41:.\Generated_Source\PSoC4/I2C_1_I2C_MASTER.c **** 
  42:.\Generated_Source\PSoC4/I2C_1_I2C_MASTER.c **** 
  43:.\Generated_Source\PSoC4/I2C_1_I2C_MASTER.c **** /*******************************************************************************
  44:.\Generated_Source\PSoC4/I2C_1_I2C_MASTER.c **** * Function Name: I2C_1_I2CMasterWriteBuf
  45:.\Generated_Source\PSoC4/I2C_1_I2C_MASTER.c **** ********************************************************************************
  46:.\Generated_Source\PSoC4/I2C_1_I2C_MASTER.c **** *
  47:.\Generated_Source\PSoC4/I2C_1_I2C_MASTER.c **** * Summary:
  48:.\Generated_Source\PSoC4/I2C_1_I2C_MASTER.c **** * Automatically writes an entire buffer of data to a slave device.
  49:.\Generated_Source\PSoC4/I2C_1_I2C_MASTER.c **** * Once the data transfer is initiated by this function, further data transfer
  50:.\Generated_Source\PSoC4/I2C_1_I2C_MASTER.c **** * is handled by the included ISR.
  51:.\Generated_Source\PSoC4/I2C_1_I2C_MASTER.c **** * Enables the I2C interrupt and clears SCB_ I2C_MSTAT_WR_CMPLT status.
  52:.\Generated_Source\PSoC4/I2C_1_I2C_MASTER.c **** *
  53:.\Generated_Source\PSoC4/I2C_1_I2C_MASTER.c **** * Parameters:
  54:.\Generated_Source\PSoC4/I2C_1_I2C_MASTER.c **** *  slaveAddr: 7-bit slave address.
  55:.\Generated_Source\PSoC4/I2C_1_I2C_MASTER.c **** *  xferData:  Pointer to buffer of data to be sent.
  56:.\Generated_Source\PSoC4/I2C_1_I2C_MASTER.c **** *  cnt:       Size of buffer to send.
  57:.\Generated_Source\PSoC4/I2C_1_I2C_MASTER.c **** *  mode:      Transfer mode defines: start or restart condition generation at
  58:.\Generated_Source\PSoC4/I2C_1_I2C_MASTER.c **** *             begin of the transfer and complete the transfer or halt before
  59:.\Generated_Source\PSoC4/I2C_1_I2C_MASTER.c **** *             generating a stop.
  60:.\Generated_Source\PSoC4/I2C_1_I2C_MASTER.c **** *
  61:.\Generated_Source\PSoC4/I2C_1_I2C_MASTER.c **** * Return:
  62:.\Generated_Source\PSoC4/I2C_1_I2C_MASTER.c **** *  Error status.
  63:.\Generated_Source\PSoC4/I2C_1_I2C_MASTER.c **** *
  64:.\Generated_Source\PSoC4/I2C_1_I2C_MASTER.c **** * Global variables:
  65:.\Generated_Source\PSoC4/I2C_1_I2C_MASTER.c **** *  I2C_1_mstrStatus  - used to store current status of I2C Master.
  66:.\Generated_Source\PSoC4/I2C_1_I2C_MASTER.c **** *  I2C_1_state       - used to store current state of software FSM.
  67:.\Generated_Source\PSoC4/I2C_1_I2C_MASTER.c **** *  I2C_1_mstrControl - used to control master end of transaction with
  68:.\Generated_Source\PSoC4/I2C_1_I2C_MASTER.c **** *  or without the Stop generation.
  69:.\Generated_Source\PSoC4/I2C_1_I2C_MASTER.c **** *  I2C_1_mstrWrBufPtr - used to store pointer to master write buffer.
  70:.\Generated_Source\PSoC4/I2C_1_I2C_MASTER.c **** *  I2C_1_mstrWrBufIndex - used to current index within master write
  71:.\Generated_Source\PSoC4/I2C_1_I2C_MASTER.c **** *  buffer.
  72:.\Generated_Source\PSoC4/I2C_1_I2C_MASTER.c **** *  I2C_1_mstrWrBufSize - used to store master write buffer size.
  73:.\Generated_Source\PSoC4/I2C_1_I2C_MASTER.c **** *
  74:.\Generated_Source\PSoC4/I2C_1_I2C_MASTER.c **** *******************************************************************************/
  75:.\Generated_Source\PSoC4/I2C_1_I2C_MASTER.c **** uint32 I2C_1_I2CMasterWriteBuf(uint32 slaveAddress, uint8 * wrData, uint32 cnt, uint32 mode)
  76:.\Generated_Source\PSoC4/I2C_1_I2C_MASTER.c **** {
  77:.\Generated_Source\PSoC4/I2C_1_I2C_MASTER.c ****     uint32 errStatus;
  78:.\Generated_Source\PSoC4/I2C_1_I2C_MASTER.c **** 
  79:.\Generated_Source\PSoC4/I2C_1_I2C_MASTER.c ****     errStatus = I2C_1_I2C_MSTR_NOT_READY;
  80:.\Generated_Source\PSoC4/I2C_1_I2C_MASTER.c **** 
  81:.\Generated_Source\PSoC4/I2C_1_I2C_MASTER.c ****     if(NULL != wrData)  /* Check buffer pointer */
  82:.\Generated_Source\PSoC4/I2C_1_I2C_MASTER.c ****     {
  83:.\Generated_Source\PSoC4/I2C_1_I2C_MASTER.c ****         /* Check FSM state and bus before generating Start/ReStart condition */
  84:.\Generated_Source\PSoC4/I2C_1_I2C_MASTER.c ****         if(I2C_1_CHECK_I2C_FSM_IDLE)
  85:.\Generated_Source\PSoC4/I2C_1_I2C_MASTER.c ****         {
  86:.\Generated_Source\PSoC4/I2C_1_I2C_MASTER.c ****             I2C_1_DisableInt();
  87:.\Generated_Source\PSoC4/I2C_1_I2C_MASTER.c **** 
  88:.\Generated_Source\PSoC4/I2C_1_I2C_MASTER.c ****             /* Check bus state */
  89:.\Generated_Source\PSoC4/I2C_1_I2C_MASTER.c ****             errStatus = I2C_1_CHECK_I2C_STATUS(I2C_1_I2C_STATUS_BUS_BUSY) ?
ARM GAS  C:\Users\Milo\AppData\Local\Temp\ccfBxLki.s 			page 3


  90:.\Generated_Source\PSoC4/I2C_1_I2C_MASTER.c ****                             I2C_1_I2C_MSTR_BUS_BUSY : I2C_1_I2C_MSTR_NO_ERROR;
  91:.\Generated_Source\PSoC4/I2C_1_I2C_MASTER.c ****         }
  92:.\Generated_Source\PSoC4/I2C_1_I2C_MASTER.c ****         else if(I2C_1_CHECK_I2C_FSM_HALT)
  93:.\Generated_Source\PSoC4/I2C_1_I2C_MASTER.c ****         {
  94:.\Generated_Source\PSoC4/I2C_1_I2C_MASTER.c ****             I2C_1_mstrStatus &= (uint16) ~I2C_1_I2C_MSTAT_XFER_HALT;
  95:.\Generated_Source\PSoC4/I2C_1_I2C_MASTER.c ****                               errStatus  = I2C_1_I2C_MSTR_NO_ERROR;
  96:.\Generated_Source\PSoC4/I2C_1_I2C_MASTER.c ****         }
  97:.\Generated_Source\PSoC4/I2C_1_I2C_MASTER.c ****         else
  98:.\Generated_Source\PSoC4/I2C_1_I2C_MASTER.c ****         {
  99:.\Generated_Source\PSoC4/I2C_1_I2C_MASTER.c ****             /* Unexpected FSM state: exit */
 100:.\Generated_Source\PSoC4/I2C_1_I2C_MASTER.c ****         }
 101:.\Generated_Source\PSoC4/I2C_1_I2C_MASTER.c ****     }
 102:.\Generated_Source\PSoC4/I2C_1_I2C_MASTER.c **** 
 103:.\Generated_Source\PSoC4/I2C_1_I2C_MASTER.c **** 
 104:.\Generated_Source\PSoC4/I2C_1_I2C_MASTER.c ****     /* Check if master is ready to start  */
 105:.\Generated_Source\PSoC4/I2C_1_I2C_MASTER.c ****     if(I2C_1_I2C_MSTR_NO_ERROR == errStatus) /* No error proceed */
 106:.\Generated_Source\PSoC4/I2C_1_I2C_MASTER.c ****     {
 107:.\Generated_Source\PSoC4/I2C_1_I2C_MASTER.c ****         /* Set up write transaction */
 108:.\Generated_Source\PSoC4/I2C_1_I2C_MASTER.c ****         I2C_1_state = I2C_1_I2C_FSM_MSTR_WR_ADDR;
 109:.\Generated_Source\PSoC4/I2C_1_I2C_MASTER.c ****         I2C_1_mstrWrBufIndexTmp = 0u;
 110:.\Generated_Source\PSoC4/I2C_1_I2C_MASTER.c ****         I2C_1_mstrWrBufIndex    = 0u;
 111:.\Generated_Source\PSoC4/I2C_1_I2C_MASTER.c ****         I2C_1_mstrWrBufSize     = cnt;
 112:.\Generated_Source\PSoC4/I2C_1_I2C_MASTER.c ****         I2C_1_mstrWrBufPtr      = (volatile uint8 *) wrData;
 113:.\Generated_Source\PSoC4/I2C_1_I2C_MASTER.c ****         I2C_1_mstrControl       = (uint8) mode;
 114:.\Generated_Source\PSoC4/I2C_1_I2C_MASTER.c **** 
 115:.\Generated_Source\PSoC4/I2C_1_I2C_MASTER.c ****         slaveAddress = I2C_1_GET_I2C_8BIT_ADDRESS(slaveAddress);
 116:.\Generated_Source\PSoC4/I2C_1_I2C_MASTER.c **** 
 117:.\Generated_Source\PSoC4/I2C_1_I2C_MASTER.c ****         I2C_1_mstrStatus &= (uint16) ~I2C_1_I2C_MSTAT_WR_CMPLT;
 118:.\Generated_Source\PSoC4/I2C_1_I2C_MASTER.c **** 
 119:.\Generated_Source\PSoC4/I2C_1_I2C_MASTER.c ****         I2C_1_ClearMasterInterruptSource(I2C_1_INTR_MASTER_ALL);
 120:.\Generated_Source\PSoC4/I2C_1_I2C_MASTER.c ****         I2C_1_ClearTxInterruptSource(I2C_1_INTR_TX_UNDERFLOW);
 121:.\Generated_Source\PSoC4/I2C_1_I2C_MASTER.c ****         /* The TX and RX FIFO have to be EMPTY */
 122:.\Generated_Source\PSoC4/I2C_1_I2C_MASTER.c **** 
 123:.\Generated_Source\PSoC4/I2C_1_I2C_MASTER.c ****         /* Generate Start or ReStart */
 124:.\Generated_Source\PSoC4/I2C_1_I2C_MASTER.c ****         if(I2C_1_CHECK_I2C_MODE_RESTART(mode))
 125:.\Generated_Source\PSoC4/I2C_1_I2C_MASTER.c ****         {
 126:.\Generated_Source\PSoC4/I2C_1_I2C_MASTER.c ****             I2C_1_I2C_MASTER_GENERATE_RESTART;
 127:.\Generated_Source\PSoC4/I2C_1_I2C_MASTER.c ****             I2C_1_TX_FIFO_WR_REG = slaveAddress;
 128:.\Generated_Source\PSoC4/I2C_1_I2C_MASTER.c ****         }
 129:.\Generated_Source\PSoC4/I2C_1_I2C_MASTER.c ****         else
 130:.\Generated_Source\PSoC4/I2C_1_I2C_MASTER.c ****         {
 131:.\Generated_Source\PSoC4/I2C_1_I2C_MASTER.c ****             I2C_1_TX_FIFO_WR_REG = slaveAddress;
 132:.\Generated_Source\PSoC4/I2C_1_I2C_MASTER.c ****             I2C_1_I2C_MASTER_GENERATE_START;
 133:.\Generated_Source\PSoC4/I2C_1_I2C_MASTER.c ****         }
 134:.\Generated_Source\PSoC4/I2C_1_I2C_MASTER.c **** 
 135:.\Generated_Source\PSoC4/I2C_1_I2C_MASTER.c ****          /* Catch when address is sent */
 136:.\Generated_Source\PSoC4/I2C_1_I2C_MASTER.c ****         I2C_1_SetTxInterruptMode(I2C_1_INTR_TX_UNDERFLOW);
 137:.\Generated_Source\PSoC4/I2C_1_I2C_MASTER.c ****     }
 138:.\Generated_Source\PSoC4/I2C_1_I2C_MASTER.c **** 
 139:.\Generated_Source\PSoC4/I2C_1_I2C_MASTER.c ****     I2C_1_EnableInt();
 140:.\Generated_Source\PSoC4/I2C_1_I2C_MASTER.c **** 
 141:.\Generated_Source\PSoC4/I2C_1_I2C_MASTER.c ****     return(errStatus);
 142:.\Generated_Source\PSoC4/I2C_1_I2C_MASTER.c **** }
 143:.\Generated_Source\PSoC4/I2C_1_I2C_MASTER.c **** 
 144:.\Generated_Source\PSoC4/I2C_1_I2C_MASTER.c **** 
 145:.\Generated_Source\PSoC4/I2C_1_I2C_MASTER.c **** /*******************************************************************************
 146:.\Generated_Source\PSoC4/I2C_1_I2C_MASTER.c **** * Function Name: I2C_1_I2CMasterReadBuf
ARM GAS  C:\Users\Milo\AppData\Local\Temp\ccfBxLki.s 			page 4


 147:.\Generated_Source\PSoC4/I2C_1_I2C_MASTER.c **** ********************************************************************************
 148:.\Generated_Source\PSoC4/I2C_1_I2C_MASTER.c **** *
 149:.\Generated_Source\PSoC4/I2C_1_I2C_MASTER.c **** * Summary:
 150:.\Generated_Source\PSoC4/I2C_1_I2C_MASTER.c **** *  Automatically reads an entire buffer of data from a slave device.
 151:.\Generated_Source\PSoC4/I2C_1_I2C_MASTER.c **** *  Once the data transfer is initiated by this function, further data transfer
 152:.\Generated_Source\PSoC4/I2C_1_I2C_MASTER.c **** *  is handled by the included ISR.
 153:.\Generated_Source\PSoC4/I2C_1_I2C_MASTER.c **** * Enables the I2C interrupt and clears SCB_ I2C_MSTAT_RD_CMPLT status.
 154:.\Generated_Source\PSoC4/I2C_1_I2C_MASTER.c **** *
 155:.\Generated_Source\PSoC4/I2C_1_I2C_MASTER.c **** * Parameters:
 156:.\Generated_Source\PSoC4/I2C_1_I2C_MASTER.c **** *  slaveAddr: 7-bit slave address.
 157:.\Generated_Source\PSoC4/I2C_1_I2C_MASTER.c **** *  xferData:  Pointer to buffer where to put data from slave.
 158:.\Generated_Source\PSoC4/I2C_1_I2C_MASTER.c **** *  cnt:       Size of buffer to read.
 159:.\Generated_Source\PSoC4/I2C_1_I2C_MASTER.c **** *  mode:      Transfer mode defines: start or restart condition generation at
 160:.\Generated_Source\PSoC4/I2C_1_I2C_MASTER.c **** *             begin of the transfer and complete the transfer or halt before
 161:.\Generated_Source\PSoC4/I2C_1_I2C_MASTER.c **** *             generating a stop.
 162:.\Generated_Source\PSoC4/I2C_1_I2C_MASTER.c **** *
 163:.\Generated_Source\PSoC4/I2C_1_I2C_MASTER.c **** * Return:
 164:.\Generated_Source\PSoC4/I2C_1_I2C_MASTER.c **** *  Error status.
 165:.\Generated_Source\PSoC4/I2C_1_I2C_MASTER.c **** *
 166:.\Generated_Source\PSoC4/I2C_1_I2C_MASTER.c **** * Global variables:
 167:.\Generated_Source\PSoC4/I2C_1_I2C_MASTER.c **** *  I2C_1_mstrStatus  - used to store current status of I2C Master.
 168:.\Generated_Source\PSoC4/I2C_1_I2C_MASTER.c **** *  I2C_1_state       - used to store current state of software FSM.
 169:.\Generated_Source\PSoC4/I2C_1_I2C_MASTER.c **** *  I2C_1_mstrControl - used to control master end of transaction with
 170:.\Generated_Source\PSoC4/I2C_1_I2C_MASTER.c **** *  or without the Stop generation.
 171:.\Generated_Source\PSoC4/I2C_1_I2C_MASTER.c **** *  I2C_1_mstrRdBufPtr - used to store pointer to master write buffer.
 172:.\Generated_Source\PSoC4/I2C_1_I2C_MASTER.c **** *  I2C_1_mstrRdBufIndex - used to current index within master write
 173:.\Generated_Source\PSoC4/I2C_1_I2C_MASTER.c **** *  buffer.
 174:.\Generated_Source\PSoC4/I2C_1_I2C_MASTER.c **** *  I2C_1_mstrRdBufSize - used to store master write buffer size.
 175:.\Generated_Source\PSoC4/I2C_1_I2C_MASTER.c **** *
 176:.\Generated_Source\PSoC4/I2C_1_I2C_MASTER.c **** *******************************************************************************/
 177:.\Generated_Source\PSoC4/I2C_1_I2C_MASTER.c **** uint32 I2C_1_I2CMasterReadBuf(uint32 slaveAddress, uint8 * rdData, uint32 cnt, uint32 mode)
 178:.\Generated_Source\PSoC4/I2C_1_I2C_MASTER.c **** {
 179:.\Generated_Source\PSoC4/I2C_1_I2C_MASTER.c ****     uint32 errStatus;
 180:.\Generated_Source\PSoC4/I2C_1_I2C_MASTER.c **** 
 181:.\Generated_Source\PSoC4/I2C_1_I2C_MASTER.c ****     errStatus = I2C_1_I2C_MSTR_NOT_READY;
 182:.\Generated_Source\PSoC4/I2C_1_I2C_MASTER.c **** 
 183:.\Generated_Source\PSoC4/I2C_1_I2C_MASTER.c ****     if(NULL != rdData)
 184:.\Generated_Source\PSoC4/I2C_1_I2C_MASTER.c ****     {
 185:.\Generated_Source\PSoC4/I2C_1_I2C_MASTER.c ****         /* Check FSM state and bus before generating Start/ReStart condition */
 186:.\Generated_Source\PSoC4/I2C_1_I2C_MASTER.c ****         if(I2C_1_CHECK_I2C_FSM_IDLE)
 187:.\Generated_Source\PSoC4/I2C_1_I2C_MASTER.c ****         {
 188:.\Generated_Source\PSoC4/I2C_1_I2C_MASTER.c ****             I2C_1_DisableInt();
 189:.\Generated_Source\PSoC4/I2C_1_I2C_MASTER.c **** 
 190:.\Generated_Source\PSoC4/I2C_1_I2C_MASTER.c ****             /* Check bus state */
 191:.\Generated_Source\PSoC4/I2C_1_I2C_MASTER.c ****             errStatus = I2C_1_CHECK_I2C_STATUS(I2C_1_I2C_STATUS_BUS_BUSY) ?
 192:.\Generated_Source\PSoC4/I2C_1_I2C_MASTER.c ****                             I2C_1_I2C_MSTR_BUS_BUSY : I2C_1_I2C_MSTR_NO_ERROR;
 193:.\Generated_Source\PSoC4/I2C_1_I2C_MASTER.c ****         }
 194:.\Generated_Source\PSoC4/I2C_1_I2C_MASTER.c ****         else if(I2C_1_CHECK_I2C_FSM_HALT)
 195:.\Generated_Source\PSoC4/I2C_1_I2C_MASTER.c ****         {
 196:.\Generated_Source\PSoC4/I2C_1_I2C_MASTER.c ****             I2C_1_mstrStatus &= (uint16) ~I2C_1_I2C_MSTAT_XFER_HALT;
 197:.\Generated_Source\PSoC4/I2C_1_I2C_MASTER.c ****                               errStatus  =  I2C_1_I2C_MSTR_NO_ERROR;
 198:.\Generated_Source\PSoC4/I2C_1_I2C_MASTER.c ****         }
 199:.\Generated_Source\PSoC4/I2C_1_I2C_MASTER.c ****         else
 200:.\Generated_Source\PSoC4/I2C_1_I2C_MASTER.c ****         {
 201:.\Generated_Source\PSoC4/I2C_1_I2C_MASTER.c ****             /* Unexpected FSM state: exit */
 202:.\Generated_Source\PSoC4/I2C_1_I2C_MASTER.c ****         }
 203:.\Generated_Source\PSoC4/I2C_1_I2C_MASTER.c ****     }
ARM GAS  C:\Users\Milo\AppData\Local\Temp\ccfBxLki.s 			page 5


 204:.\Generated_Source\PSoC4/I2C_1_I2C_MASTER.c **** 
 205:.\Generated_Source\PSoC4/I2C_1_I2C_MASTER.c ****     /* Check master ready to proceed */
 206:.\Generated_Source\PSoC4/I2C_1_I2C_MASTER.c ****     if(I2C_1_I2C_MSTR_NO_ERROR == errStatus) /* No error proceed */
 207:.\Generated_Source\PSoC4/I2C_1_I2C_MASTER.c ****     {
 208:.\Generated_Source\PSoC4/I2C_1_I2C_MASTER.c ****         /* Set up read transaction */
 209:.\Generated_Source\PSoC4/I2C_1_I2C_MASTER.c ****         I2C_1_state = I2C_1_I2C_FSM_MSTR_RD_ADDR;
 210:.\Generated_Source\PSoC4/I2C_1_I2C_MASTER.c ****         I2C_1_mstrRdBufIndex = 0u;
 211:.\Generated_Source\PSoC4/I2C_1_I2C_MASTER.c ****         I2C_1_mstrRdBufSize  = cnt;
 212:.\Generated_Source\PSoC4/I2C_1_I2C_MASTER.c ****         I2C_1_mstrRdBufPtr   = (volatile uint8 *) rdData;
 213:.\Generated_Source\PSoC4/I2C_1_I2C_MASTER.c ****         I2C_1_mstrControl    = (uint8) mode;
 214:.\Generated_Source\PSoC4/I2C_1_I2C_MASTER.c **** 
 215:.\Generated_Source\PSoC4/I2C_1_I2C_MASTER.c ****         slaveAddress = (I2C_1_GET_I2C_8BIT_ADDRESS(slaveAddress) | I2C_1_I2C_READ_FLAG);
 216:.\Generated_Source\PSoC4/I2C_1_I2C_MASTER.c **** 
 217:.\Generated_Source\PSoC4/I2C_1_I2C_MASTER.c ****         I2C_1_mstrStatus &= (uint16) ~I2C_1_I2C_MSTAT_RD_CMPLT;
 218:.\Generated_Source\PSoC4/I2C_1_I2C_MASTER.c **** 
 219:.\Generated_Source\PSoC4/I2C_1_I2C_MASTER.c ****         I2C_1_ClearMasterInterruptSource(I2C_1_INTR_MASTER_ALL);
 220:.\Generated_Source\PSoC4/I2C_1_I2C_MASTER.c **** 
 221:.\Generated_Source\PSoC4/I2C_1_I2C_MASTER.c ****         /* The TX and RX FIFO have to be EMPTY */
 222:.\Generated_Source\PSoC4/I2C_1_I2C_MASTER.c **** 
 223:.\Generated_Source\PSoC4/I2C_1_I2C_MASTER.c ****         /* Generate Start or ReStart */
 224:.\Generated_Source\PSoC4/I2C_1_I2C_MASTER.c ****         if(I2C_1_CHECK_I2C_MODE_RESTART(mode))
 225:.\Generated_Source\PSoC4/I2C_1_I2C_MASTER.c ****         {
 226:.\Generated_Source\PSoC4/I2C_1_I2C_MASTER.c ****             I2C_1_I2C_MASTER_GENERATE_RESTART;
 227:.\Generated_Source\PSoC4/I2C_1_I2C_MASTER.c ****             I2C_1_TX_FIFO_WR_REG = (slaveAddress);
 228:.\Generated_Source\PSoC4/I2C_1_I2C_MASTER.c ****         }
 229:.\Generated_Source\PSoC4/I2C_1_I2C_MASTER.c ****         else
 230:.\Generated_Source\PSoC4/I2C_1_I2C_MASTER.c ****         {
 231:.\Generated_Source\PSoC4/I2C_1_I2C_MASTER.c ****             I2C_1_TX_FIFO_WR_REG = (slaveAddress);
 232:.\Generated_Source\PSoC4/I2C_1_I2C_MASTER.c ****             I2C_1_I2C_MASTER_GENERATE_START;
 233:.\Generated_Source\PSoC4/I2C_1_I2C_MASTER.c ****         }
 234:.\Generated_Source\PSoC4/I2C_1_I2C_MASTER.c **** 
 235:.\Generated_Source\PSoC4/I2C_1_I2C_MASTER.c ****         /* Prepare reading */
 236:.\Generated_Source\PSoC4/I2C_1_I2C_MASTER.c ****         if(I2C_1_mstrRdBufSize < I2C_1_I2C_FIFO_SIZE) /* Reading byte-by-byte */
 237:.\Generated_Source\PSoC4/I2C_1_I2C_MASTER.c ****         {
 238:.\Generated_Source\PSoC4/I2C_1_I2C_MASTER.c ****             I2C_1_SetRxInterruptMode(I2C_1_INTR_RX_NOT_EMPTY);
 239:.\Generated_Source\PSoC4/I2C_1_I2C_MASTER.c ****         }
 240:.\Generated_Source\PSoC4/I2C_1_I2C_MASTER.c ****         else /* Reading use RX FIFO */
 241:.\Generated_Source\PSoC4/I2C_1_I2C_MASTER.c ****         {
 242:.\Generated_Source\PSoC4/I2C_1_I2C_MASTER.c ****             I2C_1_ENABLE_MASTER_AUTO_DATA_ACK;
 243:.\Generated_Source\PSoC4/I2C_1_I2C_MASTER.c ****             I2C_1_SetRxInterruptMode(I2C_1_INTR_RX_FULL);
 244:.\Generated_Source\PSoC4/I2C_1_I2C_MASTER.c ****         }
 245:.\Generated_Source\PSoC4/I2C_1_I2C_MASTER.c ****     }
 246:.\Generated_Source\PSoC4/I2C_1_I2C_MASTER.c **** 
 247:.\Generated_Source\PSoC4/I2C_1_I2C_MASTER.c ****     I2C_1_EnableInt();
 248:.\Generated_Source\PSoC4/I2C_1_I2C_MASTER.c **** 
 249:.\Generated_Source\PSoC4/I2C_1_I2C_MASTER.c ****     return(errStatus);
 250:.\Generated_Source\PSoC4/I2C_1_I2C_MASTER.c **** }
 251:.\Generated_Source\PSoC4/I2C_1_I2C_MASTER.c **** 
 252:.\Generated_Source\PSoC4/I2C_1_I2C_MASTER.c **** 
 253:.\Generated_Source\PSoC4/I2C_1_I2C_MASTER.c **** /*******************************************************************************
 254:.\Generated_Source\PSoC4/I2C_1_I2C_MASTER.c **** * Function Name: I2C_1_I2CMasterSendStart
 255:.\Generated_Source\PSoC4/I2C_1_I2C_MASTER.c **** ********************************************************************************
 256:.\Generated_Source\PSoC4/I2C_1_I2C_MASTER.c **** *
 257:.\Generated_Source\PSoC4/I2C_1_I2C_MASTER.c **** * Summary:
 258:.\Generated_Source\PSoC4/I2C_1_I2C_MASTER.c **** *  Generates Start condition and sends slave address with read/write bit.
 259:.\Generated_Source\PSoC4/I2C_1_I2C_MASTER.c **** *  Disables the I2C interrupt.
 260:.\Generated_Source\PSoC4/I2C_1_I2C_MASTER.c **** *  This function is blocking and does not return until start condition and
ARM GAS  C:\Users\Milo\AppData\Local\Temp\ccfBxLki.s 			page 6


 261:.\Generated_Source\PSoC4/I2C_1_I2C_MASTER.c **** *  address byte are sent and ACK/NACK response is received or errors occurred.
 262:.\Generated_Source\PSoC4/I2C_1_I2C_MASTER.c **** *
 263:.\Generated_Source\PSoC4/I2C_1_I2C_MASTER.c **** * Parameters:
 264:.\Generated_Source\PSoC4/I2C_1_I2C_MASTER.c **** *  slaveAddress: Right justified 7-bit Slave address (valid range 8 to 120).
 265:.\Generated_Source\PSoC4/I2C_1_I2C_MASTER.c **** *  bitRnW:       Direction of the following transfer. It is defined by
 266:.\Generated_Source\PSoC4/I2C_1_I2C_MASTER.c **** *                read/write bit within address byte.
 267:.\Generated_Source\PSoC4/I2C_1_I2C_MASTER.c **** *
 268:.\Generated_Source\PSoC4/I2C_1_I2C_MASTER.c **** * Return:
 269:.\Generated_Source\PSoC4/I2C_1_I2C_MASTER.c **** *  Erorr status.
 270:.\Generated_Source\PSoC4/I2C_1_I2C_MASTER.c **** *
 271:.\Generated_Source\PSoC4/I2C_1_I2C_MASTER.c **** * Global variables:
 272:.\Generated_Source\PSoC4/I2C_1_I2C_MASTER.c **** *  I2C_1_state - used to store current state of software FSM.
 273:.\Generated_Source\PSoC4/I2C_1_I2C_MASTER.c **** *
 274:.\Generated_Source\PSoC4/I2C_1_I2C_MASTER.c **** *******************************************************************************/
 275:.\Generated_Source\PSoC4/I2C_1_I2C_MASTER.c **** uint32 I2C_1_I2CMasterSendStart(uint32 slaveAddress, uint32 bitRnW)
 276:.\Generated_Source\PSoC4/I2C_1_I2C_MASTER.c **** {
  26              		.loc 1 276 0
  27              		.cfi_startproc
  28              	.LVL0:
  29 0000 F8B5     		push	{r3, r4, r5, r6, r7, lr}
  30              	.LCFI0:
  31              		.cfi_def_cfa_offset 24
  32              		.cfi_offset 3, -24
  33              		.cfi_offset 4, -20
  34              		.cfi_offset 5, -16
  35              		.cfi_offset 6, -12
  36              		.cfi_offset 7, -8
  37              		.cfi_offset 14, -4
 277:.\Generated_Source\PSoC4/I2C_1_I2C_MASTER.c ****     uint32  resetIp;
 278:.\Generated_Source\PSoC4/I2C_1_I2C_MASTER.c ****     uint32 errStatus;
 279:.\Generated_Source\PSoC4/I2C_1_I2C_MASTER.c **** 
 280:.\Generated_Source\PSoC4/I2C_1_I2C_MASTER.c ****     resetIp   = 0u;
 281:.\Generated_Source\PSoC4/I2C_1_I2C_MASTER.c ****     errStatus = I2C_1_I2C_MSTR_NOT_READY;
 282:.\Generated_Source\PSoC4/I2C_1_I2C_MASTER.c **** 
 283:.\Generated_Source\PSoC4/I2C_1_I2C_MASTER.c ****     /* Check FSM state before generating Start condition */
 284:.\Generated_Source\PSoC4/I2C_1_I2C_MASTER.c ****     if(I2C_1_CHECK_I2C_FSM_IDLE)
  38              		.loc 1 284 0
  39 0002 254C     		ldr	r4, .L20
 276:.\Generated_Source\PSoC4/I2C_1_I2C_MASTER.c **** {
  40              		.loc 1 276 0
  41 0004 071C     		mov	r7, r0
  42              		.loc 1 284 0
  43 0006 2378     		ldrb	r3, [r4]
 276:.\Generated_Source\PSoC4/I2C_1_I2C_MASTER.c **** {
  44              		.loc 1 276 0
  45 0008 0E1C     		mov	r6, r1
 281:.\Generated_Source\PSoC4/I2C_1_I2C_MASTER.c ****     errStatus = I2C_1_I2C_MSTR_NOT_READY;
  46              		.loc 1 281 0
  47 000a 0420     		mov	r0, #4
  48              	.LVL1:
  49              		.loc 1 284 0
  50 000c 102B     		cmp	r3, #16
  51 000e 42D1     		bne	.L2
 285:.\Generated_Source\PSoC4/I2C_1_I2C_MASTER.c ****     {
 286:.\Generated_Source\PSoC4/I2C_1_I2C_MASTER.c ****         /* If bus is free, generate Start condition */
 287:.\Generated_Source\PSoC4/I2C_1_I2C_MASTER.c ****         if(I2C_1_CHECK_I2C_STATUS(I2C_1_I2C_STATUS_BUS_BUSY))
  52              		.loc 1 287 0
ARM GAS  C:\Users\Milo\AppData\Local\Temp\ccfBxLki.s 			page 7


  53 0010 2248     		ldr	r0, .L20+4
  54 0012 0125     		mov	r5, #1
  55 0014 0168     		ldr	r1, [r0]
  56              	.LVL2:
 288:.\Generated_Source\PSoC4/I2C_1_I2C_MASTER.c ****         {
 289:.\Generated_Source\PSoC4/I2C_1_I2C_MASTER.c ****             errStatus = I2C_1_I2C_MSTR_BUS_BUSY;
  57              		.loc 1 289 0
  58 0016 0820     		mov	r0, #8
 287:.\Generated_Source\PSoC4/I2C_1_I2C_MASTER.c ****         if(I2C_1_CHECK_I2C_STATUS(I2C_1_I2C_STATUS_BUS_BUSY))
  59              		.loc 1 287 0
  60 0018 2942     		tst	r1, r5
  61 001a 3CD1     		bne	.L2
 290:.\Generated_Source\PSoC4/I2C_1_I2C_MASTER.c ****         }
 291:.\Generated_Source\PSoC4/I2C_1_I2C_MASTER.c ****         else
 292:.\Generated_Source\PSoC4/I2C_1_I2C_MASTER.c ****         {
 293:.\Generated_Source\PSoC4/I2C_1_I2C_MASTER.c ****             I2C_1_DisableInt();
  62              		.loc 1 293 0
  63 001c 0B20     		mov	r0, #11
  64 001e FFF7FEFF 		bl	CyIntDisable
  65              	.LVL3:
 294:.\Generated_Source\PSoC4/I2C_1_I2C_MASTER.c **** 
 295:.\Generated_Source\PSoC4/I2C_1_I2C_MASTER.c ****             slaveAddress = I2C_1_GET_I2C_8BIT_ADDRESS(slaveAddress);
  66              		.loc 1 295 0
  67 0022 AF40     		lsl	r7, r7, r5
  68              	.LVL4:
  69 0024 FF22     		mov	r2, #255
  70 0026 1740     		and	r7, r2
  71              	.LVL5:
 296:.\Generated_Source\PSoC4/I2C_1_I2C_MASTER.c **** 
 297:.\Generated_Source\PSoC4/I2C_1_I2C_MASTER.c ****             if(0u == bitRnW) /* Write direction */
  72              		.loc 1 297 0
  73 0028 002E     		cmp	r6, #0
  74 002a 02D1     		bne	.L3
 298:.\Generated_Source\PSoC4/I2C_1_I2C_MASTER.c ****             {
 299:.\Generated_Source\PSoC4/I2C_1_I2C_MASTER.c ****                 I2C_1_state = I2C_1_I2C_FSM_MSTR_WR_DATA;
  75              		.loc 1 299 0
  76 002c 2423     		mov	r3, #36
  77 002e 2370     		strb	r3, [r4]
  78 0030 02E0     		b	.L4
  79              	.L3:
 300:.\Generated_Source\PSoC4/I2C_1_I2C_MASTER.c ****             }
 301:.\Generated_Source\PSoC4/I2C_1_I2C_MASTER.c ****             else /* Read direction */
 302:.\Generated_Source\PSoC4/I2C_1_I2C_MASTER.c ****             {
 303:.\Generated_Source\PSoC4/I2C_1_I2C_MASTER.c ****                 I2C_1_state = I2C_1_I2C_FSM_MSTR_RD_DATA;
  80              		.loc 1 303 0
  81 0032 2526     		mov	r6, #37
  82              	.LVL6:
  83 0034 2670     		strb	r6, [r4]
 304:.\Generated_Source\PSoC4/I2C_1_I2C_MASTER.c ****                          slaveAddress |= I2C_1_I2C_READ_FLAG;
  84              		.loc 1 304 0
  85 0036 2F43     		orr	r7, r5
  86              	.LVL7:
  87              	.L4:
 305:.\Generated_Source\PSoC4/I2C_1_I2C_MASTER.c ****             }
 306:.\Generated_Source\PSoC4/I2C_1_I2C_MASTER.c **** 
 307:.\Generated_Source\PSoC4/I2C_1_I2C_MASTER.c ****             /* The TX and RX FIFO have to be EMPTY */
 308:.\Generated_Source\PSoC4/I2C_1_I2C_MASTER.c **** 
ARM GAS  C:\Users\Milo\AppData\Local\Temp\ccfBxLki.s 			page 8


 309:.\Generated_Source\PSoC4/I2C_1_I2C_MASTER.c ****             I2C_1_TX_FIFO_WR_REG = slaveAddress; /* Put address in TX FIFO */
  88              		.loc 1 309 0
  89 0038 1948     		ldr	r0, .L20+8
 310:.\Generated_Source\PSoC4/I2C_1_I2C_MASTER.c ****             I2C_1_ClearMasterInterruptSource(I2C_1_INTR_MASTER_ALL);
  90              		.loc 1 310 0
  91 003a 1A49     		ldr	r1, .L20+12
 309:.\Generated_Source\PSoC4/I2C_1_I2C_MASTER.c ****             I2C_1_TX_FIFO_WR_REG = slaveAddress; /* Put address in TX FIFO */
  92              		.loc 1 309 0
  93 003c 0760     		str	r7, [r0]
 311:.\Generated_Source\PSoC4/I2C_1_I2C_MASTER.c **** 
 312:.\Generated_Source\PSoC4/I2C_1_I2C_MASTER.c ****             I2C_1_I2C_MASTER_GENERATE_START;
  94              		.loc 1 312 0
  95 003e 1A4A     		ldr	r2, .L20+16
 310:.\Generated_Source\PSoC4/I2C_1_I2C_MASTER.c ****             I2C_1_ClearMasterInterruptSource(I2C_1_INTR_MASTER_ALL);
  96              		.loc 1 310 0
  97 0040 1A4F     		ldr	r7, .L20+20
  98              	.LVL8:
  99              		.loc 1 312 0
 100 0042 0225     		mov	r5, #2
 310:.\Generated_Source\PSoC4/I2C_1_I2C_MASTER.c ****             I2C_1_ClearMasterInterruptSource(I2C_1_INTR_MASTER_ALL);
 101              		.loc 1 310 0
 102 0044 3960     		str	r1, [r7]
 103              		.loc 1 312 0
 104 0046 1560     		str	r5, [r2]
 105              	.L5:
 313:.\Generated_Source\PSoC4/I2C_1_I2C_MASTER.c **** 
 314:.\Generated_Source\PSoC4/I2C_1_I2C_MASTER.c **** 
 315:.\Generated_Source\PSoC4/I2C_1_I2C_MASTER.c ****             while(!I2C_1_CHECK_INTR_MASTER(I2C_1_INTR_MASTER_I2C_ACK      |
 106              		.loc 1 315 0 discriminator 1
 107 0048 3E68     		ldr	r6, [r7]
 108 004a 194D     		ldr	r5, .L20+24
 109 004c 1749     		ldr	r1, .L20+20
 110 004e 2E42     		tst	r6, r5
 111 0050 FAD0     		beq	.L5
 316:.\Generated_Source\PSoC4/I2C_1_I2C_MASTER.c ****                                                       I2C_1_INTR_MASTER_I2C_NACK     |
 317:.\Generated_Source\PSoC4/I2C_1_I2C_MASTER.c ****                                                       I2C_1_INTR_MASTER_I2C_ARB_LOST |
 318:.\Generated_Source\PSoC4/I2C_1_I2C_MASTER.c ****                                                       I2C_1_INTR_MASTER_I2C_BUS_ERROR))
 319:.\Generated_Source\PSoC4/I2C_1_I2C_MASTER.c ****             {
 320:.\Generated_Source\PSoC4/I2C_1_I2C_MASTER.c ****                 /*
 321:.\Generated_Source\PSoC4/I2C_1_I2C_MASTER.c ****                 * Write: wait until address has been transferred
 322:.\Generated_Source\PSoC4/I2C_1_I2C_MASTER.c ****                 * Read : wait until address has been transferred, data byte is going to RX FIFO as 
 323:.\Generated_Source\PSoC4/I2C_1_I2C_MASTER.c ****                 */
 324:.\Generated_Source\PSoC4/I2C_1_I2C_MASTER.c ****             }
 325:.\Generated_Source\PSoC4/I2C_1_I2C_MASTER.c **** 
 326:.\Generated_Source\PSoC4/I2C_1_I2C_MASTER.c ****             /* Check the results of the address phase */
 327:.\Generated_Source\PSoC4/I2C_1_I2C_MASTER.c ****             if(I2C_1_CHECK_INTR_MASTER(I2C_1_INTR_MASTER_I2C_ACK))
 112              		.loc 1 327 0
 113 0052 0868     		ldr	r0, [r1]
 114              	.LVL9:
 115 0054 0423     		mov	r3, #4
 116 0056 0340     		and	r3, r0
 117 0058 0ED1     		bne	.L10
 328:.\Generated_Source\PSoC4/I2C_1_I2C_MASTER.c ****             {
 329:.\Generated_Source\PSoC4/I2C_1_I2C_MASTER.c ****                 errStatus = I2C_1_I2C_MSTR_NO_ERROR;
 330:.\Generated_Source\PSoC4/I2C_1_I2C_MASTER.c ****             }
 331:.\Generated_Source\PSoC4/I2C_1_I2C_MASTER.c ****             else if(I2C_1_CHECK_INTR_MASTER(I2C_1_INTR_MASTER_I2C_NACK))
 118              		.loc 1 331 0
ARM GAS  C:\Users\Milo\AppData\Local\Temp\ccfBxLki.s 			page 9


 119 005a 0A68     		ldr	r2, [r1]
 120 005c 0220     		mov	r0, #2
 121 005e 0242     		tst	r2, r0
 122 0060 0CD1     		bne	.L6
 332:.\Generated_Source\PSoC4/I2C_1_I2C_MASTER.c ****             {
 333:.\Generated_Source\PSoC4/I2C_1_I2C_MASTER.c ****                 errStatus = I2C_1_I2C_MSTR_ERR_LB_NAK;
 334:.\Generated_Source\PSoC4/I2C_1_I2C_MASTER.c ****             }
 335:.\Generated_Source\PSoC4/I2C_1_I2C_MASTER.c ****             else if(I2C_1_CHECK_INTR_MASTER(I2C_1_INTR_MASTER_I2C_ARB_LOST))
 123              		.loc 1 335 0
 124 0062 0968     		ldr	r1, [r1]
 125 0064 1026     		mov	r6, #16
 126 0066 0123     		mov	r3, #1
 336:.\Generated_Source\PSoC4/I2C_1_I2C_MASTER.c ****             {
 337:.\Generated_Source\PSoC4/I2C_1_I2C_MASTER.c ****                 I2C_1_state = I2C_1_I2C_FSM_IDLE;
 127              		.loc 1 337 0
 128 0068 2670     		strb	r6, [r4]
 335:.\Generated_Source\PSoC4/I2C_1_I2C_MASTER.c ****             else if(I2C_1_CHECK_INTR_MASTER(I2C_1_INTR_MASTER_I2C_ARB_LOST))
 129              		.loc 1 335 0
 130 006a 1942     		tst	r1, r3
 131 006c 01D0     		beq	.L7
 132              	.LVL10:
 338:.\Generated_Source\PSoC4/I2C_1_I2C_MASTER.c ****                              errStatus = I2C_1_I2C_MSTR_ERR_ARB_LOST;
 133              		.loc 1 338 0
 134 006e 181C     		mov	r0, r3
 135 0070 04E0     		b	.L6
 136              	.LVL11:
 137              	.L7:
 339:.\Generated_Source\PSoC4/I2C_1_I2C_MASTER.c ****                              resetIp   = I2C_1_I2C_RESET_ERROR;
 340:.\Generated_Source\PSoC4/I2C_1_I2C_MASTER.c ****             }
 341:.\Generated_Source\PSoC4/I2C_1_I2C_MASTER.c ****             else /* I2C_1_INTR_MASTER_I2C_BUS_ERROR set is else condition */
 342:.\Generated_Source\PSoC4/I2C_1_I2C_MASTER.c ****             {
 343:.\Generated_Source\PSoC4/I2C_1_I2C_MASTER.c ****                 I2C_1_state = I2C_1_I2C_FSM_IDLE;
 344:.\Generated_Source\PSoC4/I2C_1_I2C_MASTER.c ****                              errStatus = I2C_1_I2C_MSTR_ERR_BUS_ERR;
 138              		.loc 1 344 0
 139 0072 8024     		mov	r4, #128
 140 0074 6000     		lsl	r0, r4, #1
 141 0076 01E0     		b	.L6
 142              	.LVL12:
 143              	.L10:
 329:.\Generated_Source\PSoC4/I2C_1_I2C_MASTER.c ****                 errStatus = I2C_1_I2C_MSTR_NO_ERROR;
 144              		.loc 1 329 0
 145 0078 0020     		mov	r0, #0
 280:.\Generated_Source\PSoC4/I2C_1_I2C_MASTER.c ****     resetIp   = 0u;
 146              		.loc 1 280 0
 147 007a 031C     		mov	r3, r0
 148              	.LVL13:
 149              	.L6:
 345:.\Generated_Source\PSoC4/I2C_1_I2C_MASTER.c ****                              resetIp   = I2C_1_I2C_RESET_ERROR;
 346:.\Generated_Source\PSoC4/I2C_1_I2C_MASTER.c ****             }
 347:.\Generated_Source\PSoC4/I2C_1_I2C_MASTER.c **** 
 348:.\Generated_Source\PSoC4/I2C_1_I2C_MASTER.c ****             I2C_1_ClearMasterInterruptSource(I2C_1_INTR_MASTER_I2C_ACK      |
 150              		.loc 1 348 0
 151 007c 3D60     		str	r5, [r7]
 349:.\Generated_Source\PSoC4/I2C_1_I2C_MASTER.c ****                                                         I2C_1_INTR_MASTER_I2C_NACK     |
 350:.\Generated_Source\PSoC4/I2C_1_I2C_MASTER.c ****                                                         I2C_1_INTR_MASTER_I2C_ARB_LOST |
 351:.\Generated_Source\PSoC4/I2C_1_I2C_MASTER.c ****                                                         I2C_1_INTR_MASTER_I2C_BUS_ERROR);
 352:.\Generated_Source\PSoC4/I2C_1_I2C_MASTER.c **** 
ARM GAS  C:\Users\Milo\AppData\Local\Temp\ccfBxLki.s 			page 10


 353:.\Generated_Source\PSoC4/I2C_1_I2C_MASTER.c ****             /* Reset block in case of: LOST_ARB or BUS_ERR */
 354:.\Generated_Source\PSoC4/I2C_1_I2C_MASTER.c ****             if(0u != resetIp)
 152              		.loc 1 354 0
 153 007e 002B     		cmp	r3, #0
 154 0080 09D0     		beq	.L2
 355:.\Generated_Source\PSoC4/I2C_1_I2C_MASTER.c ****             {
 356:.\Generated_Source\PSoC4/I2C_1_I2C_MASTER.c ****                 I2C_1_SCB_SW_RESET;
 155              		.loc 1 356 0
 156 0082 0C4F     		ldr	r7, .L20+28
 157 0084 8024     		mov	r4, #128
 158 0086 3D68     		ldr	r5, [r7]
 159 0088 2306     		lsl	r3, r4, #24
 160              	.LVL14:
 161 008a 6A00     		lsl	r2, r5, #1
 162 008c 5108     		lsr	r1, r2, #1
 163 008e 3960     		str	r1, [r7]
 164 0090 3E68     		ldr	r6, [r7]
 165 0092 3343     		orr	r3, r6
 166 0094 3B60     		str	r3, [r7]
 167              	.LVL15:
 168              	.L2:
 357:.\Generated_Source\PSoC4/I2C_1_I2C_MASTER.c ****             }
 358:.\Generated_Source\PSoC4/I2C_1_I2C_MASTER.c ****         }
 359:.\Generated_Source\PSoC4/I2C_1_I2C_MASTER.c ****     }
 360:.\Generated_Source\PSoC4/I2C_1_I2C_MASTER.c **** 
 361:.\Generated_Source\PSoC4/I2C_1_I2C_MASTER.c ****     return(errStatus);
 362:.\Generated_Source\PSoC4/I2C_1_I2C_MASTER.c **** }
 169              		.loc 1 362 0
 170              		@ sp needed for prologue
 171 0096 F8BD     		pop	{r3, r4, r5, r6, r7, pc}
 172              	.L21:
 173              		.align	2
 174              	.L20:
 175 0098 00000000 		.word	I2C_1_state
 176 009c 64000740 		.word	1074200676
 177 00a0 40020740 		.word	1074201152
 178 00a4 17030000 		.word	791
 179 00a8 68000740 		.word	1074200680
 180 00ac 000F0740 		.word	1074204416
 181 00b0 07010000 		.word	263
 182 00b4 00000740 		.word	1074200576
 183              		.cfi_endproc
 184              	.LFE2:
 185              		.size	I2C_1_I2CMasterSendStart, .-I2C_1_I2CMasterSendStart
 186              		.section	.text.I2C_1_I2CMasterSendStop,"ax",%progbits
 187              		.align	1
 188              		.global	I2C_1_I2CMasterSendStop
 189              		.code	16
 190              		.thumb_func
 191              		.type	I2C_1_I2CMasterSendStop, %function
 192              	I2C_1_I2CMasterSendStop:
 193              	.LFB4:
 363:.\Generated_Source\PSoC4/I2C_1_I2C_MASTER.c **** 
 364:.\Generated_Source\PSoC4/I2C_1_I2C_MASTER.c **** 
 365:.\Generated_Source\PSoC4/I2C_1_I2C_MASTER.c **** /*******************************************************************************
 366:.\Generated_Source\PSoC4/I2C_1_I2C_MASTER.c **** * Function Name: I2C_1_I2CMasterSendRestart
 367:.\Generated_Source\PSoC4/I2C_1_I2C_MASTER.c **** ********************************************************************************
ARM GAS  C:\Users\Milo\AppData\Local\Temp\ccfBxLki.s 			page 11


 368:.\Generated_Source\PSoC4/I2C_1_I2C_MASTER.c **** *
 369:.\Generated_Source\PSoC4/I2C_1_I2C_MASTER.c **** * Summary:
 370:.\Generated_Source\PSoC4/I2C_1_I2C_MASTER.c **** *  Generates Restart condition and sends slave address with read/write bit.
 371:.\Generated_Source\PSoC4/I2C_1_I2C_MASTER.c **** *  This function is blocking and does not return until start condition and
 372:.\Generated_Source\PSoC4/I2C_1_I2C_MASTER.c **** *  address are sent and ACK/NACK response is received or errors occurred.
 373:.\Generated_Source\PSoC4/I2C_1_I2C_MASTER.c **** *
 374:.\Generated_Source\PSoC4/I2C_1_I2C_MASTER.c **** * Parameters:
 375:.\Generated_Source\PSoC4/I2C_1_I2C_MASTER.c **** *  slaveAddress: Right justified 7-bit Slave address (valid range 8 to 120).
 376:.\Generated_Source\PSoC4/I2C_1_I2C_MASTER.c **** *  bitRnW:       Direction of the following transfer. It is defined by
 377:.\Generated_Source\PSoC4/I2C_1_I2C_MASTER.c **** *                read/write bit within address byte.
 378:.\Generated_Source\PSoC4/I2C_1_I2C_MASTER.c **** *
 379:.\Generated_Source\PSoC4/I2C_1_I2C_MASTER.c **** * Return:
 380:.\Generated_Source\PSoC4/I2C_1_I2C_MASTER.c **** *  Error status
 381:.\Generated_Source\PSoC4/I2C_1_I2C_MASTER.c **** *
 382:.\Generated_Source\PSoC4/I2C_1_I2C_MASTER.c **** *
 383:.\Generated_Source\PSoC4/I2C_1_I2C_MASTER.c **** * Global variables:
 384:.\Generated_Source\PSoC4/I2C_1_I2C_MASTER.c **** *  I2C_1_state - used to store current state of software FSM.
 385:.\Generated_Source\PSoC4/I2C_1_I2C_MASTER.c **** *
 386:.\Generated_Source\PSoC4/I2C_1_I2C_MASTER.c **** *******************************************************************************/
 387:.\Generated_Source\PSoC4/I2C_1_I2C_MASTER.c **** uint32 I2C_1_I2CMasterSendRestart(uint32 slaveAddress, uint32 bitRnW)
 388:.\Generated_Source\PSoC4/I2C_1_I2C_MASTER.c **** {
 389:.\Generated_Source\PSoC4/I2C_1_I2C_MASTER.c ****     uint32 resetIp;
 390:.\Generated_Source\PSoC4/I2C_1_I2C_MASTER.c ****     uint32 errStatus;
 391:.\Generated_Source\PSoC4/I2C_1_I2C_MASTER.c **** 
 392:.\Generated_Source\PSoC4/I2C_1_I2C_MASTER.c ****     resetIp   = 0u;
 393:.\Generated_Source\PSoC4/I2C_1_I2C_MASTER.c ****     errStatus = I2C_1_I2C_MSTR_NOT_READY;
 394:.\Generated_Source\PSoC4/I2C_1_I2C_MASTER.c **** 
 395:.\Generated_Source\PSoC4/I2C_1_I2C_MASTER.c ****     /* Check FSM state before generating ReStart condition */
 396:.\Generated_Source\PSoC4/I2C_1_I2C_MASTER.c ****     if(I2C_1_CHECK_I2C_MASTER_ACTIVE)
 397:.\Generated_Source\PSoC4/I2C_1_I2C_MASTER.c ****     {
 398:.\Generated_Source\PSoC4/I2C_1_I2C_MASTER.c ****         slaveAddress = I2C_1_GET_I2C_8BIT_ADDRESS(slaveAddress);
 399:.\Generated_Source\PSoC4/I2C_1_I2C_MASTER.c **** 
 400:.\Generated_Source\PSoC4/I2C_1_I2C_MASTER.c ****         if(0u == bitRnW) /* Write direction */
 401:.\Generated_Source\PSoC4/I2C_1_I2C_MASTER.c ****         {
 402:.\Generated_Source\PSoC4/I2C_1_I2C_MASTER.c ****             I2C_1_state = I2C_1_I2C_FSM_MSTR_WR_DATA;
 403:.\Generated_Source\PSoC4/I2C_1_I2C_MASTER.c ****         }
 404:.\Generated_Source\PSoC4/I2C_1_I2C_MASTER.c ****         else  /* Read direction */
 405:.\Generated_Source\PSoC4/I2C_1_I2C_MASTER.c ****         {
 406:.\Generated_Source\PSoC4/I2C_1_I2C_MASTER.c ****             I2C_1_state  = I2C_1_I2C_FSM_MSTR_RD_DATA;
 407:.\Generated_Source\PSoC4/I2C_1_I2C_MASTER.c ****                       slaveAddress |= I2C_1_I2C_READ_FLAG;
 408:.\Generated_Source\PSoC4/I2C_1_I2C_MASTER.c ****         }
 409:.\Generated_Source\PSoC4/I2C_1_I2C_MASTER.c **** 
 410:.\Generated_Source\PSoC4/I2C_1_I2C_MASTER.c ****         /* The TX and RX FIFO have to be EMPTY */
 411:.\Generated_Source\PSoC4/I2C_1_I2C_MASTER.c **** 
 412:.\Generated_Source\PSoC4/I2C_1_I2C_MASTER.c ****         /* Clean-up interrupt status */
 413:.\Generated_Source\PSoC4/I2C_1_I2C_MASTER.c ****         I2C_1_ClearMasterInterruptSource(I2C_1_INTR_MASTER_ALL);
 414:.\Generated_Source\PSoC4/I2C_1_I2C_MASTER.c **** 
 415:.\Generated_Source\PSoC4/I2C_1_I2C_MASTER.c ****         /* Proper ReStart sequence is: generate ReStart then put address byte in the TX FIFO.
 416:.\Generated_Source\PSoC4/I2C_1_I2C_MASTER.c ****         * Otherwise master treats address in the TX FIFO as data byte if previous transfer is write
 417:.\Generated_Source\PSoC4/I2C_1_I2C_MASTER.c ****         * The write transfer continue instead of ReStart.
 418:.\Generated_Source\PSoC4/I2C_1_I2C_MASTER.c ****         */
 419:.\Generated_Source\PSoC4/I2C_1_I2C_MASTER.c ****         I2C_1_I2C_MASTER_GENERATE_RESTART;
 420:.\Generated_Source\PSoC4/I2C_1_I2C_MASTER.c **** 
 421:.\Generated_Source\PSoC4/I2C_1_I2C_MASTER.c ****         while(I2C_1_CHECK_I2C_MASTER_CMD(I2C_1_I2C_MASTER_CMD_M_START))
 422:.\Generated_Source\PSoC4/I2C_1_I2C_MASTER.c ****         {
 423:.\Generated_Source\PSoC4/I2C_1_I2C_MASTER.c ****             /* Wait until ReStart has been generated */
 424:.\Generated_Source\PSoC4/I2C_1_I2C_MASTER.c ****         }
ARM GAS  C:\Users\Milo\AppData\Local\Temp\ccfBxLki.s 			page 12


 425:.\Generated_Source\PSoC4/I2C_1_I2C_MASTER.c **** 
 426:.\Generated_Source\PSoC4/I2C_1_I2C_MASTER.c ****         /* Put address into TX FIFO */
 427:.\Generated_Source\PSoC4/I2C_1_I2C_MASTER.c ****         I2C_1_TX_FIFO_WR_REG = slaveAddress;
 428:.\Generated_Source\PSoC4/I2C_1_I2C_MASTER.c **** 
 429:.\Generated_Source\PSoC4/I2C_1_I2C_MASTER.c ****         /* Wait for address to be transferred */
 430:.\Generated_Source\PSoC4/I2C_1_I2C_MASTER.c ****         while(!I2C_1_CHECK_INTR_MASTER(I2C_1_INTR_MASTER_I2C_ACK      |
 431:.\Generated_Source\PSoC4/I2C_1_I2C_MASTER.c ****                                                   I2C_1_INTR_MASTER_I2C_NACK     |
 432:.\Generated_Source\PSoC4/I2C_1_I2C_MASTER.c ****                                                   I2C_1_INTR_MASTER_I2C_ARB_LOST |
 433:.\Generated_Source\PSoC4/I2C_1_I2C_MASTER.c ****                                                   I2C_1_INTR_MASTER_I2C_BUS_ERROR))
 434:.\Generated_Source\PSoC4/I2C_1_I2C_MASTER.c ****         {
 435:.\Generated_Source\PSoC4/I2C_1_I2C_MASTER.c ****             /* Wait until address has been transferred */
 436:.\Generated_Source\PSoC4/I2C_1_I2C_MASTER.c ****         }
 437:.\Generated_Source\PSoC4/I2C_1_I2C_MASTER.c **** 
 438:.\Generated_Source\PSoC4/I2C_1_I2C_MASTER.c ****         /* Check results of address phase */
 439:.\Generated_Source\PSoC4/I2C_1_I2C_MASTER.c ****         if(I2C_1_CHECK_INTR_MASTER(I2C_1_INTR_MASTER_I2C_ACK))
 440:.\Generated_Source\PSoC4/I2C_1_I2C_MASTER.c ****         {
 441:.\Generated_Source\PSoC4/I2C_1_I2C_MASTER.c ****             errStatus = I2C_1_I2C_MSTR_NO_ERROR;
 442:.\Generated_Source\PSoC4/I2C_1_I2C_MASTER.c ****         }
 443:.\Generated_Source\PSoC4/I2C_1_I2C_MASTER.c ****         else if(I2C_1_CHECK_INTR_MASTER(I2C_1_INTR_MASTER_I2C_NACK))
 444:.\Generated_Source\PSoC4/I2C_1_I2C_MASTER.c ****         {
 445:.\Generated_Source\PSoC4/I2C_1_I2C_MASTER.c ****              errStatus = I2C_1_I2C_MSTR_ERR_LB_NAK;
 446:.\Generated_Source\PSoC4/I2C_1_I2C_MASTER.c ****         }
 447:.\Generated_Source\PSoC4/I2C_1_I2C_MASTER.c ****         else if(I2C_1_CHECK_INTR_MASTER(I2C_1_INTR_MASTER_I2C_ARB_LOST))
 448:.\Generated_Source\PSoC4/I2C_1_I2C_MASTER.c ****         {
 449:.\Generated_Source\PSoC4/I2C_1_I2C_MASTER.c ****             I2C_1_state = I2C_1_I2C_FSM_IDLE;
 450:.\Generated_Source\PSoC4/I2C_1_I2C_MASTER.c ****                          errStatus = I2C_1_I2C_MSTR_ERR_ARB_LOST;
 451:.\Generated_Source\PSoC4/I2C_1_I2C_MASTER.c ****                          resetIp   = I2C_1_I2C_RESET_ERROR;
 452:.\Generated_Source\PSoC4/I2C_1_I2C_MASTER.c ****         }
 453:.\Generated_Source\PSoC4/I2C_1_I2C_MASTER.c ****         else /* I2C_1_INTR_MASTER_I2C_BUS_ERROR set is else condition */
 454:.\Generated_Source\PSoC4/I2C_1_I2C_MASTER.c ****         {
 455:.\Generated_Source\PSoC4/I2C_1_I2C_MASTER.c ****             I2C_1_state = I2C_1_I2C_FSM_IDLE;
 456:.\Generated_Source\PSoC4/I2C_1_I2C_MASTER.c ****                          errStatus = I2C_1_I2C_MSTR_ERR_BUS_ERR;
 457:.\Generated_Source\PSoC4/I2C_1_I2C_MASTER.c ****                          resetIp   = I2C_1_I2C_RESET_ERROR;
 458:.\Generated_Source\PSoC4/I2C_1_I2C_MASTER.c ****         }
 459:.\Generated_Source\PSoC4/I2C_1_I2C_MASTER.c **** 
 460:.\Generated_Source\PSoC4/I2C_1_I2C_MASTER.c ****         I2C_1_ClearMasterInterruptSource(I2C_1_INTR_MASTER_I2C_ACK      |
 461:.\Generated_Source\PSoC4/I2C_1_I2C_MASTER.c ****                                                     I2C_1_INTR_MASTER_I2C_NACK     |
 462:.\Generated_Source\PSoC4/I2C_1_I2C_MASTER.c ****                                                     I2C_1_INTR_MASTER_I2C_ARB_LOST |
 463:.\Generated_Source\PSoC4/I2C_1_I2C_MASTER.c ****                                                     I2C_1_INTR_MASTER_I2C_BUS_ERROR);
 464:.\Generated_Source\PSoC4/I2C_1_I2C_MASTER.c **** 
 465:.\Generated_Source\PSoC4/I2C_1_I2C_MASTER.c ****         /* Reset block in case of: LOST_ARB or BUS_ERR */
 466:.\Generated_Source\PSoC4/I2C_1_I2C_MASTER.c ****         if(0u != resetIp)
 467:.\Generated_Source\PSoC4/I2C_1_I2C_MASTER.c ****         {
 468:.\Generated_Source\PSoC4/I2C_1_I2C_MASTER.c ****             I2C_1_SCB_SW_RESET;
 469:.\Generated_Source\PSoC4/I2C_1_I2C_MASTER.c ****         }
 470:.\Generated_Source\PSoC4/I2C_1_I2C_MASTER.c ****     }
 471:.\Generated_Source\PSoC4/I2C_1_I2C_MASTER.c **** 
 472:.\Generated_Source\PSoC4/I2C_1_I2C_MASTER.c ****     return(errStatus);
 473:.\Generated_Source\PSoC4/I2C_1_I2C_MASTER.c **** }
 474:.\Generated_Source\PSoC4/I2C_1_I2C_MASTER.c **** 
 475:.\Generated_Source\PSoC4/I2C_1_I2C_MASTER.c **** 
 476:.\Generated_Source\PSoC4/I2C_1_I2C_MASTER.c **** /*******************************************************************************
 477:.\Generated_Source\PSoC4/I2C_1_I2C_MASTER.c **** * Function Name: I2C_1_I2CMasterSendStop
 478:.\Generated_Source\PSoC4/I2C_1_I2C_MASTER.c **** ********************************************************************************
 479:.\Generated_Source\PSoC4/I2C_1_I2C_MASTER.c **** *
 480:.\Generated_Source\PSoC4/I2C_1_I2C_MASTER.c **** * Summary:
 481:.\Generated_Source\PSoC4/I2C_1_I2C_MASTER.c **** *  Generates Stop condition on the bus.
ARM GAS  C:\Users\Milo\AppData\Local\Temp\ccfBxLki.s 			page 13


 482:.\Generated_Source\PSoC4/I2C_1_I2C_MASTER.c **** *  At least one byte has to be read if start or restart condition with read
 483:.\Generated_Source\PSoC4/I2C_1_I2C_MASTER.c **** *  direction was generated before.
 484:.\Generated_Source\PSoC4/I2C_1_I2C_MASTER.c **** *  This function is blocking and does not return until a stop condition
 485:.\Generated_Source\PSoC4/I2C_1_I2C_MASTER.c **** *  is generated or error occurred.
 486:.\Generated_Source\PSoC4/I2C_1_I2C_MASTER.c **** *
 487:.\Generated_Source\PSoC4/I2C_1_I2C_MASTER.c **** * Parameters:
 488:.\Generated_Source\PSoC4/I2C_1_I2C_MASTER.c **** *  None
 489:.\Generated_Source\PSoC4/I2C_1_I2C_MASTER.c **** *
 490:.\Generated_Source\PSoC4/I2C_1_I2C_MASTER.c **** * Return:
 491:.\Generated_Source\PSoC4/I2C_1_I2C_MASTER.c **** *  Error status
 492:.\Generated_Source\PSoC4/I2C_1_I2C_MASTER.c **** *
 493:.\Generated_Source\PSoC4/I2C_1_I2C_MASTER.c **** * Side Effects:
 494:.\Generated_Source\PSoC4/I2C_1_I2C_MASTER.c **** *  A valid Start or ReStart condition must be generated before calling
 495:.\Generated_Source\PSoC4/I2C_1_I2C_MASTER.c **** *  this function. This function does nothing if Start or ReStart condition
 496:.\Generated_Source\PSoC4/I2C_1_I2C_MASTER.c **** *  failed before this function was called.
 497:.\Generated_Source\PSoC4/I2C_1_I2C_MASTER.c **** *  For read transfer, at least one byte has to be read before Stop generation.
 498:.\Generated_Source\PSoC4/I2C_1_I2C_MASTER.c **** *
 499:.\Generated_Source\PSoC4/I2C_1_I2C_MASTER.c **** * Global variables:
 500:.\Generated_Source\PSoC4/I2C_1_I2C_MASTER.c **** *  I2C_1_state - used to store current state of software FSM.
 501:.\Generated_Source\PSoC4/I2C_1_I2C_MASTER.c **** *
 502:.\Generated_Source\PSoC4/I2C_1_I2C_MASTER.c **** *******************************************************************************/
 503:.\Generated_Source\PSoC4/I2C_1_I2C_MASTER.c **** uint32 I2C_1_I2CMasterSendStop(void)
 504:.\Generated_Source\PSoC4/I2C_1_I2C_MASTER.c **** {
 194              		.loc 1 504 0
 195              		.cfi_startproc
 196              	.LVL16:
 197 0000 10B5     		push	{r4, lr}
 198              	.LCFI1:
 199              		.cfi_def_cfa_offset 8
 200              		.cfi_offset 4, -8
 201              		.cfi_offset 14, -4
 505:.\Generated_Source\PSoC4/I2C_1_I2C_MASTER.c ****     uint32 resetIp;
 506:.\Generated_Source\PSoC4/I2C_1_I2C_MASTER.c ****     uint32 errStatus;
 507:.\Generated_Source\PSoC4/I2C_1_I2C_MASTER.c **** 
 508:.\Generated_Source\PSoC4/I2C_1_I2C_MASTER.c ****     resetIp   = 0u;
 509:.\Generated_Source\PSoC4/I2C_1_I2C_MASTER.c ****     errStatus = I2C_1_I2C_MSTR_NOT_READY;
 510:.\Generated_Source\PSoC4/I2C_1_I2C_MASTER.c **** 
 511:.\Generated_Source\PSoC4/I2C_1_I2C_MASTER.c ****     /* Check FSM state before generating Stop condition */
 512:.\Generated_Source\PSoC4/I2C_1_I2C_MASTER.c ****     if(I2C_1_CHECK_I2C_MASTER_ACTIVE)
 202              		.loc 1 512 0
 203 0002 194B     		ldr	r3, .L40
 204 0004 2022     		mov	r2, #32
 205 0006 1978     		ldrb	r1, [r3]
 206 0008 1C1C     		mov	r4, r3
 509:.\Generated_Source\PSoC4/I2C_1_I2C_MASTER.c ****     errStatus = I2C_1_I2C_MSTR_NOT_READY;
 207              		.loc 1 509 0
 208 000a 0420     		mov	r0, #4
 209              		.loc 1 512 0
 210 000c 1142     		tst	r1, r2
 211 000e 29D0     		beq	.L23
 513:.\Generated_Source\PSoC4/I2C_1_I2C_MASTER.c ****     {
 514:.\Generated_Source\PSoC4/I2C_1_I2C_MASTER.c ****         /*
 515:.\Generated_Source\PSoC4/I2C_1_I2C_MASTER.c ****         * Write direction: generates Stop
 516:.\Generated_Source\PSoC4/I2C_1_I2C_MASTER.c ****         * Read  direction: generates NACK and Stop
 517:.\Generated_Source\PSoC4/I2C_1_I2C_MASTER.c ****         */
 518:.\Generated_Source\PSoC4/I2C_1_I2C_MASTER.c ****         I2C_1_I2C_MASTER_GENERATE_STOP;
 212              		.loc 1 518 0
ARM GAS  C:\Users\Milo\AppData\Local\Temp\ccfBxLki.s 			page 14


 213 0010 1648     		ldr	r0, .L40+4
 214 0012 1023     		mov	r3, #16
 215 0014 0168     		ldr	r1, [r0]
 216 0016 1142     		tst	r1, r2
 217 0018 00D0     		beq	.L24
 218 001a 1823     		mov	r3, #24
 219              	.L24:
 220              		.loc 1 518 0 is_stmt 0 discriminator 3
 221 001c 144A     		ldr	r2, .L40+8
 222 001e 1360     		str	r3, [r2]
 223              	.L25:
 519:.\Generated_Source\PSoC4/I2C_1_I2C_MASTER.c **** 
 520:.\Generated_Source\PSoC4/I2C_1_I2C_MASTER.c ****         while(!I2C_1_CHECK_INTR_MASTER(I2C_1_INTR_MASTER_I2C_STOP     |
 224              		.loc 1 520 0 is_stmt 1 discriminator 1
 225 0020 144A     		ldr	r2, .L40+12
 226 0022 1549     		ldr	r1, .L40+16
 227 0024 1068     		ldr	r0, [r2]
 228 0026 0842     		tst	r0, r1
 229 0028 FAD0     		beq	.L25
 521:.\Generated_Source\PSoC4/I2C_1_I2C_MASTER.c ****                                                   I2C_1_INTR_MASTER_I2C_ARB_LOST |
 522:.\Generated_Source\PSoC4/I2C_1_I2C_MASTER.c ****                                                   I2C_1_INTR_MASTER_I2C_BUS_ERROR))
 523:.\Generated_Source\PSoC4/I2C_1_I2C_MASTER.c ****         {
 524:.\Generated_Source\PSoC4/I2C_1_I2C_MASTER.c ****             /* Wait until Stop has been generated */
 525:.\Generated_Source\PSoC4/I2C_1_I2C_MASTER.c ****         }
 526:.\Generated_Source\PSoC4/I2C_1_I2C_MASTER.c **** 
 527:.\Generated_Source\PSoC4/I2C_1_I2C_MASTER.c ****         /* Check Stop generation */
 528:.\Generated_Source\PSoC4/I2C_1_I2C_MASTER.c ****         if(I2C_1_CHECK_INTR_MASTER(I2C_1_INTR_MASTER_I2C_STOP))
 230              		.loc 1 528 0
 231 002a 1368     		ldr	r3, [r2]
 232 002c D806     		lsl	r0, r3, #27
 233 002e 05D4     		bmi	.L29
 529:.\Generated_Source\PSoC4/I2C_1_I2C_MASTER.c ****         {
 530:.\Generated_Source\PSoC4/I2C_1_I2C_MASTER.c ****             errStatus = I2C_1_I2C_MSTR_NO_ERROR;
 531:.\Generated_Source\PSoC4/I2C_1_I2C_MASTER.c ****         }
 532:.\Generated_Source\PSoC4/I2C_1_I2C_MASTER.c ****         else if(I2C_1_CHECK_INTR_MASTER(I2C_1_INTR_MASTER_I2C_ARB_LOST))
 234              		.loc 1 532 0
 235 0030 1068     		ldr	r0, [r2]
 236 0032 0123     		mov	r3, #1
 237 0034 1842     		tst	r0, r3
 238 0036 04D0     		beq	.L30
 533:.\Generated_Source\PSoC4/I2C_1_I2C_MASTER.c ****         {
 534:.\Generated_Source\PSoC4/I2C_1_I2C_MASTER.c ****             errStatus = I2C_1_I2C_MSTR_ERR_ARB_LOST;
 239              		.loc 1 534 0
 240 0038 181C     		mov	r0, r3
 241 003a 04E0     		b	.L26
 242              	.L29:
 530:.\Generated_Source\PSoC4/I2C_1_I2C_MASTER.c ****             errStatus = I2C_1_I2C_MSTR_NO_ERROR;
 243              		.loc 1 530 0
 244 003c 0020     		mov	r0, #0
 508:.\Generated_Source\PSoC4/I2C_1_I2C_MASTER.c ****     resetIp   = 0u;
 245              		.loc 1 508 0
 246 003e 031C     		mov	r3, r0
 247 0040 01E0     		b	.L26
 248              	.L30:
 535:.\Generated_Source\PSoC4/I2C_1_I2C_MASTER.c ****             resetIp   = I2C_1_I2C_RESET_ERROR;
 536:.\Generated_Source\PSoC4/I2C_1_I2C_MASTER.c ****         }
 537:.\Generated_Source\PSoC4/I2C_1_I2C_MASTER.c ****         else /* I2C_1_INTR_MASTER_I2C_BUS_ERROR is set */
ARM GAS  C:\Users\Milo\AppData\Local\Temp\ccfBxLki.s 			page 15


 538:.\Generated_Source\PSoC4/I2C_1_I2C_MASTER.c ****         {
 539:.\Generated_Source\PSoC4/I2C_1_I2C_MASTER.c ****             errStatus = I2C_1_I2C_MSTR_ERR_BUS_ERR;
 249              		.loc 1 539 0
 250 0042 8020     		mov	r0, #128
 251 0044 4000     		lsl	r0, r0, #1
 252              	.L26:
 253              	.LVL17:
 540:.\Generated_Source\PSoC4/I2C_1_I2C_MASTER.c ****             resetIp   = I2C_1_I2C_RESET_ERROR;
 541:.\Generated_Source\PSoC4/I2C_1_I2C_MASTER.c ****         }
 542:.\Generated_Source\PSoC4/I2C_1_I2C_MASTER.c **** 
 543:.\Generated_Source\PSoC4/I2C_1_I2C_MASTER.c ****         I2C_1_ClearMasterInterruptSource(I2C_1_INTR_MASTER_I2C_STOP     |
 254              		.loc 1 543 0
 255 0046 1160     		str	r1, [r2]
 544:.\Generated_Source\PSoC4/I2C_1_I2C_MASTER.c ****                                                     I2C_1_INTR_MASTER_I2C_ARB_LOST |
 545:.\Generated_Source\PSoC4/I2C_1_I2C_MASTER.c ****                                                     I2C_1_INTR_MASTER_I2C_BUS_ERROR);
 546:.\Generated_Source\PSoC4/I2C_1_I2C_MASTER.c **** 
 547:.\Generated_Source\PSoC4/I2C_1_I2C_MASTER.c ****         I2C_1_state = I2C_1_I2C_FSM_IDLE;
 256              		.loc 1 547 0
 257 0048 1022     		mov	r2, #16
 258 004a 2270     		strb	r2, [r4]
 548:.\Generated_Source\PSoC4/I2C_1_I2C_MASTER.c **** 
 549:.\Generated_Source\PSoC4/I2C_1_I2C_MASTER.c ****         /* Reset block in case of: LOST_ARB or BUS_ERR */
 550:.\Generated_Source\PSoC4/I2C_1_I2C_MASTER.c ****         if(0u != resetIp)
 259              		.loc 1 550 0
 260 004c 002B     		cmp	r3, #0
 261 004e 09D0     		beq	.L23
 551:.\Generated_Source\PSoC4/I2C_1_I2C_MASTER.c ****         {
 552:.\Generated_Source\PSoC4/I2C_1_I2C_MASTER.c ****             I2C_1_SCB_SW_RESET;
 262              		.loc 1 552 0
 263 0050 0A4C     		ldr	r4, .L40+20
 264 0052 2168     		ldr	r1, [r4]
 265 0054 4B00     		lsl	r3, r1, #1
 266              	.LVL18:
 267 0056 5A08     		lsr	r2, r3, #1
 268 0058 2260     		str	r2, [r4]
 269 005a 2168     		ldr	r1, [r4]
 270 005c 8023     		mov	r3, #128
 271 005e 1A06     		lsl	r2, r3, #24
 272 0060 0A43     		orr	r2, r1
 273 0062 2260     		str	r2, [r4]
 274              	.LVL19:
 275              	.L23:
 553:.\Generated_Source\PSoC4/I2C_1_I2C_MASTER.c ****         }
 554:.\Generated_Source\PSoC4/I2C_1_I2C_MASTER.c ****     }
 555:.\Generated_Source\PSoC4/I2C_1_I2C_MASTER.c **** 
 556:.\Generated_Source\PSoC4/I2C_1_I2C_MASTER.c ****     return(errStatus);
 557:.\Generated_Source\PSoC4/I2C_1_I2C_MASTER.c **** }
 276              		.loc 1 557 0
 277              		@ sp needed for prologue
 278 0064 10BD     		pop	{r4, pc}
 279              	.L41:
 280 0066 C046     		.align	2
 281              	.L40:
 282 0068 00000000 		.word	I2C_1_state
 283 006c 64000740 		.word	1074200676
 284 0070 68000740 		.word	1074200680
 285 0074 000F0740 		.word	1074204416
ARM GAS  C:\Users\Milo\AppData\Local\Temp\ccfBxLki.s 			page 16


 286 0078 11010000 		.word	273
 287 007c 00000740 		.word	1074200576
 288              		.cfi_endproc
 289              	.LFE4:
 290              		.size	I2C_1_I2CMasterSendStop, .-I2C_1_I2CMasterSendStop
 291              		.section	.text.I2C_1_I2CMasterWriteByte,"ax",%progbits
 292              		.align	1
 293              		.global	I2C_1_I2CMasterWriteByte
 294              		.code	16
 295              		.thumb_func
 296              		.type	I2C_1_I2CMasterWriteByte, %function
 297              	I2C_1_I2CMasterWriteByte:
 298              	.LFB5:
 558:.\Generated_Source\PSoC4/I2C_1_I2C_MASTER.c **** 
 559:.\Generated_Source\PSoC4/I2C_1_I2C_MASTER.c **** 
 560:.\Generated_Source\PSoC4/I2C_1_I2C_MASTER.c **** /*******************************************************************************
 561:.\Generated_Source\PSoC4/I2C_1_I2C_MASTER.c **** * Function Name: I2C_1_I2CMasterWriteByte
 562:.\Generated_Source\PSoC4/I2C_1_I2C_MASTER.c **** ********************************************************************************
 563:.\Generated_Source\PSoC4/I2C_1_I2C_MASTER.c **** *
 564:.\Generated_Source\PSoC4/I2C_1_I2C_MASTER.c **** * Summary:
 565:.\Generated_Source\PSoC4/I2C_1_I2C_MASTER.c **** *  Sends one byte to a slave.
 566:.\Generated_Source\PSoC4/I2C_1_I2C_MASTER.c **** *  This function is blocking and does not return until byte is transmitted
 567:.\Generated_Source\PSoC4/I2C_1_I2C_MASTER.c **** *  or error occurred.
 568:.\Generated_Source\PSoC4/I2C_1_I2C_MASTER.c **** *
 569:.\Generated_Source\PSoC4/I2C_1_I2C_MASTER.c **** * Parameters:
 570:.\Generated_Source\PSoC4/I2C_1_I2C_MASTER.c **** *  data: The data byte to send to the slave.
 571:.\Generated_Source\PSoC4/I2C_1_I2C_MASTER.c **** *
 572:.\Generated_Source\PSoC4/I2C_1_I2C_MASTER.c **** * Return:
 573:.\Generated_Source\PSoC4/I2C_1_I2C_MASTER.c **** *  Error status
 574:.\Generated_Source\PSoC4/I2C_1_I2C_MASTER.c **** *
 575:.\Generated_Source\PSoC4/I2C_1_I2C_MASTER.c **** * Side Effects:
 576:.\Generated_Source\PSoC4/I2C_1_I2C_MASTER.c **** *  A valid Start or ReStart condition must be generated before calling
 577:.\Generated_Source\PSoC4/I2C_1_I2C_MASTER.c **** *  this function. This function does nothing if Start or ReStart condition
 578:.\Generated_Source\PSoC4/I2C_1_I2C_MASTER.c **** *  failed before this function was called.
 579:.\Generated_Source\PSoC4/I2C_1_I2C_MASTER.c **** *
 580:.\Generated_Source\PSoC4/I2C_1_I2C_MASTER.c **** * Global variables:
 581:.\Generated_Source\PSoC4/I2C_1_I2C_MASTER.c **** *  I2C_1_state - used to store current state of software FSM.
 582:.\Generated_Source\PSoC4/I2C_1_I2C_MASTER.c **** *
 583:.\Generated_Source\PSoC4/I2C_1_I2C_MASTER.c **** *******************************************************************************/
 584:.\Generated_Source\PSoC4/I2C_1_I2C_MASTER.c **** uint32 I2C_1_I2CMasterWriteByte(uint32 theByte)
 585:.\Generated_Source\PSoC4/I2C_1_I2C_MASTER.c **** {
 299              		.loc 1 585 0
 300              		.cfi_startproc
 301              	.LVL20:
 302 0000 30B5     		push	{r4, r5, lr}
 303              	.LCFI2:
 304              		.cfi_def_cfa_offset 12
 305              		.cfi_offset 4, -12
 306              		.cfi_offset 5, -8
 307              		.cfi_offset 14, -4
 586:.\Generated_Source\PSoC4/I2C_1_I2C_MASTER.c ****     uint32 resetIp;
 587:.\Generated_Source\PSoC4/I2C_1_I2C_MASTER.c ****     uint32 errStatus;
 588:.\Generated_Source\PSoC4/I2C_1_I2C_MASTER.c **** 
 589:.\Generated_Source\PSoC4/I2C_1_I2C_MASTER.c ****     resetIp   = 0u;
 590:.\Generated_Source\PSoC4/I2C_1_I2C_MASTER.c ****     errStatus = I2C_1_I2C_MSTR_NOT_READY;
 591:.\Generated_Source\PSoC4/I2C_1_I2C_MASTER.c **** 
 592:.\Generated_Source\PSoC4/I2C_1_I2C_MASTER.c ****     /* Check FSM state before write byte */
ARM GAS  C:\Users\Milo\AppData\Local\Temp\ccfBxLki.s 			page 17


 593:.\Generated_Source\PSoC4/I2C_1_I2C_MASTER.c ****     if(I2C_1_CHECK_I2C_MASTER_ACTIVE)
 308              		.loc 1 593 0
 309 0002 1A49     		ldr	r1, .L58
 585:.\Generated_Source\PSoC4/I2C_1_I2C_MASTER.c **** {
 310              		.loc 1 585 0
 311 0004 021C     		mov	r2, r0
 312              		.loc 1 593 0
 313 0006 0B78     		ldrb	r3, [r1]
 590:.\Generated_Source\PSoC4/I2C_1_I2C_MASTER.c ****     errStatus = I2C_1_I2C_MSTR_NOT_READY;
 314              		.loc 1 590 0
 315 0008 0420     		mov	r0, #4
 316              	.LVL21:
 317              		.loc 1 593 0
 318 000a 9C06     		lsl	r4, r3, #26
 319 000c 2CD5     		bpl	.L43
 594:.\Generated_Source\PSoC4/I2C_1_I2C_MASTER.c ****     {
 595:.\Generated_Source\PSoC4/I2C_1_I2C_MASTER.c ****         I2C_1_TX_FIFO_WR_REG = theByte;
 320              		.loc 1 595 0
 321 000e 1848     		ldr	r0, .L58+4
 322 0010 0260     		str	r2, [r0]
 323              	.LVL22:
 324              	.L44:
 596:.\Generated_Source\PSoC4/I2C_1_I2C_MASTER.c **** 
 597:.\Generated_Source\PSoC4/I2C_1_I2C_MASTER.c ****         while(!I2C_1_CHECK_INTR_MASTER(I2C_1_INTR_MASTER_I2C_ACK      |
 325              		.loc 1 597 0 discriminator 1
 326 0012 184A     		ldr	r2, .L58+8
 327 0014 184C     		ldr	r4, .L58+12
 328 0016 1568     		ldr	r5, [r2]
 329 0018 2542     		tst	r5, r4
 330 001a FAD0     		beq	.L44
 598:.\Generated_Source\PSoC4/I2C_1_I2C_MASTER.c ****                                                   I2C_1_INTR_MASTER_I2C_NACK     |
 599:.\Generated_Source\PSoC4/I2C_1_I2C_MASTER.c ****                                                   I2C_1_INTR_MASTER_I2C_ARB_LOST |
 600:.\Generated_Source\PSoC4/I2C_1_I2C_MASTER.c ****                                                   I2C_1_INTR_MASTER_I2C_BUS_ERROR))
 601:.\Generated_Source\PSoC4/I2C_1_I2C_MASTER.c ****         {
 602:.\Generated_Source\PSoC4/I2C_1_I2C_MASTER.c ****             /* Wait until byte has been transferred */
 603:.\Generated_Source\PSoC4/I2C_1_I2C_MASTER.c ****         }
 604:.\Generated_Source\PSoC4/I2C_1_I2C_MASTER.c **** 
 605:.\Generated_Source\PSoC4/I2C_1_I2C_MASTER.c ****         /* Check the results after byte was sent */
 606:.\Generated_Source\PSoC4/I2C_1_I2C_MASTER.c ****         if(I2C_1_CHECK_INTR_MASTER(I2C_1_INTR_MASTER_I2C_ACK))
 331              		.loc 1 606 0
 332 001c 1068     		ldr	r0, [r2]
 333              	.LVL23:
 334 001e 0423     		mov	r3, #4
 335 0020 0340     		and	r3, r0
 336 0022 04D0     		beq	.L45
 607:.\Generated_Source\PSoC4/I2C_1_I2C_MASTER.c ****         {
 608:.\Generated_Source\PSoC4/I2C_1_I2C_MASTER.c ****             I2C_1_state = I2C_1_I2C_FSM_MSTR_HALT;
 337              		.loc 1 608 0
 338 0024 6023     		mov	r3, #96
 609:.\Generated_Source\PSoC4/I2C_1_I2C_MASTER.c ****                          errStatus = I2C_1_I2C_MSTR_NO_ERROR;
 339              		.loc 1 609 0
 340 0026 0020     		mov	r0, #0
 608:.\Generated_Source\PSoC4/I2C_1_I2C_MASTER.c ****             I2C_1_state = I2C_1_I2C_FSM_MSTR_HALT;
 341              		.loc 1 608 0
 342 0028 0B70     		strb	r3, [r1]
 343              	.LVL24:
 589:.\Generated_Source\PSoC4/I2C_1_I2C_MASTER.c ****     resetIp   = 0u;
ARM GAS  C:\Users\Milo\AppData\Local\Temp\ccfBxLki.s 			page 18


 344              		.loc 1 589 0
 345 002a 031C     		mov	r3, r0
 346 002c 0FE0     		b	.L46
 347              	.LVL25:
 348              	.L45:
 610:.\Generated_Source\PSoC4/I2C_1_I2C_MASTER.c ****         }
 611:.\Generated_Source\PSoC4/I2C_1_I2C_MASTER.c ****         else if(I2C_1_CHECK_INTR_MASTER(I2C_1_INTR_MASTER_I2C_NACK))
 349              		.loc 1 611 0
 350 002e 1568     		ldr	r5, [r2]
 351 0030 0220     		mov	r0, #2
 352 0032 0542     		tst	r5, r0
 353 0034 02D0     		beq	.L47
 612:.\Generated_Source\PSoC4/I2C_1_I2C_MASTER.c ****         {
 613:.\Generated_Source\PSoC4/I2C_1_I2C_MASTER.c ****             I2C_1_state = I2C_1_I2C_FSM_MSTR_HALT;
 354              		.loc 1 613 0
 355 0036 6025     		mov	r5, #96
 356 0038 0D70     		strb	r5, [r1]
 357              	.LVL26:
 358 003a 08E0     		b	.L46
 359              	.LVL27:
 360              	.L47:
 614:.\Generated_Source\PSoC4/I2C_1_I2C_MASTER.c ****                          errStatus = I2C_1_I2C_MSTR_ERR_LB_NAK;
 615:.\Generated_Source\PSoC4/I2C_1_I2C_MASTER.c ****         }
 616:.\Generated_Source\PSoC4/I2C_1_I2C_MASTER.c ****         else if(I2C_1_CHECK_INTR_MASTER(I2C_1_INTR_MASTER_I2C_ARB_LOST))
 361              		.loc 1 616 0
 362 003c 1568     		ldr	r5, [r2]
 363 003e 1020     		mov	r0, #16
 364 0040 0123     		mov	r3, #1
 617:.\Generated_Source\PSoC4/I2C_1_I2C_MASTER.c ****         {
 618:.\Generated_Source\PSoC4/I2C_1_I2C_MASTER.c ****             I2C_1_state = I2C_1_I2C_FSM_IDLE;
 365              		.loc 1 618 0
 366 0042 0870     		strb	r0, [r1]
 619:.\Generated_Source\PSoC4/I2C_1_I2C_MASTER.c ****                          errStatus = I2C_1_I2C_MSTR_ERR_ARB_LOST;
 367              		.loc 1 619 0
 368 0044 181C     		mov	r0, r3
 616:.\Generated_Source\PSoC4/I2C_1_I2C_MASTER.c ****         else if(I2C_1_CHECK_INTR_MASTER(I2C_1_INTR_MASTER_I2C_ARB_LOST))
 369              		.loc 1 616 0
 370 0046 1D42     		tst	r5, r3
 371 0048 01D1     		bne	.L46
 372              	.LVL28:
 620:.\Generated_Source\PSoC4/I2C_1_I2C_MASTER.c ****                          resetIp   = I2C_1_I2C_RESET_ERROR;
 621:.\Generated_Source\PSoC4/I2C_1_I2C_MASTER.c ****         }
 622:.\Generated_Source\PSoC4/I2C_1_I2C_MASTER.c ****         else /* I2C_1_INTR_MASTER_I2C_BUS_ERROR set is */
 623:.\Generated_Source\PSoC4/I2C_1_I2C_MASTER.c ****         {
 624:.\Generated_Source\PSoC4/I2C_1_I2C_MASTER.c ****             I2C_1_state = I2C_1_I2C_FSM_IDLE;
 625:.\Generated_Source\PSoC4/I2C_1_I2C_MASTER.c ****                          errStatus = I2C_1_I2C_MSTR_ERR_BUS_ERR;
 373              		.loc 1 625 0
 374 004a 8021     		mov	r1, #128
 375 004c 4800     		lsl	r0, r1, #1
 376              	.LVL29:
 377              	.L46:
 626:.\Generated_Source\PSoC4/I2C_1_I2C_MASTER.c ****                          resetIp   = I2C_1_I2C_RESET_ERROR;
 627:.\Generated_Source\PSoC4/I2C_1_I2C_MASTER.c ****         }
 628:.\Generated_Source\PSoC4/I2C_1_I2C_MASTER.c **** 
 629:.\Generated_Source\PSoC4/I2C_1_I2C_MASTER.c ****         I2C_1_ClearMasterInterruptSource(I2C_1_INTR_MASTER_I2C_ACK      |
 378              		.loc 1 629 0
 379 004e 1460     		str	r4, [r2]
ARM GAS  C:\Users\Milo\AppData\Local\Temp\ccfBxLki.s 			page 19


 630:.\Generated_Source\PSoC4/I2C_1_I2C_MASTER.c ****                                                     I2C_1_INTR_MASTER_I2C_NACK     |
 631:.\Generated_Source\PSoC4/I2C_1_I2C_MASTER.c ****                                                     I2C_1_INTR_MASTER_I2C_ARB_LOST |
 632:.\Generated_Source\PSoC4/I2C_1_I2C_MASTER.c ****                                                     I2C_1_INTR_MASTER_I2C_BUS_ERROR);
 633:.\Generated_Source\PSoC4/I2C_1_I2C_MASTER.c **** 
 634:.\Generated_Source\PSoC4/I2C_1_I2C_MASTER.c ****         /* Reset block in case of: LOST_ARB or BUS_ERR */
 635:.\Generated_Source\PSoC4/I2C_1_I2C_MASTER.c ****         if(0u != resetIp)
 380              		.loc 1 635 0
 381 0050 002B     		cmp	r3, #0
 382 0052 09D0     		beq	.L43
 636:.\Generated_Source\PSoC4/I2C_1_I2C_MASTER.c ****         {
 637:.\Generated_Source\PSoC4/I2C_1_I2C_MASTER.c ****             I2C_1_SCB_SW_RESET;
 383              		.loc 1 637 0
 384 0054 094C     		ldr	r4, .L58+16
 385 0056 2268     		ldr	r2, [r4]
 386 0058 5100     		lsl	r1, r2, #1
 387 005a 4D08     		lsr	r5, r1, #1
 388 005c 2560     		str	r5, [r4]
 389 005e 2368     		ldr	r3, [r4]
 390              	.LVL30:
 391 0060 8022     		mov	r2, #128
 392 0062 1106     		lsl	r1, r2, #24
 393 0064 1943     		orr	r1, r3
 394 0066 2160     		str	r1, [r4]
 395              	.LVL31:
 396              	.L43:
 638:.\Generated_Source\PSoC4/I2C_1_I2C_MASTER.c ****         }
 639:.\Generated_Source\PSoC4/I2C_1_I2C_MASTER.c ****     }
 640:.\Generated_Source\PSoC4/I2C_1_I2C_MASTER.c **** 
 641:.\Generated_Source\PSoC4/I2C_1_I2C_MASTER.c ****     return(errStatus);
 642:.\Generated_Source\PSoC4/I2C_1_I2C_MASTER.c **** }
 397              		.loc 1 642 0
 398              		@ sp needed for prologue
 399 0068 30BD     		pop	{r4, r5, pc}
 400              	.L59:
 401 006a C046     		.align	2
 402              	.L58:
 403 006c 00000000 		.word	I2C_1_state
 404 0070 40020740 		.word	1074201152
 405 0074 000F0740 		.word	1074204416
 406 0078 07010000 		.word	263
 407 007c 00000740 		.word	1074200576
 408              		.cfi_endproc
 409              	.LFE5:
 410              		.size	I2C_1_I2CMasterWriteByte, .-I2C_1_I2CMasterWriteByte
 411              		.section	.text.I2C_1_I2CMasterReadByte,"ax",%progbits
 412              		.align	1
 413              		.global	I2C_1_I2CMasterReadByte
 414              		.code	16
 415              		.thumb_func
 416              		.type	I2C_1_I2CMasterReadByte, %function
 417              	I2C_1_I2CMasterReadByte:
 418              	.LFB6:
 643:.\Generated_Source\PSoC4/I2C_1_I2C_MASTER.c **** 
 644:.\Generated_Source\PSoC4/I2C_1_I2C_MASTER.c **** 
 645:.\Generated_Source\PSoC4/I2C_1_I2C_MASTER.c **** /*******************************************************************************
 646:.\Generated_Source\PSoC4/I2C_1_I2C_MASTER.c **** * Function Name: I2C_1_I2CMasterReadByte
 647:.\Generated_Source\PSoC4/I2C_1_I2C_MASTER.c **** ********************************************************************************
ARM GAS  C:\Users\Milo\AppData\Local\Temp\ccfBxLki.s 			page 20


 648:.\Generated_Source\PSoC4/I2C_1_I2C_MASTER.c **** *
 649:.\Generated_Source\PSoC4/I2C_1_I2C_MASTER.c **** * Summary:
 650:.\Generated_Source\PSoC4/I2C_1_I2C_MASTER.c **** *  Reads one byte from a slave and ACKs or NAKs received byte.
 651:.\Generated_Source\PSoC4/I2C_1_I2C_MASTER.c **** *  This function does not generate NAK explicitly. The following call
 652:.\Generated_Source\PSoC4/I2C_1_I2C_MASTER.c **** *  SCB_I2CMasterSendStop() or SCB_I2CMasterSendRestart() will generate NAK and
 653:.\Generated_Source\PSoC4/I2C_1_I2C_MASTER.c **** *  Stop or ReStart condition appropriately.
 654:.\Generated_Source\PSoC4/I2C_1_I2C_MASTER.c **** *  This function is blocking and does not return until byte is received
 655:.\Generated_Source\PSoC4/I2C_1_I2C_MASTER.c **** *  or error occurred.
 656:.\Generated_Source\PSoC4/I2C_1_I2C_MASTER.c **** *
 657:.\Generated_Source\PSoC4/I2C_1_I2C_MASTER.c **** * Parameters:
 658:.\Generated_Source\PSoC4/I2C_1_I2C_MASTER.c **** *  ackNack: Response to received byte.
 659:.\Generated_Source\PSoC4/I2C_1_I2C_MASTER.c **** *
 660:.\Generated_Source\PSoC4/I2C_1_I2C_MASTER.c **** * Return:
 661:.\Generated_Source\PSoC4/I2C_1_I2C_MASTER.c **** *  Byte read from the slave. In case of error the MSB of returned data
 662:.\Generated_Source\PSoC4/I2C_1_I2C_MASTER.c **** *  is set to 1.
 663:.\Generated_Source\PSoC4/I2C_1_I2C_MASTER.c **** *
 664:.\Generated_Source\PSoC4/I2C_1_I2C_MASTER.c **** * Side Effects:
 665:.\Generated_Source\PSoC4/I2C_1_I2C_MASTER.c **** *  A valid Start or ReStart condition must be generated before calling this
 666:.\Generated_Source\PSoC4/I2C_1_I2C_MASTER.c **** *  function. This function does nothing and returns invalid byte value
 667:.\Generated_Source\PSoC4/I2C_1_I2C_MASTER.c **** *  if Start or ReStart conditions failed before this function was called.
 668:.\Generated_Source\PSoC4/I2C_1_I2C_MASTER.c **** *
 669:.\Generated_Source\PSoC4/I2C_1_I2C_MASTER.c **** * Global variables:
 670:.\Generated_Source\PSoC4/I2C_1_I2C_MASTER.c **** *  I2C_1_state - used to store current state of software FSM.
 671:.\Generated_Source\PSoC4/I2C_1_I2C_MASTER.c **** *
 672:.\Generated_Source\PSoC4/I2C_1_I2C_MASTER.c **** *******************************************************************************/
 673:.\Generated_Source\PSoC4/I2C_1_I2C_MASTER.c **** uint32 I2C_1_I2CMasterReadByte(uint32 ackNack)
 674:.\Generated_Source\PSoC4/I2C_1_I2C_MASTER.c **** {
 419              		.loc 1 674 0
 420              		.cfi_startproc
 421              	.LVL32:
 422 0000 10B5     		push	{r4, lr}
 423              	.LCFI3:
 424              		.cfi_def_cfa_offset 8
 425              		.cfi_offset 4, -8
 426              		.cfi_offset 14, -4
 675:.\Generated_Source\PSoC4/I2C_1_I2C_MASTER.c ****     uint32 theByte;
 676:.\Generated_Source\PSoC4/I2C_1_I2C_MASTER.c **** 
 677:.\Generated_Source\PSoC4/I2C_1_I2C_MASTER.c ****     /* Return invalid byte in case BUS_ERR happen during receiving */
 678:.\Generated_Source\PSoC4/I2C_1_I2C_MASTER.c ****     theByte = I2C_1_I2C_INVALID_BYTE;
 679:.\Generated_Source\PSoC4/I2C_1_I2C_MASTER.c **** 
 680:.\Generated_Source\PSoC4/I2C_1_I2C_MASTER.c ****     /* Check FSM state before read byte */
 681:.\Generated_Source\PSoC4/I2C_1_I2C_MASTER.c ****     if(I2C_1_CHECK_I2C_MASTER_ACTIVE)
 427              		.loc 1 681 0
 428 0002 174B     		ldr	r3, .L72
 674:.\Generated_Source\PSoC4/I2C_1_I2C_MASTER.c **** {
 429              		.loc 1 674 0
 430 0004 011C     		mov	r1, r0
 431              		.loc 1 681 0
 432 0006 1878     		ldrb	r0, [r3]
 433              	.LVL33:
 434 0008 1A1C     		mov	r2, r3
 435 000a 8306     		lsl	r3, r0, #26
 436 000c 25D5     		bpl	.L66
 437              	.L69:
 682:.\Generated_Source\PSoC4/I2C_1_I2C_MASTER.c ****     {
 683:.\Generated_Source\PSoC4/I2C_1_I2C_MASTER.c ****         while((!I2C_1_CHECK_INTR_RX(I2C_1_INTR_RX_NOT_EMPTY)) &&
 438              		.loc 1 683 0
ARM GAS  C:\Users\Milo\AppData\Local\Temp\ccfBxLki.s 			page 21


 439 000e 154B     		ldr	r3, .L72+4
 440 0010 1C68     		ldr	r4, [r3]
 441 0012 6407     		lsl	r4, r4, #29
 442 0014 04D4     		bmi	.L62
 684:.\Generated_Source\PSoC4/I2C_1_I2C_MASTER.c ****               (!I2C_1_CHECK_INTR_MASTER(I2C_1_INTR_MASTER_I2C_ARB_LOST |
 443              		.loc 1 684 0 discriminator 2
 444 0016 1448     		ldr	r0, .L72+8
 445 0018 0468     		ldr	r4, [r0]
 683:.\Generated_Source\PSoC4/I2C_1_I2C_MASTER.c ****         while((!I2C_1_CHECK_INTR_RX(I2C_1_INTR_RX_NOT_EMPTY)) &&
 446              		.loc 1 683 0 discriminator 2
 447 001a 1448     		ldr	r0, .L72+12
 448 001c 0442     		tst	r4, r0
 449 001e F6D0     		beq	.L69
 450              	.L62:
 685:.\Generated_Source\PSoC4/I2C_1_I2C_MASTER.c ****                                                   I2C_1_INTR_MASTER_I2C_BUS_ERROR)))
 686:.\Generated_Source\PSoC4/I2C_1_I2C_MASTER.c ****         {
 687:.\Generated_Source\PSoC4/I2C_1_I2C_MASTER.c ****             /* Wait until byte has been received */
 688:.\Generated_Source\PSoC4/I2C_1_I2C_MASTER.c ****         }
 689:.\Generated_Source\PSoC4/I2C_1_I2C_MASTER.c **** 
 690:.\Generated_Source\PSoC4/I2C_1_I2C_MASTER.c ****         /* Check the results after the byte was sent */
 691:.\Generated_Source\PSoC4/I2C_1_I2C_MASTER.c ****         if(I2C_1_CHECK_INTR_RX(I2C_1_INTR_RX_NOT_EMPTY))
 451              		.loc 1 691 0
 452 0020 1C68     		ldr	r4, [r3]
 453 0022 0423     		mov	r3, #4
 454 0024 1C42     		tst	r4, r3
 455 0026 0BD0     		beq	.L64
 692:.\Generated_Source\PSoC4/I2C_1_I2C_MASTER.c ****         {
 693:.\Generated_Source\PSoC4/I2C_1_I2C_MASTER.c ****             theByte = I2C_1_RX_FIFO_RD_REG;
 456              		.loc 1 693 0
 457 0028 114C     		ldr	r4, .L72+16
 458 002a 2068     		ldr	r0, [r4]
 459              	.LVL34:
 694:.\Generated_Source\PSoC4/I2C_1_I2C_MASTER.c **** 
 695:.\Generated_Source\PSoC4/I2C_1_I2C_MASTER.c ****             I2C_1_ClearRxInterruptSource(I2C_1_INTR_RX_NOT_EMPTY);
 460              		.loc 1 695 0
 461 002c 0D4C     		ldr	r4, .L72+4
 462 002e 2360     		str	r3, [r4]
 696:.\Generated_Source\PSoC4/I2C_1_I2C_MASTER.c **** 
 697:.\Generated_Source\PSoC4/I2C_1_I2C_MASTER.c ****             if(0u == ackNack)
 463              		.loc 1 697 0
 464 0030 0029     		cmp	r1, #0
 465 0032 02D1     		bne	.L65
 698:.\Generated_Source\PSoC4/I2C_1_I2C_MASTER.c ****             {
 699:.\Generated_Source\PSoC4/I2C_1_I2C_MASTER.c ****                 I2C_1_I2C_MASTER_GENERATE_ACK;
 466              		.loc 1 699 0
 467 0034 0F4A     		ldr	r2, .L72+20
 468 0036 1360     		str	r3, [r2]
 469 0038 11E0     		b	.L61
 470              	.L65:
 700:.\Generated_Source\PSoC4/I2C_1_I2C_MASTER.c ****             }
 701:.\Generated_Source\PSoC4/I2C_1_I2C_MASTER.c ****             else
 702:.\Generated_Source\PSoC4/I2C_1_I2C_MASTER.c ****             {
 703:.\Generated_Source\PSoC4/I2C_1_I2C_MASTER.c ****                 /* NACK is generated by Stop or ReStart command*/
 704:.\Generated_Source\PSoC4/I2C_1_I2C_MASTER.c ****                 I2C_1_state = I2C_1_I2C_FSM_MSTR_HALT;
 471              		.loc 1 704 0
 472 003a 6021     		mov	r1, #96
 473              	.LVL35:
ARM GAS  C:\Users\Milo\AppData\Local\Temp\ccfBxLki.s 			page 22


 474 003c 1170     		strb	r1, [r2]
 475 003e 0EE0     		b	.L61
 476              	.LVL36:
 477              	.L64:
 705:.\Generated_Source\PSoC4/I2C_1_I2C_MASTER.c ****             }
 706:.\Generated_Source\PSoC4/I2C_1_I2C_MASTER.c ****         }
 707:.\Generated_Source\PSoC4/I2C_1_I2C_MASTER.c ****         else
 708:.\Generated_Source\PSoC4/I2C_1_I2C_MASTER.c ****         {
 709:.\Generated_Source\PSoC4/I2C_1_I2C_MASTER.c ****             I2C_1_ClearMasterInterruptSource(I2C_1_INTR_MASTER_ALL);
 478              		.loc 1 709 0
 479 0040 0D49     		ldr	r1, .L72+24
 480              	.LVL37:
 481 0042 094A     		ldr	r2, .L72+8
 710:.\Generated_Source\PSoC4/I2C_1_I2C_MASTER.c **** 
 711:.\Generated_Source\PSoC4/I2C_1_I2C_MASTER.c ****             /* Reset block in case of: LOST_ARB or BUS_ERR */
 712:.\Generated_Source\PSoC4/I2C_1_I2C_MASTER.c ****             I2C_1_SCB_SW_RESET;
 482              		.loc 1 712 0
 483 0044 0D48     		ldr	r0, .L72+28
 709:.\Generated_Source\PSoC4/I2C_1_I2C_MASTER.c ****             I2C_1_ClearMasterInterruptSource(I2C_1_INTR_MASTER_ALL);
 484              		.loc 1 709 0
 485 0046 1160     		str	r1, [r2]
 486              		.loc 1 712 0
 487 0048 0468     		ldr	r4, [r0]
 488 004a 8022     		mov	r2, #128
 489 004c 6300     		lsl	r3, r4, #1
 490 004e 5908     		lsr	r1, r3, #1
 491 0050 0160     		str	r1, [r0]
 492 0052 0468     		ldr	r4, [r0]
 493 0054 1306     		lsl	r3, r2, #24
 494 0056 2343     		orr	r3, r4
 495 0058 0360     		str	r3, [r0]
 496              	.L66:
 678:.\Generated_Source\PSoC4/I2C_1_I2C_MASTER.c ****     theByte = I2C_1_I2C_INVALID_BYTE;
 497              		.loc 1 678 0
 498 005a 0120     		mov	r0, #1
 499 005c 4042     		neg	r0, r0
 500              	.LVL38:
 501              	.L61:
 713:.\Generated_Source\PSoC4/I2C_1_I2C_MASTER.c ****         }
 714:.\Generated_Source\PSoC4/I2C_1_I2C_MASTER.c ****     }
 715:.\Generated_Source\PSoC4/I2C_1_I2C_MASTER.c **** 
 716:.\Generated_Source\PSoC4/I2C_1_I2C_MASTER.c ****     return(theByte);
 717:.\Generated_Source\PSoC4/I2C_1_I2C_MASTER.c **** }
 502              		.loc 1 717 0
 503              		@ sp needed for prologue
 504 005e 10BD     		pop	{r4, pc}
 505              	.L73:
 506              		.align	2
 507              	.L72:
 508 0060 00000000 		.word	I2C_1_state
 509 0064 C00F0740 		.word	1074204608
 510 0068 000F0740 		.word	1074204416
 511 006c 01010000 		.word	257
 512 0070 40030740 		.word	1074201408
 513 0074 68000740 		.word	1074200680
 514 0078 17030000 		.word	791
 515 007c 00000740 		.word	1074200576
ARM GAS  C:\Users\Milo\AppData\Local\Temp\ccfBxLki.s 			page 23


 516              		.cfi_endproc
 517              	.LFE6:
 518              		.size	I2C_1_I2CMasterReadByte, .-I2C_1_I2CMasterReadByte
 519              		.section	.text.I2C_1_I2CMasterGetReadBufSize,"ax",%progbits
 520              		.align	1
 521              		.global	I2C_1_I2CMasterGetReadBufSize
 522              		.code	16
 523              		.thumb_func
 524              		.type	I2C_1_I2CMasterGetReadBufSize, %function
 525              	I2C_1_I2CMasterGetReadBufSize:
 526              	.LFB7:
 718:.\Generated_Source\PSoC4/I2C_1_I2C_MASTER.c **** 
 719:.\Generated_Source\PSoC4/I2C_1_I2C_MASTER.c **** 
 720:.\Generated_Source\PSoC4/I2C_1_I2C_MASTER.c **** /*******************************************************************************
 721:.\Generated_Source\PSoC4/I2C_1_I2C_MASTER.c **** * Function Name: I2C_1_I2CMasterGetReadBufSize
 722:.\Generated_Source\PSoC4/I2C_1_I2C_MASTER.c **** ********************************************************************************
 723:.\Generated_Source\PSoC4/I2C_1_I2C_MASTER.c **** *
 724:.\Generated_Source\PSoC4/I2C_1_I2C_MASTER.c **** * Summary:
 725:.\Generated_Source\PSoC4/I2C_1_I2C_MASTER.c **** *  Returns the number of bytes that has been transferred with an
 726:.\Generated_Source\PSoC4/I2C_1_I2C_MASTER.c **** *  SCB_I2CMasterReadBuf() function.
 727:.\Generated_Source\PSoC4/I2C_1_I2C_MASTER.c **** *
 728:.\Generated_Source\PSoC4/I2C_1_I2C_MASTER.c **** * Parameters:
 729:.\Generated_Source\PSoC4/I2C_1_I2C_MASTER.c **** *  None
 730:.\Generated_Source\PSoC4/I2C_1_I2C_MASTER.c **** *
 731:.\Generated_Source\PSoC4/I2C_1_I2C_MASTER.c **** * Return:
 732:.\Generated_Source\PSoC4/I2C_1_I2C_MASTER.c **** *  Byte count of transfer. If the transfer is not yet complete, it returns
 733:.\Generated_Source\PSoC4/I2C_1_I2C_MASTER.c **** *  the byte count transferred so far.
 734:.\Generated_Source\PSoC4/I2C_1_I2C_MASTER.c **** *
 735:.\Generated_Source\PSoC4/I2C_1_I2C_MASTER.c **** * Side Effects:
 736:.\Generated_Source\PSoC4/I2C_1_I2C_MASTER.c **** *  This function returns not valid value if SCB_I2C_MSTAT_ERR_ARB_LOST
 737:.\Generated_Source\PSoC4/I2C_1_I2C_MASTER.c **** *  or SCB_I2C_MSTAT_ERR_BUS_ERROR occurred while read transfer.
 738:.\Generated_Source\PSoC4/I2C_1_I2C_MASTER.c **** *
 739:.\Generated_Source\PSoC4/I2C_1_I2C_MASTER.c **** * Global variables:
 740:.\Generated_Source\PSoC4/I2C_1_I2C_MASTER.c **** *  I2C_1_mstrRdBufIndex - used to current index within master read
 741:.\Generated_Source\PSoC4/I2C_1_I2C_MASTER.c **** *  buffer.
 742:.\Generated_Source\PSoC4/I2C_1_I2C_MASTER.c **** *
 743:.\Generated_Source\PSoC4/I2C_1_I2C_MASTER.c **** *******************************************************************************/
 744:.\Generated_Source\PSoC4/I2C_1_I2C_MASTER.c **** uint32 I2C_1_I2CMasterGetReadBufSize(void)
 745:.\Generated_Source\PSoC4/I2C_1_I2C_MASTER.c **** {
 527              		.loc 1 745 0
 528              		.cfi_startproc
 746:.\Generated_Source\PSoC4/I2C_1_I2C_MASTER.c ****     return(I2C_1_mstrRdBufIndex);
 529              		.loc 1 746 0
 530 0000 014B     		ldr	r3, .L75
 747:.\Generated_Source\PSoC4/I2C_1_I2C_MASTER.c **** }
 531              		.loc 1 747 0
 532              		@ sp needed for prologue
 746:.\Generated_Source\PSoC4/I2C_1_I2C_MASTER.c ****     return(I2C_1_mstrRdBufIndex);
 533              		.loc 1 746 0
 534 0002 1868     		ldr	r0, [r3]
 535              		.loc 1 747 0
 536 0004 7047     		bx	lr
 537              	.L76:
 538 0006 C046     		.align	2
 539              	.L75:
 540 0008 00000000 		.word	I2C_1_mstrRdBufIndex
 541              		.cfi_endproc
ARM GAS  C:\Users\Milo\AppData\Local\Temp\ccfBxLki.s 			page 24


 542              	.LFE7:
 543              		.size	I2C_1_I2CMasterGetReadBufSize, .-I2C_1_I2CMasterGetReadBufSize
 544              		.section	.text.I2C_1_I2CMasterGetWriteBufSize,"ax",%progbits
 545              		.align	1
 546              		.global	I2C_1_I2CMasterGetWriteBufSize
 547              		.code	16
 548              		.thumb_func
 549              		.type	I2C_1_I2CMasterGetWriteBufSize, %function
 550              	I2C_1_I2CMasterGetWriteBufSize:
 551              	.LFB8:
 748:.\Generated_Source\PSoC4/I2C_1_I2C_MASTER.c **** 
 749:.\Generated_Source\PSoC4/I2C_1_I2C_MASTER.c **** 
 750:.\Generated_Source\PSoC4/I2C_1_I2C_MASTER.c **** /*******************************************************************************
 751:.\Generated_Source\PSoC4/I2C_1_I2C_MASTER.c **** * Function Name: I2C_1_I2CMasterGetWriteBufSize
 752:.\Generated_Source\PSoC4/I2C_1_I2C_MASTER.c **** ********************************************************************************
 753:.\Generated_Source\PSoC4/I2C_1_I2C_MASTER.c **** *
 754:.\Generated_Source\PSoC4/I2C_1_I2C_MASTER.c **** * Summary:
 755:.\Generated_Source\PSoC4/I2C_1_I2C_MASTER.c **** *  Returns the number of bytes that have been transferred with an
 756:.\Generated_Source\PSoC4/I2C_1_I2C_MASTER.c **** *  SCB_I2CMasterWriteBuf() function.
 757:.\Generated_Source\PSoC4/I2C_1_I2C_MASTER.c **** *
 758:.\Generated_Source\PSoC4/I2C_1_I2C_MASTER.c **** * Parameters:
 759:.\Generated_Source\PSoC4/I2C_1_I2C_MASTER.c **** *  None
 760:.\Generated_Source\PSoC4/I2C_1_I2C_MASTER.c **** *
 761:.\Generated_Source\PSoC4/I2C_1_I2C_MASTER.c **** * Return:
 762:.\Generated_Source\PSoC4/I2C_1_I2C_MASTER.c **** *  Byte count of transfer. If the transfer is not yet complete, it returns
 763:.\Generated_Source\PSoC4/I2C_1_I2C_MASTER.c **** *  zero unit transfer completion.
 764:.\Generated_Source\PSoC4/I2C_1_I2C_MASTER.c **** *
 765:.\Generated_Source\PSoC4/I2C_1_I2C_MASTER.c **** * Side Effects:
 766:.\Generated_Source\PSoC4/I2C_1_I2C_MASTER.c **** *  This function returns not valid value if SCB_I2C_MSTAT_ERR_ARB_LOST
 767:.\Generated_Source\PSoC4/I2C_1_I2C_MASTER.c **** *  or SCB_I2C_MSTAT_ERR_BUS_ERROR occurred while read transfer.
 768:.\Generated_Source\PSoC4/I2C_1_I2C_MASTER.c **** *
 769:.\Generated_Source\PSoC4/I2C_1_I2C_MASTER.c **** * Global variables:
 770:.\Generated_Source\PSoC4/I2C_1_I2C_MASTER.c **** *  I2C_1_mstrWrBufIndex - used to current index within master write
 771:.\Generated_Source\PSoC4/I2C_1_I2C_MASTER.c **** *  buffer.
 772:.\Generated_Source\PSoC4/I2C_1_I2C_MASTER.c **** *
 773:.\Generated_Source\PSoC4/I2C_1_I2C_MASTER.c **** *******************************************************************************/
 774:.\Generated_Source\PSoC4/I2C_1_I2C_MASTER.c **** uint32 I2C_1_I2CMasterGetWriteBufSize(void)
 775:.\Generated_Source\PSoC4/I2C_1_I2C_MASTER.c **** {
 552              		.loc 1 775 0
 553              		.cfi_startproc
 776:.\Generated_Source\PSoC4/I2C_1_I2C_MASTER.c ****     return(I2C_1_mstrWrBufIndex);
 554              		.loc 1 776 0
 555 0000 014B     		ldr	r3, .L78
 777:.\Generated_Source\PSoC4/I2C_1_I2C_MASTER.c **** }
 556              		.loc 1 777 0
 557              		@ sp needed for prologue
 776:.\Generated_Source\PSoC4/I2C_1_I2C_MASTER.c ****     return(I2C_1_mstrWrBufIndex);
 558              		.loc 1 776 0
 559 0002 1868     		ldr	r0, [r3]
 560              		.loc 1 777 0
 561 0004 7047     		bx	lr
 562              	.L79:
 563 0006 C046     		.align	2
 564              	.L78:
 565 0008 00000000 		.word	I2C_1_mstrWrBufIndex
 566              		.cfi_endproc
 567              	.LFE8:
ARM GAS  C:\Users\Milo\AppData\Local\Temp\ccfBxLki.s 			page 25


 568              		.size	I2C_1_I2CMasterGetWriteBufSize, .-I2C_1_I2CMasterGetWriteBufSize
 569              		.section	.text.I2C_1_I2CMasterClearReadBuf,"ax",%progbits
 570              		.align	1
 571              		.global	I2C_1_I2CMasterClearReadBuf
 572              		.code	16
 573              		.thumb_func
 574              		.type	I2C_1_I2CMasterClearReadBuf, %function
 575              	I2C_1_I2CMasterClearReadBuf:
 576              	.LFB9:
 778:.\Generated_Source\PSoC4/I2C_1_I2C_MASTER.c **** 
 779:.\Generated_Source\PSoC4/I2C_1_I2C_MASTER.c **** 
 780:.\Generated_Source\PSoC4/I2C_1_I2C_MASTER.c **** /*******************************************************************************
 781:.\Generated_Source\PSoC4/I2C_1_I2C_MASTER.c **** * Function Name: I2C_1_I2CMasterClearReadBuf
 782:.\Generated_Source\PSoC4/I2C_1_I2C_MASTER.c **** ********************************************************************************
 783:.\Generated_Source\PSoC4/I2C_1_I2C_MASTER.c **** *
 784:.\Generated_Source\PSoC4/I2C_1_I2C_MASTER.c **** * Summary:
 785:.\Generated_Source\PSoC4/I2C_1_I2C_MASTER.c **** *  Resets the read buffer pointer back to the first byte in the buffer.
 786:.\Generated_Source\PSoC4/I2C_1_I2C_MASTER.c **** *
 787:.\Generated_Source\PSoC4/I2C_1_I2C_MASTER.c **** * Parameters:
 788:.\Generated_Source\PSoC4/I2C_1_I2C_MASTER.c **** *  None
 789:.\Generated_Source\PSoC4/I2C_1_I2C_MASTER.c **** *
 790:.\Generated_Source\PSoC4/I2C_1_I2C_MASTER.c **** * Return:
 791:.\Generated_Source\PSoC4/I2C_1_I2C_MASTER.c **** *  None
 792:.\Generated_Source\PSoC4/I2C_1_I2C_MASTER.c **** *
 793:.\Generated_Source\PSoC4/I2C_1_I2C_MASTER.c **** * Global variables:
 794:.\Generated_Source\PSoC4/I2C_1_I2C_MASTER.c **** *  I2C_1_mstrRdBufIndex - used to current index within master read
 795:.\Generated_Source\PSoC4/I2C_1_I2C_MASTER.c **** *   buffer.
 796:.\Generated_Source\PSoC4/I2C_1_I2C_MASTER.c **** *  I2C_1_mstrStatus - used to store current status of I2C Master.
 797:.\Generated_Source\PSoC4/I2C_1_I2C_MASTER.c **** *
 798:.\Generated_Source\PSoC4/I2C_1_I2C_MASTER.c **** *******************************************************************************/
 799:.\Generated_Source\PSoC4/I2C_1_I2C_MASTER.c **** void I2C_1_I2CMasterClearReadBuf(void)
 800:.\Generated_Source\PSoC4/I2C_1_I2C_MASTER.c **** {
 577              		.loc 1 800 0
 578              		.cfi_startproc
 801:.\Generated_Source\PSoC4/I2C_1_I2C_MASTER.c ****     I2C_1_mstrRdBufIndex = 0u;
 579              		.loc 1 801 0
 580 0000 044B     		ldr	r3, .L81
 802:.\Generated_Source\PSoC4/I2C_1_I2C_MASTER.c ****     I2C_1_mstrStatus    &= (uint16) ~I2C_1_I2C_MSTAT_RD_CMPLT;
 581              		.loc 1 802 0
 582 0002 0548     		ldr	r0, .L81+4
 801:.\Generated_Source\PSoC4/I2C_1_I2C_MASTER.c ****     I2C_1_mstrRdBufIndex = 0u;
 583              		.loc 1 801 0
 584 0004 0022     		mov	r2, #0
 585 0006 1A60     		str	r2, [r3]
 586              		.loc 1 802 0
 587 0008 0288     		ldrh	r2, [r0]
 588 000a 0121     		mov	r1, #1
 589 000c 8A43     		bic	r2, r1
 590 000e 0280     		strh	r2, [r0]
 803:.\Generated_Source\PSoC4/I2C_1_I2C_MASTER.c **** }
 591              		.loc 1 803 0
 592              		@ sp needed for prologue
 593 0010 7047     		bx	lr
 594              	.L82:
 595 0012 C046     		.align	2
 596              	.L81:
 597 0014 00000000 		.word	I2C_1_mstrRdBufIndex
ARM GAS  C:\Users\Milo\AppData\Local\Temp\ccfBxLki.s 			page 26


 598 0018 00000000 		.word	I2C_1_mstrStatus
 599              		.cfi_endproc
 600              	.LFE9:
 601              		.size	I2C_1_I2CMasterClearReadBuf, .-I2C_1_I2CMasterClearReadBuf
 602              		.section	.text.I2C_1_I2CMasterClearWriteBuf,"ax",%progbits
 603              		.align	1
 604              		.global	I2C_1_I2CMasterClearWriteBuf
 605              		.code	16
 606              		.thumb_func
 607              		.type	I2C_1_I2CMasterClearWriteBuf, %function
 608              	I2C_1_I2CMasterClearWriteBuf:
 609              	.LFB10:
 804:.\Generated_Source\PSoC4/I2C_1_I2C_MASTER.c **** 
 805:.\Generated_Source\PSoC4/I2C_1_I2C_MASTER.c **** 
 806:.\Generated_Source\PSoC4/I2C_1_I2C_MASTER.c **** /*******************************************************************************
 807:.\Generated_Source\PSoC4/I2C_1_I2C_MASTER.c **** * Function Name: I2C_1_I2CMasterClearWriteBuf
 808:.\Generated_Source\PSoC4/I2C_1_I2C_MASTER.c **** ********************************************************************************
 809:.\Generated_Source\PSoC4/I2C_1_I2C_MASTER.c **** *
 810:.\Generated_Source\PSoC4/I2C_1_I2C_MASTER.c **** * Summary:
 811:.\Generated_Source\PSoC4/I2C_1_I2C_MASTER.c **** *  Resets the write buffer pointer back to the first byte in the buffer.
 812:.\Generated_Source\PSoC4/I2C_1_I2C_MASTER.c **** *
 813:.\Generated_Source\PSoC4/I2C_1_I2C_MASTER.c **** * Parameters:
 814:.\Generated_Source\PSoC4/I2C_1_I2C_MASTER.c **** *  None
 815:.\Generated_Source\PSoC4/I2C_1_I2C_MASTER.c **** *
 816:.\Generated_Source\PSoC4/I2C_1_I2C_MASTER.c **** * Return:
 817:.\Generated_Source\PSoC4/I2C_1_I2C_MASTER.c **** *  None
 818:.\Generated_Source\PSoC4/I2C_1_I2C_MASTER.c **** *
 819:.\Generated_Source\PSoC4/I2C_1_I2C_MASTER.c **** * Global variables:
 820:.\Generated_Source\PSoC4/I2C_1_I2C_MASTER.c **** *  I2C_1_mstrRdBufIndex - used to current index within master read
 821:.\Generated_Source\PSoC4/I2C_1_I2C_MASTER.c **** *   buffer.
 822:.\Generated_Source\PSoC4/I2C_1_I2C_MASTER.c **** *  I2C_1_mstrStatus - used to store current status of I2C Master.
 823:.\Generated_Source\PSoC4/I2C_1_I2C_MASTER.c **** *
 824:.\Generated_Source\PSoC4/I2C_1_I2C_MASTER.c **** *******************************************************************************/
 825:.\Generated_Source\PSoC4/I2C_1_I2C_MASTER.c **** void I2C_1_I2CMasterClearWriteBuf(void)
 826:.\Generated_Source\PSoC4/I2C_1_I2C_MASTER.c **** {
 610              		.loc 1 826 0
 611              		.cfi_startproc
 827:.\Generated_Source\PSoC4/I2C_1_I2C_MASTER.c ****     I2C_1_mstrWrBufIndex = 0u;
 612              		.loc 1 827 0
 613 0000 044B     		ldr	r3, .L84
 828:.\Generated_Source\PSoC4/I2C_1_I2C_MASTER.c ****     I2C_1_mstrStatus    &= (uint16) ~I2C_1_I2C_MSTAT_WR_CMPLT;
 614              		.loc 1 828 0
 615 0002 0548     		ldr	r0, .L84+4
 827:.\Generated_Source\PSoC4/I2C_1_I2C_MASTER.c ****     I2C_1_mstrWrBufIndex = 0u;
 616              		.loc 1 827 0
 617 0004 0022     		mov	r2, #0
 618 0006 1A60     		str	r2, [r3]
 619              		.loc 1 828 0
 620 0008 0288     		ldrh	r2, [r0]
 621 000a 0221     		mov	r1, #2
 622 000c 8A43     		bic	r2, r1
 623 000e 0280     		strh	r2, [r0]
 829:.\Generated_Source\PSoC4/I2C_1_I2C_MASTER.c **** }
 624              		.loc 1 829 0
 625              		@ sp needed for prologue
 626 0010 7047     		bx	lr
 627              	.L85:
ARM GAS  C:\Users\Milo\AppData\Local\Temp\ccfBxLki.s 			page 27


 628 0012 C046     		.align	2
 629              	.L84:
 630 0014 00000000 		.word	I2C_1_mstrWrBufIndex
 631 0018 00000000 		.word	I2C_1_mstrStatus
 632              		.cfi_endproc
 633              	.LFE10:
 634              		.size	I2C_1_I2CMasterClearWriteBuf, .-I2C_1_I2CMasterClearWriteBuf
 635              		.section	.text.I2C_1_I2CMasterStatus,"ax",%progbits
 636              		.align	1
 637              		.global	I2C_1_I2CMasterStatus
 638              		.code	16
 639              		.thumb_func
 640              		.type	I2C_1_I2CMasterStatus, %function
 641              	I2C_1_I2CMasterStatus:
 642              	.LFB11:
 830:.\Generated_Source\PSoC4/I2C_1_I2C_MASTER.c **** 
 831:.\Generated_Source\PSoC4/I2C_1_I2C_MASTER.c **** 
 832:.\Generated_Source\PSoC4/I2C_1_I2C_MASTER.c **** /*******************************************************************************
 833:.\Generated_Source\PSoC4/I2C_1_I2C_MASTER.c **** * Function Name: I2C_1_I2CMasterStatus
 834:.\Generated_Source\PSoC4/I2C_1_I2C_MASTER.c **** ********************************************************************************
 835:.\Generated_Source\PSoC4/I2C_1_I2C_MASTER.c **** *
 836:.\Generated_Source\PSoC4/I2C_1_I2C_MASTER.c **** * Summary:
 837:.\Generated_Source\PSoC4/I2C_1_I2C_MASTER.c **** *  Returns the master's communication status.
 838:.\Generated_Source\PSoC4/I2C_1_I2C_MASTER.c **** *
 839:.\Generated_Source\PSoC4/I2C_1_I2C_MASTER.c **** * Parameters:
 840:.\Generated_Source\PSoC4/I2C_1_I2C_MASTER.c **** *  None
 841:.\Generated_Source\PSoC4/I2C_1_I2C_MASTER.c **** *
 842:.\Generated_Source\PSoC4/I2C_1_I2C_MASTER.c **** * Return:
 843:.\Generated_Source\PSoC4/I2C_1_I2C_MASTER.c **** *  Current status of I2C master.
 844:.\Generated_Source\PSoC4/I2C_1_I2C_MASTER.c **** *
 845:.\Generated_Source\PSoC4/I2C_1_I2C_MASTER.c **** * Global variables:
 846:.\Generated_Source\PSoC4/I2C_1_I2C_MASTER.c **** *  I2C_1_mstrStatus - used to store current status of I2C Master.
 847:.\Generated_Source\PSoC4/I2C_1_I2C_MASTER.c **** *
 848:.\Generated_Source\PSoC4/I2C_1_I2C_MASTER.c **** *******************************************************************************/
 849:.\Generated_Source\PSoC4/I2C_1_I2C_MASTER.c **** uint32 I2C_1_I2CMasterStatus(void)
 850:.\Generated_Source\PSoC4/I2C_1_I2C_MASTER.c **** {
 643              		.loc 1 850 0
 644              		.cfi_startproc
 645 0000 00B5     		push	{lr}
 646              	.LCFI4:
 647              		.cfi_def_cfa_offset 4
 648              		.cfi_offset 14, -4
 851:.\Generated_Source\PSoC4/I2C_1_I2C_MASTER.c ****     uint32 status;
 852:.\Generated_Source\PSoC4/I2C_1_I2C_MASTER.c **** 
 853:.\Generated_Source\PSoC4/I2C_1_I2C_MASTER.c ****     status = (uint32) I2C_1_mstrStatus;
 649              		.loc 1 853 0
 650 0002 044B     		ldr	r3, .L89
 854:.\Generated_Source\PSoC4/I2C_1_I2C_MASTER.c **** 
 855:.\Generated_Source\PSoC4/I2C_1_I2C_MASTER.c ****     if(I2C_1_CHECK_I2C_MASTER_ACTIVE)
 651              		.loc 1 855 0
 652 0004 0449     		ldr	r1, .L89+4
 853:.\Generated_Source\PSoC4/I2C_1_I2C_MASTER.c ****     status = (uint32) I2C_1_mstrStatus;
 653              		.loc 1 853 0
 654 0006 1888     		ldrh	r0, [r3]
 655              	.LVL39:
 656              		.loc 1 855 0
 657 0008 0A78     		ldrb	r2, [r1]
ARM GAS  C:\Users\Milo\AppData\Local\Temp\ccfBxLki.s 			page 28


 658 000a 9206     		lsl	r2, r2, #26
 659 000c 01D5     		bpl	.L88
 856:.\Generated_Source\PSoC4/I2C_1_I2C_MASTER.c ****     {
 857:.\Generated_Source\PSoC4/I2C_1_I2C_MASTER.c ****         /* Add status of master pending transaction: MSTAT_XFER_INP */
 858:.\Generated_Source\PSoC4/I2C_1_I2C_MASTER.c ****         status |= (uint32) I2C_1_I2C_MSTAT_XFER_INP;
 660              		.loc 1 858 0
 661 000e 0423     		mov	r3, #4
 662 0010 1843     		orr	r0, r3
 663              	.LVL40:
 664              	.L88:
 859:.\Generated_Source\PSoC4/I2C_1_I2C_MASTER.c ****     }
 860:.\Generated_Source\PSoC4/I2C_1_I2C_MASTER.c **** 
 861:.\Generated_Source\PSoC4/I2C_1_I2C_MASTER.c ****     return(status);
 862:.\Generated_Source\PSoC4/I2C_1_I2C_MASTER.c **** }
 665              		.loc 1 862 0
 666              		@ sp needed for prologue
 667 0012 00BD     		pop	{pc}
 668              	.L90:
 669              		.align	2
 670              	.L89:
 671 0014 00000000 		.word	I2C_1_mstrStatus
 672 0018 00000000 		.word	I2C_1_state
 673              		.cfi_endproc
 674              	.LFE11:
 675              		.size	I2C_1_I2CMasterStatus, .-I2C_1_I2CMasterStatus
 676              		.section	.text.I2C_1_I2CMasterClearStatus,"ax",%progbits
 677              		.align	1
 678              		.global	I2C_1_I2CMasterClearStatus
 679              		.code	16
 680              		.thumb_func
 681              		.type	I2C_1_I2CMasterClearStatus, %function
 682              	I2C_1_I2CMasterClearStatus:
 683              	.LFB12:
 863:.\Generated_Source\PSoC4/I2C_1_I2C_MASTER.c **** 
 864:.\Generated_Source\PSoC4/I2C_1_I2C_MASTER.c **** 
 865:.\Generated_Source\PSoC4/I2C_1_I2C_MASTER.c **** /*******************************************************************************
 866:.\Generated_Source\PSoC4/I2C_1_I2C_MASTER.c **** * Function Name: I2C_1_I2CMasterClearStatus
 867:.\Generated_Source\PSoC4/I2C_1_I2C_MASTER.c **** ********************************************************************************
 868:.\Generated_Source\PSoC4/I2C_1_I2C_MASTER.c **** *
 869:.\Generated_Source\PSoC4/I2C_1_I2C_MASTER.c **** * Summary:
 870:.\Generated_Source\PSoC4/I2C_1_I2C_MASTER.c **** *  Clears all status flags and returns the master status.
 871:.\Generated_Source\PSoC4/I2C_1_I2C_MASTER.c **** *
 872:.\Generated_Source\PSoC4/I2C_1_I2C_MASTER.c **** * Parameters:
 873:.\Generated_Source\PSoC4/I2C_1_I2C_MASTER.c **** *  None
 874:.\Generated_Source\PSoC4/I2C_1_I2C_MASTER.c **** *
 875:.\Generated_Source\PSoC4/I2C_1_I2C_MASTER.c **** * Return:
 876:.\Generated_Source\PSoC4/I2C_1_I2C_MASTER.c **** *  Current status of I2C master.
 877:.\Generated_Source\PSoC4/I2C_1_I2C_MASTER.c **** *
 878:.\Generated_Source\PSoC4/I2C_1_I2C_MASTER.c **** * Global variables:
 879:.\Generated_Source\PSoC4/I2C_1_I2C_MASTER.c **** *  I2C_1_mstrStatus - used to store current status of I2C Master.
 880:.\Generated_Source\PSoC4/I2C_1_I2C_MASTER.c **** *
 881:.\Generated_Source\PSoC4/I2C_1_I2C_MASTER.c **** *******************************************************************************/
 882:.\Generated_Source\PSoC4/I2C_1_I2C_MASTER.c **** uint32 I2C_1_I2CMasterClearStatus(void)
 883:.\Generated_Source\PSoC4/I2C_1_I2C_MASTER.c **** {
 684              		.loc 1 883 0
 685              		.cfi_startproc
 884:.\Generated_Source\PSoC4/I2C_1_I2C_MASTER.c ****     uint32 status;
ARM GAS  C:\Users\Milo\AppData\Local\Temp\ccfBxLki.s 			page 29


 885:.\Generated_Source\PSoC4/I2C_1_I2C_MASTER.c **** 
 886:.\Generated_Source\PSoC4/I2C_1_I2C_MASTER.c ****     /* Read and clear master status */
 887:.\Generated_Source\PSoC4/I2C_1_I2C_MASTER.c ****     status = (uint32) I2C_1_mstrStatus;
 686              		.loc 1 887 0
 687 0000 024B     		ldr	r3, .L92
 888:.\Generated_Source\PSoC4/I2C_1_I2C_MASTER.c ****     I2C_1_mstrStatus = I2C_1_I2C_MSTAT_CLEAR;
 688              		.loc 1 888 0
 689 0002 0022     		mov	r2, #0
 887:.\Generated_Source\PSoC4/I2C_1_I2C_MASTER.c ****     status = (uint32) I2C_1_mstrStatus;
 690              		.loc 1 887 0
 691 0004 1888     		ldrh	r0, [r3]
 692              	.LVL41:
 889:.\Generated_Source\PSoC4/I2C_1_I2C_MASTER.c **** 
 890:.\Generated_Source\PSoC4/I2C_1_I2C_MASTER.c ****     return(status);
 891:.\Generated_Source\PSoC4/I2C_1_I2C_MASTER.c **** }
 693              		.loc 1 891 0
 694              		@ sp needed for prologue
 888:.\Generated_Source\PSoC4/I2C_1_I2C_MASTER.c ****     I2C_1_mstrStatus = I2C_1_I2C_MSTAT_CLEAR;
 695              		.loc 1 888 0
 696 0006 1A80     		strh	r2, [r3]
 697              		.loc 1 891 0
 698 0008 7047     		bx	lr
 699              	.L93:
 700 000a C046     		.align	2
 701              	.L92:
 702 000c 00000000 		.word	I2C_1_mstrStatus
 703              		.cfi_endproc
 704              	.LFE12:
 705              		.size	I2C_1_I2CMasterClearStatus, .-I2C_1_I2CMasterClearStatus
 706              		.section	.text.I2C_1_I2CReStartGeneration,"ax",%progbits
 707              		.align	1
 708              		.global	I2C_1_I2CReStartGeneration
 709              		.code	16
 710              		.thumb_func
 711              		.type	I2C_1_I2CReStartGeneration, %function
 712              	I2C_1_I2CReStartGeneration:
 713              	.LFB13:
 892:.\Generated_Source\PSoC4/I2C_1_I2C_MASTER.c **** 
 893:.\Generated_Source\PSoC4/I2C_1_I2C_MASTER.c **** 
 894:.\Generated_Source\PSoC4/I2C_1_I2C_MASTER.c **** /*******************************************************************************
 895:.\Generated_Source\PSoC4/I2C_1_I2C_MASTER.c **** * Function Name: I2C_1_I2CReStartGeneration
 896:.\Generated_Source\PSoC4/I2C_1_I2C_MASTER.c **** ********************************************************************************
 897:.\Generated_Source\PSoC4/I2C_1_I2C_MASTER.c **** *
 898:.\Generated_Source\PSoC4/I2C_1_I2C_MASTER.c **** * Summary:
 899:.\Generated_Source\PSoC4/I2C_1_I2C_MASTER.c **** *  Generates a ReStart condition:
 900:.\Generated_Source\PSoC4/I2C_1_I2C_MASTER.c **** *  SCB IP V1 and later: Generates ReStart using the scb IP functionality
 901:.\Generated_Source\PSoC4/I2C_1_I2C_MASTER.c **** *    Sets the I2C_MASTER_CMD_M_START and I2C_MASTER_CMD_M_NACK (if the previous
 902:.\Generated_Source\PSoC4/I2C_1_I2C_MASTER.c **** *    transaction was read) bits in the SCB.I2C_MASTER_CMD register. This combination
 903:.\Generated_Source\PSoC4/I2C_1_I2C_MASTER.c **** *    forces the master to generate ReStart.
 904:.\Generated_Source\PSoC4/I2C_1_I2C_MASTER.c **** *
 905:.\Generated_Source\PSoC4/I2C_1_I2C_MASTER.c **** *  SCB IP V0: Generates Restart using the GPIO and scb IP functionality.
 906:.\Generated_Source\PSoC4/I2C_1_I2C_MASTER.c **** *   After the master completes write or read, the SCL is stretched. The master waits
 907:.\Generated_Source\PSoC4/I2C_1_I2C_MASTER.c **** *   until SDA line is released by the slave. Then the GPIO function is enabled and
 908:.\Generated_Source\PSoC4/I2C_1_I2C_MASTER.c **** *   the scb IP disabled as it already does not drive the bus. In case of the previous
 909:.\Generated_Source\PSoC4/I2C_1_I2C_MASTER.c **** *   transfer was read, the NACK is generated by the GPIO. The delay of tLOW is
 910:.\Generated_Source\PSoC4/I2C_1_I2C_MASTER.c **** *   added to manage the hold time. Set I2C_M_CMD.START and enable the scb IP.
 911:.\Generated_Source\PSoC4/I2C_1_I2C_MASTER.c **** *   The ReStart generation is started after the I2C function is enabled for the SCL.
ARM GAS  C:\Users\Milo\AppData\Local\Temp\ccfBxLki.s 			page 30


 912:.\Generated_Source\PSoC4/I2C_1_I2C_MASTER.c **** *   Note1: the scb IP due re-enable generates Start but on the I2C bus it
 913:.\Generated_Source\PSoC4/I2C_1_I2C_MASTER.c **** *          appears as ReStart.
 914:.\Generated_Source\PSoC4/I2C_1_I2C_MASTER.c **** *   Note2: the I2C_M_CMD.START is queued if scb IP is disabled.
 915:.\Generated_Source\PSoC4/I2C_1_I2C_MASTER.c **** *   Note3: the I2C_STATUS_M_READ is cleared is address was NACKed before.
 916:.\Generated_Source\PSoC4/I2C_1_I2C_MASTER.c **** *
 917:.\Generated_Source\PSoC4/I2C_1_I2C_MASTER.c **** * Parameters:
 918:.\Generated_Source\PSoC4/I2C_1_I2C_MASTER.c **** *  None
 919:.\Generated_Source\PSoC4/I2C_1_I2C_MASTER.c **** *
 920:.\Generated_Source\PSoC4/I2C_1_I2C_MASTER.c **** * Return:
 921:.\Generated_Source\PSoC4/I2C_1_I2C_MASTER.c **** *  None
 922:.\Generated_Source\PSoC4/I2C_1_I2C_MASTER.c **** *
 923:.\Generated_Source\PSoC4/I2C_1_I2C_MASTER.c **** * Side Effects:
 924:.\Generated_Source\PSoC4/I2C_1_I2C_MASTER.c **** *  SCB IP V0: The NACK generation by the GPIO may cause a greater SCL period than
 925:.\Generated_Source\PSoC4/I2C_1_I2C_MASTER.c **** *  expected for the selected master data rate.
 926:.\Generated_Source\PSoC4/I2C_1_I2C_MASTER.c **** *
 927:.\Generated_Source\PSoC4/I2C_1_I2C_MASTER.c **** *******************************************************************************/
 928:.\Generated_Source\PSoC4/I2C_1_I2C_MASTER.c **** void I2C_1_I2CReStartGeneration(void)
 929:.\Generated_Source\PSoC4/I2C_1_I2C_MASTER.c **** {
 714              		.loc 1 929 0
 715              		.cfi_startproc
 716 0000 F8B5     		push	{r3, r4, r5, r6, r7, lr}
 717              	.LCFI5:
 718              		.cfi_def_cfa_offset 24
 719              		.cfi_offset 3, -24
 720              		.cfi_offset 4, -20
 721              		.cfi_offset 5, -16
 722              		.cfi_offset 6, -12
 723              		.cfi_offset 7, -8
 724              		.cfi_offset 14, -4
 930:.\Generated_Source\PSoC4/I2C_1_I2C_MASTER.c **** #if(I2C_1_CY_SCBIP_V0)
 931:.\Generated_Source\PSoC4/I2C_1_I2C_MASTER.c ****     /* Generates Restart use GPIO and scb IP functionality. Ticket ID#143715,
 932:.\Generated_Source\PSoC4/I2C_1_I2C_MASTER.c ****     ID#145238 and ID#173656 */
 933:.\Generated_Source\PSoC4/I2C_1_I2C_MASTER.c ****     uint32 status = I2C_1_I2C_STATUS_REG;
 725              		.loc 1 933 0
 726 0002 1E4B     		ldr	r3, .L109
 727 0004 1D68     		ldr	r5, [r3]
 728              	.LVL42:
 729              	.L95:
 934:.\Generated_Source\PSoC4/I2C_1_I2C_MASTER.c **** 
 935:.\Generated_Source\PSoC4/I2C_1_I2C_MASTER.c ****     while(I2C_1_WAIT_SDA_SET_HIGH)
 730              		.loc 1 935 0 discriminator 1
 731 0006 FFF7FEFF 		bl	I2C_1_sda_Read
 732              	.LVL43:
 733 000a 0028     		cmp	r0, #0
 734 000c FBD0     		beq	.L95
 936:.\Generated_Source\PSoC4/I2C_1_I2C_MASTER.c ****     {
 937:.\Generated_Source\PSoC4/I2C_1_I2C_MASTER.c ****         /* Wait when slave release SDA line: SCL tHIGH is complete */
 938:.\Generated_Source\PSoC4/I2C_1_I2C_MASTER.c ****     }
 939:.\Generated_Source\PSoC4/I2C_1_I2C_MASTER.c **** 
 940:.\Generated_Source\PSoC4/I2C_1_I2C_MASTER.c ****     /* Prepare DR register to drive SCL line */
 941:.\Generated_Source\PSoC4/I2C_1_I2C_MASTER.c ****     I2C_1_SET_I2C_SCL_DR(I2C_1_I2C_SCL_LOW);
 735              		.loc 1 941 0
 736 000e 0020     		mov	r0, #0
 737 0010 FFF7FEFF 		bl	I2C_1_scl_Write
 738              	.LVL44:
 942:.\Generated_Source\PSoC4/I2C_1_I2C_MASTER.c **** 
 943:.\Generated_Source\PSoC4/I2C_1_I2C_MASTER.c ****     /* Switch HSIOM to GPIO: SCL goes low */
ARM GAS  C:\Users\Milo\AppData\Local\Temp\ccfBxLki.s 			page 31


 944:.\Generated_Source\PSoC4/I2C_1_I2C_MASTER.c ****     I2C_1_SET_I2C_SCL_HSIOM_SEL(I2C_1_HSIOM_GPIO_SEL);
 739              		.loc 1 944 0
 740 0014 1A4A     		ldr	r2, .L109+4
 741 0016 1B4E     		ldr	r6, .L109+8
 742 0018 1068     		ldr	r0, [r2]
 945:.\Generated_Source\PSoC4/I2C_1_I2C_MASTER.c **** 
 946:.\Generated_Source\PSoC4/I2C_1_I2C_MASTER.c ****     /* Disable SCB block */
 947:.\Generated_Source\PSoC4/I2C_1_I2C_MASTER.c ****     I2C_1_CTRL_REG &= (uint32) ~I2C_1_CTRL_ENABLED;
 743              		.loc 1 947 0
 744 001a 1B4F     		ldr	r7, .L109+12
 944:.\Generated_Source\PSoC4/I2C_1_I2C_MASTER.c ****     I2C_1_SET_I2C_SCL_HSIOM_SEL(I2C_1_HSIOM_GPIO_SEL);
 745              		.loc 1 944 0
 746 001c 3040     		and	r0, r6
 747 001e 1060     		str	r0, [r2]
 748              		.loc 1 947 0
 749 0020 3968     		ldr	r1, [r7]
 750 0022 4C00     		lsl	r4, r1, #1
 751 0024 6308     		lsr	r3, r4, #1
 752 0026 3B60     		str	r3, [r7]
 753 0028 141C     		mov	r4, r2
 948:.\Generated_Source\PSoC4/I2C_1_I2C_MASTER.c **** 
 949:.\Generated_Source\PSoC4/I2C_1_I2C_MASTER.c ****     if(0u != (status & I2C_1_I2C_STATUS_M_READ))
 754              		.loc 1 949 0
 755 002a AB06     		lsl	r3, r5, #26
 756 002c 0FD5     		bpl	.L96
 950:.\Generated_Source\PSoC4/I2C_1_I2C_MASTER.c ****     {
 951:.\Generated_Source\PSoC4/I2C_1_I2C_MASTER.c ****         /* Generate NACK use GPIO functionality */
 952:.\Generated_Source\PSoC4/I2C_1_I2C_MASTER.c ****         I2C_1_SET_I2C_SCL_DR(I2C_1_I2C_SCL_LOW);
 757              		.loc 1 952 0
 758 002e 0020     		mov	r0, #0
 759 0030 FFF7FEFF 		bl	I2C_1_scl_Write
 760              	.LVL45:
 953:.\Generated_Source\PSoC4/I2C_1_I2C_MASTER.c ****         CyDelayUs(I2C_1_I2C_TLOW_TIME); /* Count tLOW */
 761              		.loc 1 953 0
 762 0034 1420     		mov	r0, #20
 763 0036 FFF7FEFF 		bl	CyDelayUs
 764              	.LVL46:
 954:.\Generated_Source\PSoC4/I2C_1_I2C_MASTER.c **** 
 955:.\Generated_Source\PSoC4/I2C_1_I2C_MASTER.c ****         I2C_1_SET_I2C_SCL_DR(I2C_1_I2C_SCL_HIGH);
 765              		.loc 1 955 0
 766 003a 0120     		mov	r0, #1
 767 003c FFF7FEFF 		bl	I2C_1_scl_Write
 768              	.LVL47:
 769              	.L97:
 956:.\Generated_Source\PSoC4/I2C_1_I2C_MASTER.c ****         while(I2C_1_WAIT_SCL_SET_HIGH)
 770              		.loc 1 956 0 discriminator 1
 771 0040 FFF7FEFF 		bl	I2C_1_scl_Read
 772              	.LVL48:
 773 0044 0028     		cmp	r0, #0
 774 0046 FBD0     		beq	.L97
 957:.\Generated_Source\PSoC4/I2C_1_I2C_MASTER.c ****         {
 958:.\Generated_Source\PSoC4/I2C_1_I2C_MASTER.c ****             /* Wait until slave releases SCL in case if it stretches */
 959:.\Generated_Source\PSoC4/I2C_1_I2C_MASTER.c ****         }
 960:.\Generated_Source\PSoC4/I2C_1_I2C_MASTER.c ****         CyDelayUs(I2C_1_I2C_THIGH_TIME); /* Count tHIGH */
 775              		.loc 1 960 0
 776 0048 1420     		mov	r0, #20
 777 004a FFF7FEFF 		bl	CyDelayUs
ARM GAS  C:\Users\Milo\AppData\Local\Temp\ccfBxLki.s 			page 32


 778              	.LVL49:
 779              	.L96:
 961:.\Generated_Source\PSoC4/I2C_1_I2C_MASTER.c ****     }
 962:.\Generated_Source\PSoC4/I2C_1_I2C_MASTER.c **** 
 963:.\Generated_Source\PSoC4/I2C_1_I2C_MASTER.c ****     /* Count tLOW as hold time for write and read */
 964:.\Generated_Source\PSoC4/I2C_1_I2C_MASTER.c ****     I2C_1_SET_I2C_SCL_DR(I2C_1_I2C_SCL_LOW);
 780              		.loc 1 964 0
 781 004e 0020     		mov	r0, #0
 782 0050 FFF7FEFF 		bl	I2C_1_scl_Write
 783              	.LVL50:
 965:.\Generated_Source\PSoC4/I2C_1_I2C_MASTER.c ****     CyDelayUs(I2C_1_I2C_TLOW_TIME); /* Count tLOW */
 966:.\Generated_Source\PSoC4/I2C_1_I2C_MASTER.c **** 
 967:.\Generated_Source\PSoC4/I2C_1_I2C_MASTER.c ****     /* Set command for Start generation: it will appear */
 968:.\Generated_Source\PSoC4/I2C_1_I2C_MASTER.c ****     I2C_1_I2C_MASTER_CMD_REG = I2C_1_I2C_MASTER_CMD_M_START;
 784              		.loc 1 968 0
 785 0054 0D4D     		ldr	r5, .L109+16
 786              	.LVL51:
 965:.\Generated_Source\PSoC4/I2C_1_I2C_MASTER.c ****     CyDelayUs(I2C_1_I2C_TLOW_TIME); /* Count tLOW */
 787              		.loc 1 965 0
 788 0056 1420     		mov	r0, #20
 789 0058 FFF7FEFF 		bl	CyDelayUs
 790              	.LVL52:
 791              		.loc 1 968 0
 792 005c 0120     		mov	r0, #1
 793 005e 2860     		str	r0, [r5]
 969:.\Generated_Source\PSoC4/I2C_1_I2C_MASTER.c **** 
 970:.\Generated_Source\PSoC4/I2C_1_I2C_MASTER.c ****     /* Enable SCB block */
 971:.\Generated_Source\PSoC4/I2C_1_I2C_MASTER.c ****     I2C_1_CTRL_REG |= (uint32) I2C_1_CTRL_ENABLED;
 794              		.loc 1 971 0
 795 0060 3A68     		ldr	r2, [r7]
 796 0062 8021     		mov	r1, #128
 797 0064 0B06     		lsl	r3, r1, #24
 798 0066 1343     		orr	r3, r2
 799 0068 3B60     		str	r3, [r7]
 972:.\Generated_Source\PSoC4/I2C_1_I2C_MASTER.c **** 
 973:.\Generated_Source\PSoC4/I2C_1_I2C_MASTER.c ****     /* Switch HSIOM to I2C: */
 974:.\Generated_Source\PSoC4/I2C_1_I2C_MASTER.c ****     I2C_1_SET_I2C_SCL_HSIOM_SEL(I2C_1_HSIOM_I2C_SEL);
 800              		.loc 1 974 0
 801 006a 2768     		ldr	r7, [r4]
 802 006c E025     		mov	r5, #224
 803 006e 2A03     		lsl	r2, r5, #12
 804 0070 3E40     		and	r6, r7
 805 0072 1643     		orr	r6, r2
 806 0074 2660     		str	r6, [r4]
 975:.\Generated_Source\PSoC4/I2C_1_I2C_MASTER.c **** 
 976:.\Generated_Source\PSoC4/I2C_1_I2C_MASTER.c ****     /* Revert SCL DR register */
 977:.\Generated_Source\PSoC4/I2C_1_I2C_MASTER.c ****     I2C_1_SET_I2C_SCL_DR(I2C_1_I2C_SCL_HIGH);
 807              		.loc 1 977 0
 808 0076 FFF7FEFF 		bl	I2C_1_scl_Write
 809              	.LVL53:
 978:.\Generated_Source\PSoC4/I2C_1_I2C_MASTER.c **** #else
 979:.\Generated_Source\PSoC4/I2C_1_I2C_MASTER.c ****     uint32 cmd;
 980:.\Generated_Source\PSoC4/I2C_1_I2C_MASTER.c **** 
 981:.\Generated_Source\PSoC4/I2C_1_I2C_MASTER.c ****     /* Generates ReStart use scb IP functionality */
 982:.\Generated_Source\PSoC4/I2C_1_I2C_MASTER.c ****     cmd  = I2C_1_I2C_MASTER_CMD_M_START;
 983:.\Generated_Source\PSoC4/I2C_1_I2C_MASTER.c ****     cmd |= I2C_1_CHECK_I2C_STATUS(I2C_1_I2C_STATUS_M_READ) ?
 984:.\Generated_Source\PSoC4/I2C_1_I2C_MASTER.c ****                 (I2C_1_I2C_MASTER_CMD_M_NACK) : (0u);
ARM GAS  C:\Users\Milo\AppData\Local\Temp\ccfBxLki.s 			page 33


 985:.\Generated_Source\PSoC4/I2C_1_I2C_MASTER.c **** 
 986:.\Generated_Source\PSoC4/I2C_1_I2C_MASTER.c ****     I2C_1_I2C_MASTER_CMD_REG = cmd;
 987:.\Generated_Source\PSoC4/I2C_1_I2C_MASTER.c **** #endif /* (I2C_1_CY_SCBIP_V1) */
 988:.\Generated_Source\PSoC4/I2C_1_I2C_MASTER.c **** }
 810              		.loc 1 988 0
 811              		@ sp needed for prologue
 812 007a F8BD     		pop	{r3, r4, r5, r6, r7, pc}
 813              	.L110:
 814              		.align	2
 815              	.L109:
 816 007c 64000740 		.word	1074200676
 817 0080 00000140 		.word	1073807360
 818 0084 FFFFF0FF 		.word	-983041
 819 0088 00000740 		.word	1074200576
 820 008c 68000740 		.word	1074200680
 821              		.cfi_endproc
 822              	.LFE13:
 823              		.size	I2C_1_I2CReStartGeneration, .-I2C_1_I2CReStartGeneration
 824              		.section	.text.I2C_1_I2CMasterSendRestart,"ax",%progbits
 825              		.align	1
 826              		.global	I2C_1_I2CMasterSendRestart
 827              		.code	16
 828              		.thumb_func
 829              		.type	I2C_1_I2CMasterSendRestart, %function
 830              	I2C_1_I2CMasterSendRestart:
 831              	.LFB3:
 388:.\Generated_Source\PSoC4/I2C_1_I2C_MASTER.c **** {
 832              		.loc 1 388 0
 833              		.cfi_startproc
 834              	.LVL54:
 835 0000 70B5     		push	{r4, r5, r6, lr}
 836              	.LCFI6:
 837              		.cfi_def_cfa_offset 16
 838              		.cfi_offset 4, -16
 839              		.cfi_offset 5, -12
 840              		.cfi_offset 6, -8
 841              		.cfi_offset 14, -4
 396:.\Generated_Source\PSoC4/I2C_1_I2C_MASTER.c ****     if(I2C_1_CHECK_I2C_MASTER_ACTIVE)
 842              		.loc 1 396 0
 843 0002 224C     		ldr	r4, .L131
 388:.\Generated_Source\PSoC4/I2C_1_I2C_MASTER.c **** {
 844              		.loc 1 388 0
 845 0004 051C     		mov	r5, r0
 396:.\Generated_Source\PSoC4/I2C_1_I2C_MASTER.c ****     if(I2C_1_CHECK_I2C_MASTER_ACTIVE)
 846              		.loc 1 396 0
 847 0006 2378     		ldrb	r3, [r4]
 393:.\Generated_Source\PSoC4/I2C_1_I2C_MASTER.c ****     errStatus = I2C_1_I2C_MSTR_NOT_READY;
 848              		.loc 1 393 0
 849 0008 0420     		mov	r0, #4
 850              	.LVL55:
 396:.\Generated_Source\PSoC4/I2C_1_I2C_MASTER.c ****     if(I2C_1_CHECK_I2C_MASTER_ACTIVE)
 851              		.loc 1 396 0
 852 000a 9A06     		lsl	r2, r3, #26
 853 000c 3DD5     		bpl	.L112
 398:.\Generated_Source\PSoC4/I2C_1_I2C_MASTER.c ****         slaveAddress = I2C_1_GET_I2C_8BIT_ADDRESS(slaveAddress);
 854              		.loc 1 398 0
 855 000e 6D00     		lsl	r5, r5, #1
ARM GAS  C:\Users\Milo\AppData\Local\Temp\ccfBxLki.s 			page 34


 856              	.LVL56:
 857 0010 FF20     		mov	r0, #255
 858 0012 0540     		and	r5, r0
 859              	.LVL57:
 400:.\Generated_Source\PSoC4/I2C_1_I2C_MASTER.c ****         if(0u == bitRnW) /* Write direction */
 860              		.loc 1 400 0
 861 0014 0029     		cmp	r1, #0
 862 0016 02D1     		bne	.L113
 402:.\Generated_Source\PSoC4/I2C_1_I2C_MASTER.c ****             I2C_1_state = I2C_1_I2C_FSM_MSTR_WR_DATA;
 863              		.loc 1 402 0
 864 0018 2426     		mov	r6, #36
 865 001a 2670     		strb	r6, [r4]
 866 001c 03E0     		b	.L114
 867              	.L113:
 406:.\Generated_Source\PSoC4/I2C_1_I2C_MASTER.c ****             I2C_1_state  = I2C_1_I2C_FSM_MSTR_RD_DATA;
 868              		.loc 1 406 0
 869 001e 2521     		mov	r1, #37
 870              	.LVL58:
 407:.\Generated_Source\PSoC4/I2C_1_I2C_MASTER.c ****                       slaveAddress |= I2C_1_I2C_READ_FLAG;
 871              		.loc 1 407 0
 872 0020 0122     		mov	r2, #1
 406:.\Generated_Source\PSoC4/I2C_1_I2C_MASTER.c ****             I2C_1_state  = I2C_1_I2C_FSM_MSTR_RD_DATA;
 873              		.loc 1 406 0
 874 0022 2170     		strb	r1, [r4]
 407:.\Generated_Source\PSoC4/I2C_1_I2C_MASTER.c ****                       slaveAddress |= I2C_1_I2C_READ_FLAG;
 875              		.loc 1 407 0
 876 0024 1543     		orr	r5, r2
 877              	.LVL59:
 878              	.L114:
 413:.\Generated_Source\PSoC4/I2C_1_I2C_MASTER.c ****         I2C_1_ClearMasterInterruptSource(I2C_1_INTR_MASTER_ALL);
 879              		.loc 1 413 0
 880 0026 1A4E     		ldr	r6, .L131+4
 881 0028 1A4B     		ldr	r3, .L131+8
 882 002a 3360     		str	r3, [r6]
 419:.\Generated_Source\PSoC4/I2C_1_I2C_MASTER.c ****         I2C_1_I2C_MASTER_GENERATE_RESTART;
 883              		.loc 1 419 0
 884 002c FFF7FEFF 		bl	I2C_1_I2CReStartGeneration
 885              	.LVL60:
 886              	.L115:
 421:.\Generated_Source\PSoC4/I2C_1_I2C_MASTER.c ****         while(I2C_1_CHECK_I2C_MASTER_CMD(I2C_1_I2C_MASTER_CMD_M_START))
 887              		.loc 1 421 0 discriminator 1
 888 0030 1948     		ldr	r0, .L131+12
 889 0032 0168     		ldr	r1, [r0]
 890 0034 CA07     		lsl	r2, r1, #31
 891 0036 FBD4     		bmi	.L115
 427:.\Generated_Source\PSoC4/I2C_1_I2C_MASTER.c ****         I2C_1_TX_FIFO_WR_REG = slaveAddress;
 892              		.loc 1 427 0
 893 0038 184A     		ldr	r2, .L131+16
 894 003a 1560     		str	r5, [r2]
 895              	.LVL61:
 896              	.L116:
 430:.\Generated_Source\PSoC4/I2C_1_I2C_MASTER.c ****         while(!I2C_1_CHECK_INTR_MASTER(I2C_1_INTR_MASTER_I2C_ACK      |
 897              		.loc 1 430 0 discriminator 1
 898 003c 3568     		ldr	r5, [r6]
 899 003e 1849     		ldr	r1, .L131+20
 900 0040 134A     		ldr	r2, .L131+4
 901 0042 0D42     		tst	r5, r1
ARM GAS  C:\Users\Milo\AppData\Local\Temp\ccfBxLki.s 			page 35


 902 0044 FAD0     		beq	.L116
 439:.\Generated_Source\PSoC4/I2C_1_I2C_MASTER.c ****         if(I2C_1_CHECK_INTR_MASTER(I2C_1_INTR_MASTER_I2C_ACK))
 903              		.loc 1 439 0
 904 0046 1068     		ldr	r0, [r2]
 905 0048 0423     		mov	r3, #4
 906 004a 0340     		and	r3, r0
 907 004c 0ED1     		bne	.L120
 443:.\Generated_Source\PSoC4/I2C_1_I2C_MASTER.c ****         else if(I2C_1_CHECK_INTR_MASTER(I2C_1_INTR_MASTER_I2C_NACK))
 908              		.loc 1 443 0
 909 004e 1568     		ldr	r5, [r2]
 910 0050 0220     		mov	r0, #2
 911 0052 0542     		tst	r5, r0
 912 0054 0CD1     		bne	.L117
 447:.\Generated_Source\PSoC4/I2C_1_I2C_MASTER.c ****         else if(I2C_1_CHECK_INTR_MASTER(I2C_1_INTR_MASTER_I2C_ARB_LOST))
 913              		.loc 1 447 0
 914 0056 1068     		ldr	r0, [r2]
 915 0058 0123     		mov	r3, #1
 916 005a 1022     		mov	r2, #16
 449:.\Generated_Source\PSoC4/I2C_1_I2C_MASTER.c ****             I2C_1_state = I2C_1_I2C_FSM_IDLE;
 917              		.loc 1 449 0
 918 005c 2270     		strb	r2, [r4]
 447:.\Generated_Source\PSoC4/I2C_1_I2C_MASTER.c ****         else if(I2C_1_CHECK_INTR_MASTER(I2C_1_INTR_MASTER_I2C_ARB_LOST))
 919              		.loc 1 447 0
 920 005e 1842     		tst	r0, r3
 921 0060 01D0     		beq	.L118
 922              	.LVL62:
 450:.\Generated_Source\PSoC4/I2C_1_I2C_MASTER.c ****                          errStatus = I2C_1_I2C_MSTR_ERR_ARB_LOST;
 923              		.loc 1 450 0
 924 0062 181C     		mov	r0, r3
 925 0064 04E0     		b	.L117
 926              	.LVL63:
 927              	.L118:
 456:.\Generated_Source\PSoC4/I2C_1_I2C_MASTER.c ****                          errStatus = I2C_1_I2C_MSTR_ERR_BUS_ERR;
 928              		.loc 1 456 0
 929 0066 8024     		mov	r4, #128
 930 0068 6000     		lsl	r0, r4, #1
 931 006a 01E0     		b	.L117
 932              	.LVL64:
 933              	.L120:
 441:.\Generated_Source\PSoC4/I2C_1_I2C_MASTER.c ****             errStatus = I2C_1_I2C_MSTR_NO_ERROR;
 934              		.loc 1 441 0
 935 006c 0020     		mov	r0, #0
 392:.\Generated_Source\PSoC4/I2C_1_I2C_MASTER.c ****     resetIp   = 0u;
 936              		.loc 1 392 0
 937 006e 031C     		mov	r3, r0
 938              	.LVL65:
 939              	.L117:
 460:.\Generated_Source\PSoC4/I2C_1_I2C_MASTER.c ****         I2C_1_ClearMasterInterruptSource(I2C_1_INTR_MASTER_I2C_ACK      |
 940              		.loc 1 460 0
 941 0070 3160     		str	r1, [r6]
 466:.\Generated_Source\PSoC4/I2C_1_I2C_MASTER.c ****         if(0u != resetIp)
 942              		.loc 1 466 0
 943 0072 002B     		cmp	r3, #0
 944 0074 09D0     		beq	.L112
 468:.\Generated_Source\PSoC4/I2C_1_I2C_MASTER.c ****             I2C_1_SCB_SW_RESET;
 945              		.loc 1 468 0
 946 0076 0B4E     		ldr	r6, .L131+24
ARM GAS  C:\Users\Milo\AppData\Local\Temp\ccfBxLki.s 			page 36


 947 0078 8023     		mov	r3, #128
 948              	.LVL66:
 949 007a 3168     		ldr	r1, [r6]
 950 007c 4D00     		lsl	r5, r1, #1
 951 007e 6A08     		lsr	r2, r5, #1
 952 0080 3260     		str	r2, [r6]
 953 0082 3468     		ldr	r4, [r6]
 954 0084 1906     		lsl	r1, r3, #24
 955 0086 2143     		orr	r1, r4
 956 0088 3160     		str	r1, [r6]
 957              	.LVL67:
 958              	.L112:
 473:.\Generated_Source\PSoC4/I2C_1_I2C_MASTER.c **** }
 959              		.loc 1 473 0
 960              		@ sp needed for prologue
 961 008a 70BD     		pop	{r4, r5, r6, pc}
 962              	.L132:
 963              		.align	2
 964              	.L131:
 965 008c 00000000 		.word	I2C_1_state
 966 0090 000F0740 		.word	1074204416
 967 0094 17030000 		.word	791
 968 0098 68000740 		.word	1074200680
 969 009c 40020740 		.word	1074201152
 970 00a0 07010000 		.word	263
 971 00a4 00000740 		.word	1074200576
 972              		.cfi_endproc
 973              	.LFE3:
 974              		.size	I2C_1_I2CMasterSendRestart, .-I2C_1_I2CMasterSendRestart
 975              		.section	.text.I2C_1_I2CMasterReadBuf,"ax",%progbits
 976              		.align	1
 977              		.global	I2C_1_I2CMasterReadBuf
 978              		.code	16
 979              		.thumb_func
 980              		.type	I2C_1_I2CMasterReadBuf, %function
 981              	I2C_1_I2CMasterReadBuf:
 982              	.LFB1:
 178:.\Generated_Source\PSoC4/I2C_1_I2C_MASTER.c **** {
 983              		.loc 1 178 0
 984              		.cfi_startproc
 985              	.LVL68:
 986 0000 F7B5     		push	{r0, r1, r2, r4, r5, r6, r7, lr}
 987              	.LCFI7:
 988              		.cfi_def_cfa_offset 32
 989              		.cfi_offset 0, -32
 990              		.cfi_offset 1, -28
 991              		.cfi_offset 2, -24
 992              		.cfi_offset 4, -20
 993              		.cfi_offset 5, -16
 994              		.cfi_offset 6, -12
 995              		.cfi_offset 7, -8
 996              		.cfi_offset 14, -4
 178:.\Generated_Source\PSoC4/I2C_1_I2C_MASTER.c **** {
 997              		.loc 1 178 0
 998 0002 071C     		mov	r7, r0
 999 0004 0D1C     		mov	r5, r1
 1000 0006 0192     		str	r2, [sp, #4]
ARM GAS  C:\Users\Milo\AppData\Local\Temp\ccfBxLki.s 			page 37


 1001 0008 0093     		str	r3, [sp]
 183:.\Generated_Source\PSoC4/I2C_1_I2C_MASTER.c ****     if(NULL != rdData)
 1002              		.loc 1 183 0
 1003 000a 4BD0     		beq	.L142
 186:.\Generated_Source\PSoC4/I2C_1_I2C_MASTER.c ****         if(I2C_1_CHECK_I2C_FSM_IDLE)
 1004              		.loc 1 186 0
 1005 000c 284E     		ldr	r6, .L148
 1006 000e 3378     		ldrb	r3, [r6]
 1007              	.LVL69:
 1008 0010 102B     		cmp	r3, #16
 1009 0012 08D1     		bne	.L135
 188:.\Generated_Source\PSoC4/I2C_1_I2C_MASTER.c ****             I2C_1_DisableInt();
 1010              		.loc 1 188 0
 1011 0014 0B20     		mov	r0, #11
 1012              	.LVL70:
 1013 0016 FFF7FEFF 		bl	CyIntDisable
 1014              	.LVL71:
 191:.\Generated_Source\PSoC4/I2C_1_I2C_MASTER.c ****             errStatus = I2C_1_CHECK_I2C_STATUS(I2C_1_I2C_STATUS_BUS_BUSY) ?
 1015              		.loc 1 191 0
 1016 001a 264B     		ldr	r3, .L148+4
 1017 001c 0824     		mov	r4, #8
 1018 001e 1868     		ldr	r0, [r3]
 1019 0020 C207     		lsl	r2, r0, #31
 1020 0022 40D4     		bmi	.L139
 1021 0024 08E0     		b	.L136
 1022              	.LVL72:
 1023              	.L135:
 194:.\Generated_Source\PSoC4/I2C_1_I2C_MASTER.c ****         else if(I2C_1_CHECK_I2C_FSM_HALT)
 1024              		.loc 1 194 0
 1025 0026 3078     		ldrb	r0, [r6]
 1026              	.LVL73:
 181:.\Generated_Source\PSoC4/I2C_1_I2C_MASTER.c ****     errStatus = I2C_1_I2C_MSTR_NOT_READY;
 1027              		.loc 1 181 0
 1028 0028 0424     		mov	r4, #4
 194:.\Generated_Source\PSoC4/I2C_1_I2C_MASTER.c ****         else if(I2C_1_CHECK_I2C_FSM_HALT)
 1029              		.loc 1 194 0
 1030 002a 6028     		cmp	r0, #96
 1031 002c 3BD1     		bne	.L139
 196:.\Generated_Source\PSoC4/I2C_1_I2C_MASTER.c ****             I2C_1_mstrStatus &= (uint16) ~I2C_1_I2C_MSTAT_XFER_HALT;
 1032              		.loc 1 196 0
 1033 002e 224C     		ldr	r4, .L148+8
 1034 0030 0821     		mov	r1, #8
 1035              	.LVL74:
 1036 0032 2288     		ldrh	r2, [r4]
 1037              	.LVL75:
 1038 0034 8A43     		bic	r2, r1
 1039 0036 2280     		strh	r2, [r4]
 1040              	.LVL76:
 1041              	.L136:
 209:.\Generated_Source\PSoC4/I2C_1_I2C_MASTER.c ****         I2C_1_state = I2C_1_I2C_FSM_MSTR_RD_ADDR;
 1042              		.loc 1 209 0
 1043 0038 2924     		mov	r4, #41
 210:.\Generated_Source\PSoC4/I2C_1_I2C_MASTER.c ****         I2C_1_mstrRdBufIndex = 0u;
 1044              		.loc 1 210 0
 1045 003a 204A     		ldr	r2, .L148+12
 212:.\Generated_Source\PSoC4/I2C_1_I2C_MASTER.c ****         I2C_1_mstrRdBufPtr   = (volatile uint8 *) rdData;
 1046              		.loc 1 212 0
ARM GAS  C:\Users\Milo\AppData\Local\Temp\ccfBxLki.s 			page 38


 1047 003c 204B     		ldr	r3, .L148+16
 209:.\Generated_Source\PSoC4/I2C_1_I2C_MASTER.c ****         I2C_1_state = I2C_1_I2C_FSM_MSTR_RD_ADDR;
 1048              		.loc 1 209 0
 1049 003e 3470     		strb	r4, [r6]
 210:.\Generated_Source\PSoC4/I2C_1_I2C_MASTER.c ****         I2C_1_mstrRdBufIndex = 0u;
 1050              		.loc 1 210 0
 1051 0040 0026     		mov	r6, #0
 1052 0042 1660     		str	r6, [r2]
 211:.\Generated_Source\PSoC4/I2C_1_I2C_MASTER.c ****         I2C_1_mstrRdBufSize  = cnt;
 1053              		.loc 1 211 0
 1054 0044 0199     		ldr	r1, [sp, #4]
 212:.\Generated_Source\PSoC4/I2C_1_I2C_MASTER.c ****         I2C_1_mstrRdBufPtr   = (volatile uint8 *) rdData;
 1055              		.loc 1 212 0
 1056 0046 1D60     		str	r5, [r3]
 211:.\Generated_Source\PSoC4/I2C_1_I2C_MASTER.c ****         I2C_1_mstrRdBufSize  = cnt;
 1057              		.loc 1 211 0
 1058 0048 1E4E     		ldr	r6, .L148+20
 213:.\Generated_Source\PSoC4/I2C_1_I2C_MASTER.c ****         I2C_1_mstrControl    = (uint8) mode;
 1059              		.loc 1 213 0
 1060 004a 6D46     		mov	r5, sp
 1061              	.LVL77:
 1062 004c 2878     		ldrb	r0, [r5]
 1063 004e 1E4C     		ldr	r4, .L148+24
 211:.\Generated_Source\PSoC4/I2C_1_I2C_MASTER.c ****         I2C_1_mstrRdBufSize  = cnt;
 1064              		.loc 1 211 0
 1065 0050 3160     		str	r1, [r6]
 217:.\Generated_Source\PSoC4/I2C_1_I2C_MASTER.c ****         I2C_1_mstrStatus &= (uint16) ~I2C_1_I2C_MSTAT_RD_CMPLT;
 1066              		.loc 1 217 0
 1067 0052 1949     		ldr	r1, .L148+8
 213:.\Generated_Source\PSoC4/I2C_1_I2C_MASTER.c ****         I2C_1_mstrControl    = (uint8) mode;
 1068              		.loc 1 213 0
 1069 0054 2070     		strb	r0, [r4]
 217:.\Generated_Source\PSoC4/I2C_1_I2C_MASTER.c ****         I2C_1_mstrStatus &= (uint16) ~I2C_1_I2C_MSTAT_RD_CMPLT;
 1070              		.loc 1 217 0
 1071 0056 0D88     		ldrh	r5, [r1]
 1072              	.LVL78:
 215:.\Generated_Source\PSoC4/I2C_1_I2C_MASTER.c ****         slaveAddress = (I2C_1_GET_I2C_8BIT_ADDRESS(slaveAddress) | I2C_1_I2C_READ_FLAG);
 1073              		.loc 1 215 0
 1074 0058 FF22     		mov	r2, #255
 1075 005a 7F00     		lsl	r7, r7, #1
 1076              	.LVL79:
 1077 005c 1740     		and	r7, r2
 1078 005e 0123     		mov	r3, #1
 219:.\Generated_Source\PSoC4/I2C_1_I2C_MASTER.c ****         I2C_1_ClearMasterInterruptSource(I2C_1_INTR_MASTER_ALL);
 1079              		.loc 1 219 0
 1080 0060 1A4C     		ldr	r4, .L148+28
 1081 0062 1B48     		ldr	r0, .L148+32
 224:.\Generated_Source\PSoC4/I2C_1_I2C_MASTER.c ****         if(I2C_1_CHECK_I2C_MODE_RESTART(mode))
 1082              		.loc 1 224 0
 1083 0064 009A     		ldr	r2, [sp]
 217:.\Generated_Source\PSoC4/I2C_1_I2C_MASTER.c ****         I2C_1_mstrStatus &= (uint16) ~I2C_1_I2C_MSTAT_RD_CMPLT;
 1084              		.loc 1 217 0
 1085 0066 9D43     		bic	r5, r3
 1086 0068 0D80     		strh	r5, [r1]
 215:.\Generated_Source\PSoC4/I2C_1_I2C_MASTER.c ****         slaveAddress = (I2C_1_GET_I2C_8BIT_ADDRESS(slaveAddress) | I2C_1_I2C_READ_FLAG);
 1087              		.loc 1 215 0
 1088 006a 1F43     		orr	r7, r3
ARM GAS  C:\Users\Milo\AppData\Local\Temp\ccfBxLki.s 			page 39


 1089              	.LVL80:
 219:.\Generated_Source\PSoC4/I2C_1_I2C_MASTER.c ****         I2C_1_ClearMasterInterruptSource(I2C_1_INTR_MASTER_ALL);
 1090              		.loc 1 219 0
 1091 006c 2060     		str	r0, [r4]
 1092 006e 194C     		ldr	r4, .L148+36
 224:.\Generated_Source\PSoC4/I2C_1_I2C_MASTER.c ****         if(I2C_1_CHECK_I2C_MODE_RESTART(mode))
 1093              		.loc 1 224 0
 1094 0070 1A42     		tst	r2, r3
 1095 0072 03D0     		beq	.L146
 226:.\Generated_Source\PSoC4/I2C_1_I2C_MASTER.c ****             I2C_1_I2C_MASTER_GENERATE_RESTART;
 1096              		.loc 1 226 0
 1097 0074 FFF7FEFF 		bl	I2C_1_I2CReStartGeneration
 1098              	.LVL81:
 227:.\Generated_Source\PSoC4/I2C_1_I2C_MASTER.c ****             I2C_1_TX_FIFO_WR_REG = (slaveAddress);
 1099              		.loc 1 227 0
 1100 0078 2760     		str	r7, [r4]
 1101 007a 03E0     		b	.L137
 1102              	.LVL82:
 1103              	.L146:
 232:.\Generated_Source\PSoC4/I2C_1_I2C_MASTER.c ****             I2C_1_I2C_MASTER_GENERATE_START;
 1104              		.loc 1 232 0
 1105 007c 164B     		ldr	r3, .L148+40
 231:.\Generated_Source\PSoC4/I2C_1_I2C_MASTER.c ****             I2C_1_TX_FIFO_WR_REG = (slaveAddress);
 1106              		.loc 1 231 0
 1107 007e 2760     		str	r7, [r4]
 232:.\Generated_Source\PSoC4/I2C_1_I2C_MASTER.c ****             I2C_1_I2C_MASTER_GENERATE_START;
 1108              		.loc 1 232 0
 1109 0080 0227     		mov	r7, #2
 1110              	.LVL83:
 1111 0082 1F60     		str	r7, [r3]
 1112              	.LVL84:
 1113              	.L137:
 236:.\Generated_Source\PSoC4/I2C_1_I2C_MASTER.c ****         if(I2C_1_mstrRdBufSize < I2C_1_I2C_FIFO_SIZE) /* Reading byte-by-byte */
 1114              		.loc 1 236 0
 1115 0084 3168     		ldr	r1, [r6]
 1116 0086 154D     		ldr	r5, .L148+44
 1117 0088 0729     		cmp	r1, #7
 1118 008a 01D8     		bhi	.L138
 238:.\Generated_Source\PSoC4/I2C_1_I2C_MASTER.c ****             I2C_1_SetRxInterruptMode(I2C_1_INTR_RX_NOT_EMPTY);
 1119              		.loc 1 238 0
 1120 008c 0427     		mov	r7, #4
 1121 008e 06E0     		b	.L147
 1122              	.L138:
 242:.\Generated_Source\PSoC4/I2C_1_I2C_MASTER.c ****             I2C_1_ENABLE_MASTER_AUTO_DATA_ACK;
 1123              		.loc 1 242 0
 1124 0090 134C     		ldr	r4, .L148+48
 1125 0092 8026     		mov	r6, #128
 1126 0094 2068     		ldr	r0, [r4]
 1127 0096 7200     		lsl	r2, r6, #1
 1128 0098 0243     		orr	r2, r0
 1129 009a 2260     		str	r2, [r4]
 243:.\Generated_Source\PSoC4/I2C_1_I2C_MASTER.c ****             I2C_1_SetRxInterruptMode(I2C_1_INTR_RX_FULL);
 1130              		.loc 1 243 0
 1131 009c 0827     		mov	r7, #8
 1132              	.L147:
 1133 009e 2F60     		str	r7, [r5]
 1134 00a0 0024     		mov	r4, #0
ARM GAS  C:\Users\Milo\AppData\Local\Temp\ccfBxLki.s 			page 40


 1135 00a2 00E0     		b	.L139
 1136              	.LVL85:
 1137              	.L142:
 181:.\Generated_Source\PSoC4/I2C_1_I2C_MASTER.c ****     errStatus = I2C_1_I2C_MSTR_NOT_READY;
 1138              		.loc 1 181 0
 1139 00a4 0424     		mov	r4, #4
 1140              	.LVL86:
 1141              	.L139:
 247:.\Generated_Source\PSoC4/I2C_1_I2C_MASTER.c ****     I2C_1_EnableInt();
 1142              		.loc 1 247 0
 1143 00a6 0B20     		mov	r0, #11
 1144 00a8 FFF7FEFF 		bl	CyIntEnable
 1145              	.LVL87:
 250:.\Generated_Source\PSoC4/I2C_1_I2C_MASTER.c **** }
 1146              		.loc 1 250 0
 1147              		@ sp needed for prologue
 1148 00ac 201C     		mov	r0, r4
 1149 00ae FEBD     		pop	{r1, r2, r3, r4, r5, r6, r7, pc}
 1150              	.L149:
 1151              		.align	2
 1152              	.L148:
 1153 00b0 00000000 		.word	I2C_1_state
 1154 00b4 64000740 		.word	1074200676
 1155 00b8 00000000 		.word	I2C_1_mstrStatus
 1156 00bc 00000000 		.word	I2C_1_mstrRdBufIndex
 1157 00c0 00000000 		.word	I2C_1_mstrRdBufPtr
 1158 00c4 00000000 		.word	I2C_1_mstrRdBufSize
 1159 00c8 00000000 		.word	I2C_1_mstrControl
 1160 00cc 000F0740 		.word	1074204416
 1161 00d0 17030000 		.word	791
 1162 00d4 40020740 		.word	1074201152
 1163 00d8 68000740 		.word	1074200680
 1164 00dc C80F0740 		.word	1074204616
 1165 00e0 60000740 		.word	1074200672
 1166              		.cfi_endproc
 1167              	.LFE1:
 1168              		.size	I2C_1_I2CMasterReadBuf, .-I2C_1_I2CMasterReadBuf
 1169              		.section	.text.I2C_1_I2CMasterWriteBuf,"ax",%progbits
 1170              		.align	1
 1171              		.global	I2C_1_I2CMasterWriteBuf
 1172              		.code	16
 1173              		.thumb_func
 1174              		.type	I2C_1_I2CMasterWriteBuf, %function
 1175              	I2C_1_I2CMasterWriteBuf:
 1176              	.LFB0:
  76:.\Generated_Source\PSoC4/I2C_1_I2C_MASTER.c **** {
 1177              		.loc 1 76 0
 1178              		.cfi_startproc
 1179              	.LVL88:
 1180 0000 F7B5     		push	{r0, r1, r2, r4, r5, r6, r7, lr}
 1181              	.LCFI8:
 1182              		.cfi_def_cfa_offset 32
 1183              		.cfi_offset 0, -32
 1184              		.cfi_offset 1, -28
 1185              		.cfi_offset 2, -24
 1186              		.cfi_offset 4, -20
 1187              		.cfi_offset 5, -16
ARM GAS  C:\Users\Milo\AppData\Local\Temp\ccfBxLki.s 			page 41


 1188              		.cfi_offset 6, -12
 1189              		.cfi_offset 7, -8
 1190              		.cfi_offset 14, -4
  76:.\Generated_Source\PSoC4/I2C_1_I2C_MASTER.c **** {
 1191              		.loc 1 76 0
 1192 0002 071C     		mov	r7, r0
 1193 0004 0D1C     		mov	r5, r1
 1194 0006 0192     		str	r2, [sp, #4]
 1195 0008 0093     		str	r3, [sp]
  81:.\Generated_Source\PSoC4/I2C_1_I2C_MASTER.c ****     if(NULL != wrData)  /* Check buffer pointer */
 1196              		.loc 1 81 0
 1197 000a 16D0     		beq	.L158
  84:.\Generated_Source\PSoC4/I2C_1_I2C_MASTER.c ****         if(I2C_1_CHECK_I2C_FSM_IDLE)
 1198              		.loc 1 84 0
 1199 000c 254E     		ldr	r6, .L163
 1200 000e 3378     		ldrb	r3, [r6]
 1201              	.LVL89:
 1202 0010 102B     		cmp	r3, #16
 1203 0012 08D1     		bne	.L152
  86:.\Generated_Source\PSoC4/I2C_1_I2C_MASTER.c ****             I2C_1_DisableInt();
 1204              		.loc 1 86 0
 1205 0014 0B20     		mov	r0, #11
 1206              	.LVL90:
 1207 0016 FFF7FEFF 		bl	CyIntDisable
 1208              	.LVL91:
  89:.\Generated_Source\PSoC4/I2C_1_I2C_MASTER.c ****             errStatus = I2C_1_CHECK_I2C_STATUS(I2C_1_I2C_STATUS_BUS_BUSY) ?
 1209              		.loc 1 89 0
 1210 001a 234B     		ldr	r3, .L163+4
 1211 001c 0824     		mov	r4, #8
 1212 001e 1868     		ldr	r0, [r3]
 1213 0020 C207     		lsl	r2, r0, #31
 1214 0022 39D4     		bmi	.L155
 1215 0024 0BE0     		b	.L153
 1216              	.LVL92:
 1217              	.L152:
  92:.\Generated_Source\PSoC4/I2C_1_I2C_MASTER.c ****         else if(I2C_1_CHECK_I2C_FSM_HALT)
 1218              		.loc 1 92 0
 1219 0026 3078     		ldrb	r0, [r6]
 1220              	.LVL93:
  79:.\Generated_Source\PSoC4/I2C_1_I2C_MASTER.c ****     errStatus = I2C_1_I2C_MSTR_NOT_READY;
 1221              		.loc 1 79 0
 1222 0028 0424     		mov	r4, #4
  92:.\Generated_Source\PSoC4/I2C_1_I2C_MASTER.c ****         else if(I2C_1_CHECK_I2C_FSM_HALT)
 1223              		.loc 1 92 0
 1224 002a 6028     		cmp	r0, #96
 1225 002c 34D1     		bne	.L155
  94:.\Generated_Source\PSoC4/I2C_1_I2C_MASTER.c ****             I2C_1_mstrStatus &= (uint16) ~I2C_1_I2C_MSTAT_XFER_HALT;
 1226              		.loc 1 94 0
 1227 002e 1F4C     		ldr	r4, .L163+8
 1228 0030 0821     		mov	r1, #8
 1229              	.LVL94:
 1230 0032 2288     		ldrh	r2, [r4]
 1231              	.LVL95:
 1232 0034 8A43     		bic	r2, r1
 1233 0036 2280     		strh	r2, [r4]
 1234              	.LVL96:
 1235 0038 01E0     		b	.L153
ARM GAS  C:\Users\Milo\AppData\Local\Temp\ccfBxLki.s 			page 42


 1236              	.LVL97:
 1237              	.L158:
  79:.\Generated_Source\PSoC4/I2C_1_I2C_MASTER.c ****     errStatus = I2C_1_I2C_MSTR_NOT_READY;
 1238              		.loc 1 79 0
 1239 003a 0424     		mov	r4, #4
 1240 003c 2CE0     		b	.L155
 1241              	.LVL98:
 1242              	.L153:
 108:.\Generated_Source\PSoC4/I2C_1_I2C_MASTER.c ****         I2C_1_state = I2C_1_I2C_FSM_MSTR_WR_ADDR;
 1243              		.loc 1 108 0
 1244 003e 2824     		mov	r4, #40
 1245 0040 3470     		strb	r4, [r6]
 112:.\Generated_Source\PSoC4/I2C_1_I2C_MASTER.c ****         I2C_1_mstrWrBufPtr      = (volatile uint8 *) wrData;
 1246              		.loc 1 112 0
 1247 0042 1B4C     		ldr	r4, .L163+12
 109:.\Generated_Source\PSoC4/I2C_1_I2C_MASTER.c ****         I2C_1_mstrWrBufIndexTmp = 0u;
 1248              		.loc 1 109 0
 1249 0044 1B4A     		ldr	r2, .L163+16
 110:.\Generated_Source\PSoC4/I2C_1_I2C_MASTER.c ****         I2C_1_mstrWrBufIndex    = 0u;
 1250              		.loc 1 110 0
 1251 0046 1C49     		ldr	r1, .L163+20
 111:.\Generated_Source\PSoC4/I2C_1_I2C_MASTER.c ****         I2C_1_mstrWrBufSize     = cnt;
 1252              		.loc 1 111 0
 1253 0048 0198     		ldr	r0, [sp, #4]
 112:.\Generated_Source\PSoC4/I2C_1_I2C_MASTER.c ****         I2C_1_mstrWrBufPtr      = (volatile uint8 *) wrData;
 1254              		.loc 1 112 0
 1255 004a 2560     		str	r5, [r4]
 109:.\Generated_Source\PSoC4/I2C_1_I2C_MASTER.c ****         I2C_1_mstrWrBufIndexTmp = 0u;
 1256              		.loc 1 109 0
 1257 004c 0026     		mov	r6, #0
 111:.\Generated_Source\PSoC4/I2C_1_I2C_MASTER.c ****         I2C_1_mstrWrBufSize     = cnt;
 1258              		.loc 1 111 0
 1259 004e 1B4B     		ldr	r3, .L163+24
 113:.\Generated_Source\PSoC4/I2C_1_I2C_MASTER.c ****         I2C_1_mstrControl       = (uint8) mode;
 1260              		.loc 1 113 0
 1261 0050 6D46     		mov	r5, sp
 1262              	.LVL99:
 109:.\Generated_Source\PSoC4/I2C_1_I2C_MASTER.c ****         I2C_1_mstrWrBufIndexTmp = 0u;
 1263              		.loc 1 109 0
 1264 0052 1660     		str	r6, [r2]
 110:.\Generated_Source\PSoC4/I2C_1_I2C_MASTER.c ****         I2C_1_mstrWrBufIndex    = 0u;
 1265              		.loc 1 110 0
 1266 0054 0E60     		str	r6, [r1]
 113:.\Generated_Source\PSoC4/I2C_1_I2C_MASTER.c ****         I2C_1_mstrControl       = (uint8) mode;
 1267              		.loc 1 113 0
 1268 0056 1A4A     		ldr	r2, .L163+28
 1269 0058 2E78     		ldrb	r6, [r5]
 111:.\Generated_Source\PSoC4/I2C_1_I2C_MASTER.c ****         I2C_1_mstrWrBufSize     = cnt;
 1270              		.loc 1 111 0
 1271 005a 1860     		str	r0, [r3]
 117:.\Generated_Source\PSoC4/I2C_1_I2C_MASTER.c ****         I2C_1_mstrStatus &= (uint16) ~I2C_1_I2C_MSTAT_WR_CMPLT;
 1272              		.loc 1 117 0
 1273 005c 134B     		ldr	r3, .L163+8
 113:.\Generated_Source\PSoC4/I2C_1_I2C_MASTER.c ****         I2C_1_mstrControl       = (uint8) mode;
 1274              		.loc 1 113 0
 1275 005e 1670     		strb	r6, [r2]
 117:.\Generated_Source\PSoC4/I2C_1_I2C_MASTER.c ****         I2C_1_mstrStatus &= (uint16) ~I2C_1_I2C_MSTAT_WR_CMPLT;
ARM GAS  C:\Users\Milo\AppData\Local\Temp\ccfBxLki.s 			page 43


 1276              		.loc 1 117 0
 1277 0060 1888     		ldrh	r0, [r3]
 1278 0062 0225     		mov	r5, #2
 1279              	.LVL100:
 115:.\Generated_Source\PSoC4/I2C_1_I2C_MASTER.c ****         slaveAddress = I2C_1_GET_I2C_8BIT_ADDRESS(slaveAddress);
 1280              		.loc 1 115 0
 1281 0064 FF21     		mov	r1, #255
 1282 0066 7F00     		lsl	r7, r7, #1
 1283              	.LVL101:
 117:.\Generated_Source\PSoC4/I2C_1_I2C_MASTER.c ****         I2C_1_mstrStatus &= (uint16) ~I2C_1_I2C_MSTAT_WR_CMPLT;
 1284              		.loc 1 117 0
 1285 0068 A843     		bic	r0, r5
 1286 006a 1880     		strh	r0, [r3]
 119:.\Generated_Source\PSoC4/I2C_1_I2C_MASTER.c ****         I2C_1_ClearMasterInterruptSource(I2C_1_INTR_MASTER_ALL);
 1287              		.loc 1 119 0
 1288 006c 154C     		ldr	r4, .L163+32
 115:.\Generated_Source\PSoC4/I2C_1_I2C_MASTER.c ****         slaveAddress = I2C_1_GET_I2C_8BIT_ADDRESS(slaveAddress);
 1289              		.loc 1 115 0
 1290 006e 0F40     		and	r7, r1
 1291              	.LVL102:
 119:.\Generated_Source\PSoC4/I2C_1_I2C_MASTER.c ****         I2C_1_ClearMasterInterruptSource(I2C_1_INTR_MASTER_ALL);
 1292              		.loc 1 119 0
 1293 0070 154E     		ldr	r6, .L163+36
 120:.\Generated_Source\PSoC4/I2C_1_I2C_MASTER.c ****         I2C_1_ClearTxInterruptSource(I2C_1_INTR_TX_UNDERFLOW);
 1294              		.loc 1 120 0
 1295 0072 1649     		ldr	r1, .L163+40
 124:.\Generated_Source\PSoC4/I2C_1_I2C_MASTER.c ****         if(I2C_1_CHECK_I2C_MODE_RESTART(mode))
 1296              		.loc 1 124 0
 1297 0074 009B     		ldr	r3, [sp]
 120:.\Generated_Source\PSoC4/I2C_1_I2C_MASTER.c ****         I2C_1_ClearTxInterruptSource(I2C_1_INTR_TX_UNDERFLOW);
 1298              		.loc 1 120 0
 1299 0076 4022     		mov	r2, #64
 119:.\Generated_Source\PSoC4/I2C_1_I2C_MASTER.c ****         I2C_1_ClearMasterInterruptSource(I2C_1_INTR_MASTER_ALL);
 1300              		.loc 1 119 0
 1301 0078 3460     		str	r4, [r6]
 120:.\Generated_Source\PSoC4/I2C_1_I2C_MASTER.c ****         I2C_1_ClearTxInterruptSource(I2C_1_INTR_TX_UNDERFLOW);
 1302              		.loc 1 120 0
 1303 007a 0A60     		str	r2, [r1]
 1304 007c 144C     		ldr	r4, .L163+44
 124:.\Generated_Source\PSoC4/I2C_1_I2C_MASTER.c ****         if(I2C_1_CHECK_I2C_MODE_RESTART(mode))
 1305              		.loc 1 124 0
 1306 007e DB07     		lsl	r3, r3, #31
 1307 0080 03D5     		bpl	.L162
 126:.\Generated_Source\PSoC4/I2C_1_I2C_MASTER.c ****             I2C_1_I2C_MASTER_GENERATE_RESTART;
 1308              		.loc 1 126 0
 1309 0082 FFF7FEFF 		bl	I2C_1_I2CReStartGeneration
 1310              	.LVL103:
 127:.\Generated_Source\PSoC4/I2C_1_I2C_MASTER.c ****             I2C_1_TX_FIFO_WR_REG = slaveAddress;
 1311              		.loc 1 127 0
 1312 0086 2760     		str	r7, [r4]
 1313 0088 02E0     		b	.L154
 1314              	.LVL104:
 1315              	.L162:
 131:.\Generated_Source\PSoC4/I2C_1_I2C_MASTER.c ****             I2C_1_TX_FIFO_WR_REG = slaveAddress;
 1316              		.loc 1 131 0
 1317 008a 2760     		str	r7, [r4]
 132:.\Generated_Source\PSoC4/I2C_1_I2C_MASTER.c ****             I2C_1_I2C_MASTER_GENERATE_START;
ARM GAS  C:\Users\Milo\AppData\Local\Temp\ccfBxLki.s 			page 44


 1318              		.loc 1 132 0
 1319 008c 114F     		ldr	r7, .L163+48
 1320              	.LVL105:
 1321 008e 3D60     		str	r5, [r7]
 1322              	.LVL106:
 1323              	.L154:
 136:.\Generated_Source\PSoC4/I2C_1_I2C_MASTER.c ****         I2C_1_SetTxInterruptMode(I2C_1_INTR_TX_UNDERFLOW);
 1324              		.loc 1 136 0
 1325 0090 114D     		ldr	r5, .L163+52
 1326 0092 4020     		mov	r0, #64
 1327 0094 2860     		str	r0, [r5]
 1328 0096 0024     		mov	r4, #0
 1329              	.LVL107:
 1330              	.L155:
 139:.\Generated_Source\PSoC4/I2C_1_I2C_MASTER.c ****     I2C_1_EnableInt();
 1331              		.loc 1 139 0
 1332 0098 0B20     		mov	r0, #11
 1333 009a FFF7FEFF 		bl	CyIntEnable
 1334              	.LVL108:
 142:.\Generated_Source\PSoC4/I2C_1_I2C_MASTER.c **** }
 1335              		.loc 1 142 0
 1336              		@ sp needed for prologue
 1337 009e 201C     		mov	r0, r4
 1338 00a0 FEBD     		pop	{r1, r2, r3, r4, r5, r6, r7, pc}
 1339              	.L164:
 1340 00a2 C046     		.align	2
 1341              	.L163:
 1342 00a4 00000000 		.word	I2C_1_state
 1343 00a8 64000740 		.word	1074200676
 1344 00ac 00000000 		.word	I2C_1_mstrStatus
 1345 00b0 00000000 		.word	I2C_1_mstrWrBufPtr
 1346 00b4 00000000 		.word	I2C_1_mstrWrBufIndexTmp
 1347 00b8 00000000 		.word	I2C_1_mstrWrBufIndex
 1348 00bc 00000000 		.word	I2C_1_mstrWrBufSize
 1349 00c0 00000000 		.word	I2C_1_mstrControl
 1350 00c4 17030000 		.word	791
 1351 00c8 000F0740 		.word	1074204416
 1352 00cc 800F0740 		.word	1074204544
 1353 00d0 40020740 		.word	1074201152
 1354 00d4 68000740 		.word	1074200680
 1355 00d8 880F0740 		.word	1074204552
 1356              		.cfi_endproc
 1357              	.LFE0:
 1358              		.size	I2C_1_I2CMasterWriteBuf, .-I2C_1_I2CMasterWriteBuf
 1359              		.comm	I2C_1_mstrWrBufIndexTmp,4,4
 1360              		.comm	I2C_1_mstrWrBufIndex,4,4
 1361              		.comm	I2C_1_mstrWrBufSize,4,4
 1362              		.comm	I2C_1_mstrWrBufPtr,4,4
 1363              		.comm	I2C_1_mstrRdBufIndex,4,4
 1364              		.comm	I2C_1_mstrRdBufSize,4,4
 1365              		.comm	I2C_1_mstrRdBufPtr,4,4
 1366              		.comm	I2C_1_mstrControl,1,1
 1367              		.comm	I2C_1_mstrStatus,2,2
 1368              		.text
 1369              	.Letext0:
 1370              		.file 2 "./Generated_Source/PSoC4/cytypes.h"
 1371              		.file 3 ".\\Generated_Source\\PSoC4\\I2C_1_I2C_PVT.h"
ARM GAS  C:\Users\Milo\AppData\Local\Temp\ccfBxLki.s 			page 45


 1372              		.file 4 "./Generated_Source/PSoC4/CyLib.h"
 1373              		.file 5 ".\\Generated_Source\\PSoC4\\I2C_1_scl.h"
 1374              		.file 6 ".\\Generated_Source\\PSoC4\\I2C_1_sda.h"
 1375              		.section	.debug_info,"",%progbits
 1376              	.Ldebug_info0:
 1377 0000 4D060000 		.4byte	0x64d
 1378 0004 0200     		.2byte	0x2
 1379 0006 00000000 		.4byte	.Ldebug_abbrev0
 1380 000a 04       		.byte	0x4
 1381 000b 01       		.uleb128 0x1
 1382 000c 7D030000 		.4byte	.LASF55
 1383 0010 01       		.byte	0x1
 1384 0011 47010000 		.4byte	.LASF56
 1385 0015 00000000 		.4byte	.LASF57
 1386 0019 00000000 		.4byte	.Ldebug_ranges0+0
 1387 001d 00000000 		.4byte	0
 1388 0021 00000000 		.4byte	0
 1389 0025 00000000 		.4byte	.Ldebug_line0
 1390 0029 02       		.uleb128 0x2
 1391 002a 01       		.byte	0x1
 1392 002b 06       		.byte	0x6
 1393 002c FA030000 		.4byte	.LASF0
 1394 0030 02       		.uleb128 0x2
 1395 0031 01       		.byte	0x1
 1396 0032 08       		.byte	0x8
 1397 0033 39010000 		.4byte	.LASF1
 1398 0037 02       		.uleb128 0x2
 1399 0038 02       		.byte	0x2
 1400 0039 05       		.byte	0x5
 1401 003a 6B030000 		.4byte	.LASF2
 1402 003e 02       		.uleb128 0x2
 1403 003f 02       		.byte	0x2
 1404 0040 07       		.byte	0x7
 1405 0041 C3000000 		.4byte	.LASF3
 1406 0045 02       		.uleb128 0x2
 1407 0046 04       		.byte	0x4
 1408 0047 05       		.byte	0x5
 1409 0048 DB030000 		.4byte	.LASF4
 1410 004c 02       		.uleb128 0x2
 1411 004d 04       		.byte	0x4
 1412 004e 07       		.byte	0x7
 1413 004f 8C010000 		.4byte	.LASF5
 1414 0053 02       		.uleb128 0x2
 1415 0054 08       		.byte	0x8
 1416 0055 05       		.byte	0x5
 1417 0056 FD020000 		.4byte	.LASF6
 1418 005a 02       		.uleb128 0x2
 1419 005b 08       		.byte	0x8
 1420 005c 07       		.byte	0x7
 1421 005d 86020000 		.4byte	.LASF7
 1422 0061 03       		.uleb128 0x3
 1423 0062 04       		.byte	0x4
 1424 0063 05       		.byte	0x5
 1425 0064 696E7400 		.ascii	"int\000"
 1426 0068 02       		.uleb128 0x2
 1427 0069 04       		.byte	0x4
 1428 006a 07       		.byte	0x7
ARM GAS  C:\Users\Milo\AppData\Local\Temp\ccfBxLki.s 			page 46


 1429 006b 72020000 		.4byte	.LASF8
 1430 006f 04       		.uleb128 0x4
 1431 0070 B9010000 		.4byte	.LASF9
 1432 0074 02       		.byte	0x2
 1433 0075 5B       		.byte	0x5b
 1434 0076 30000000 		.4byte	0x30
 1435 007a 04       		.uleb128 0x4
 1436 007b 3B020000 		.4byte	.LASF10
 1437 007f 02       		.byte	0x2
 1438 0080 5C       		.byte	0x5c
 1439 0081 3E000000 		.4byte	0x3e
 1440 0085 04       		.uleb128 0x4
 1441 0086 5F020000 		.4byte	.LASF11
 1442 008a 02       		.byte	0x2
 1443 008b 5D       		.byte	0x5d
 1444 008c 4C000000 		.4byte	0x4c
 1445 0090 02       		.uleb128 0x2
 1446 0091 04       		.byte	0x4
 1447 0092 04       		.byte	0x4
 1448 0093 33010000 		.4byte	.LASF12
 1449 0097 02       		.uleb128 0x2
 1450 0098 08       		.byte	0x8
 1451 0099 04       		.byte	0x4
 1452 009a D1010000 		.4byte	.LASF13
 1453 009e 02       		.uleb128 0x2
 1454 009f 01       		.byte	0x1
 1455 00a0 08       		.byte	0x8
 1456 00a1 D6000000 		.4byte	.LASF14
 1457 00a5 05       		.uleb128 0x5
 1458 00a6 6F000000 		.4byte	0x6f
 1459 00aa 05       		.uleb128 0x5
 1460 00ab 7A000000 		.4byte	0x7a
 1461 00af 04       		.uleb128 0x4
 1462 00b0 E4030000 		.4byte	.LASF15
 1463 00b4 02       		.byte	0x2
 1464 00b5 F2       		.byte	0xf2
 1465 00b6 BA000000 		.4byte	0xba
 1466 00ba 05       		.uleb128 0x5
 1467 00bb 85000000 		.4byte	0x85
 1468 00bf 02       		.uleb128 0x2
 1469 00c0 04       		.byte	0x4
 1470 00c1 07       		.byte	0x7
 1471 00c2 F4020000 		.4byte	.LASF16
 1472 00c6 06       		.uleb128 0x6
 1473 00c7 01       		.byte	0x1
 1474 00c8 9D020000 		.4byte	.LASF21
 1475 00cc 01       		.byte	0x1
 1476 00cd 1301     		.2byte	0x113
 1477 00cf 01       		.byte	0x1
 1478 00d0 85000000 		.4byte	0x85
 1479 00d4 00000000 		.4byte	.LFB2
 1480 00d8 B8000000 		.4byte	.LFE2
 1481 00dc 00000000 		.4byte	.LLST0
 1482 00e0 01       		.byte	0x1
 1483 00e1 35010000 		.4byte	0x135
 1484 00e5 07       		.uleb128 0x7
 1485 00e6 BB020000 		.4byte	.LASF17
ARM GAS  C:\Users\Milo\AppData\Local\Temp\ccfBxLki.s 			page 47


 1486 00ea 01       		.byte	0x1
 1487 00eb 1301     		.2byte	0x113
 1488 00ed 85000000 		.4byte	0x85
 1489 00f1 20000000 		.4byte	.LLST1
 1490 00f5 07       		.uleb128 0x7
 1491 00f6 F5010000 		.4byte	.LASF18
 1492 00fa 01       		.byte	0x1
 1493 00fb 1301     		.2byte	0x113
 1494 00fd 85000000 		.4byte	0x85
 1495 0101 72000000 		.4byte	.LLST2
 1496 0105 08       		.uleb128 0x8
 1497 0106 00010000 		.4byte	.LASF19
 1498 010a 01       		.byte	0x1
 1499 010b 1501     		.2byte	0x115
 1500 010d 85000000 		.4byte	0x85
 1501 0111 9E000000 		.4byte	.LLST3
 1502 0115 08       		.uleb128 0x8
 1503 0116 C7010000 		.4byte	.LASF20
 1504 011a 01       		.byte	0x1
 1505 011b 1601     		.2byte	0x116
 1506 011d 85000000 		.4byte	0x85
 1507 0121 D5000000 		.4byte	.LLST4
 1508 0125 09       		.uleb128 0x9
 1509 0126 22000000 		.4byte	.LVL3
 1510 012a E8050000 		.4byte	0x5e8
 1511 012e 0A       		.uleb128 0xa
 1512 012f 01       		.byte	0x1
 1513 0130 50       		.byte	0x50
 1514 0131 01       		.byte	0x1
 1515 0132 3B       		.byte	0x3b
 1516 0133 00       		.byte	0
 1517 0134 00       		.byte	0
 1518 0135 06       		.uleb128 0x6
 1519 0136 01       		.byte	0x1
 1520 0137 15030000 		.4byte	.LASF22
 1521 013b 01       		.byte	0x1
 1522 013c F701     		.2byte	0x1f7
 1523 013e 01       		.byte	0x1
 1524 013f 85000000 		.4byte	0x85
 1525 0143 00000000 		.4byte	.LFB4
 1526 0147 80000000 		.4byte	.LFE4
 1527 014b 1A010000 		.4byte	.LLST5
 1528 014f 01       		.byte	0x1
 1529 0150 75010000 		.4byte	0x175
 1530 0154 08       		.uleb128 0x8
 1531 0155 00010000 		.4byte	.LASF19
 1532 0159 01       		.byte	0x1
 1533 015a F901     		.2byte	0x1f9
 1534 015c 85000000 		.4byte	0x85
 1535 0160 3A010000 		.4byte	.LLST6
 1536 0164 08       		.uleb128 0x8
 1537 0165 C7010000 		.4byte	.LASF20
 1538 0169 01       		.byte	0x1
 1539 016a FA01     		.2byte	0x1fa
 1540 016c 85000000 		.4byte	0x85
 1541 0170 59010000 		.4byte	.LLST7
 1542 0174 00       		.byte	0
ARM GAS  C:\Users\Milo\AppData\Local\Temp\ccfBxLki.s 			page 48


 1543 0175 06       		.uleb128 0x6
 1544 0176 01       		.byte	0x1
 1545 0177 73010000 		.4byte	.LASF23
 1546 017b 01       		.byte	0x1
 1547 017c 4802     		.2byte	0x248
 1548 017e 01       		.byte	0x1
 1549 017f 85000000 		.4byte	0x85
 1550 0183 00000000 		.4byte	.LFB5
 1551 0187 80000000 		.4byte	.LFE5
 1552 018b 78010000 		.4byte	.LLST8
 1553 018f 01       		.byte	0x1
 1554 0190 C5010000 		.4byte	0x1c5
 1555 0194 07       		.uleb128 0x7
 1556 0195 75030000 		.4byte	.LASF24
 1557 0199 01       		.byte	0x1
 1558 019a 4802     		.2byte	0x248
 1559 019c 85000000 		.4byte	0x85
 1560 01a0 98010000 		.4byte	.LLST9
 1561 01a4 08       		.uleb128 0x8
 1562 01a5 00010000 		.4byte	.LASF19
 1563 01a9 01       		.byte	0x1
 1564 01aa 4A02     		.2byte	0x24a
 1565 01ac 85000000 		.4byte	0x85
 1566 01b0 DF010000 		.4byte	.LLST10
 1567 01b4 08       		.uleb128 0x8
 1568 01b5 C7010000 		.4byte	.LASF20
 1569 01b9 01       		.byte	0x1
 1570 01ba 4B02     		.2byte	0x24b
 1571 01bc 85000000 		.4byte	0x85
 1572 01c0 0A020000 		.4byte	.LLST11
 1573 01c4 00       		.byte	0
 1574 01c5 06       		.uleb128 0x6
 1575 01c6 01       		.byte	0x1
 1576 01c7 DC020000 		.4byte	.LASF25
 1577 01cb 01       		.byte	0x1
 1578 01cc A102     		.2byte	0x2a1
 1579 01ce 01       		.byte	0x1
 1580 01cf 85000000 		.4byte	0x85
 1581 01d3 00000000 		.4byte	.LFB6
 1582 01d7 80000000 		.4byte	.LFE6
 1583 01db 67020000 		.4byte	.LLST12
 1584 01df 01       		.byte	0x1
 1585 01e0 05020000 		.4byte	0x205
 1586 01e4 07       		.uleb128 0x7
 1587 01e5 BF010000 		.4byte	.LASF26
 1588 01e9 01       		.byte	0x1
 1589 01ea A102     		.2byte	0x2a1
 1590 01ec 85000000 		.4byte	0x85
 1591 01f0 87020000 		.4byte	.LLST13
 1592 01f4 08       		.uleb128 0x8
 1593 01f5 75030000 		.4byte	.LASF24
 1594 01f9 01       		.byte	0x1
 1595 01fa A302     		.2byte	0x2a3
 1596 01fc 85000000 		.4byte	0x85
 1597 0200 CC020000 		.4byte	.LLST14
 1598 0204 00       		.byte	0
 1599 0205 0B       		.uleb128 0xb
ARM GAS  C:\Users\Milo\AppData\Local\Temp\ccfBxLki.s 			page 49


 1600 0206 01       		.byte	0x1
 1601 0207 4D030000 		.4byte	.LASF27
 1602 020b 01       		.byte	0x1
 1603 020c E802     		.2byte	0x2e8
 1604 020e 01       		.byte	0x1
 1605 020f 85000000 		.4byte	0x85
 1606 0213 00000000 		.4byte	.LFB7
 1607 0217 0C000000 		.4byte	.LFE7
 1608 021b 02       		.byte	0x2
 1609 021c 7D       		.byte	0x7d
 1610 021d 00       		.sleb128 0
 1611 021e 01       		.byte	0x1
 1612 021f 0B       		.uleb128 0xb
 1613 0220 01       		.byte	0x1
 1614 0221 63000000 		.4byte	.LASF28
 1615 0225 01       		.byte	0x1
 1616 0226 0603     		.2byte	0x306
 1617 0228 01       		.byte	0x1
 1618 0229 85000000 		.4byte	0x85
 1619 022d 00000000 		.4byte	.LFB8
 1620 0231 0C000000 		.4byte	.LFE8
 1621 0235 02       		.byte	0x2
 1622 0236 7D       		.byte	0x7d
 1623 0237 00       		.sleb128 0
 1624 0238 01       		.byte	0x1
 1625 0239 0C       		.uleb128 0xc
 1626 023a 01       		.byte	0x1
 1627 023b 17010000 		.4byte	.LASF29
 1628 023f 01       		.byte	0x1
 1629 0240 1F03     		.2byte	0x31f
 1630 0242 01       		.byte	0x1
 1631 0243 00000000 		.4byte	.LFB9
 1632 0247 1C000000 		.4byte	.LFE9
 1633 024b 02       		.byte	0x2
 1634 024c 7D       		.byte	0x7d
 1635 024d 00       		.sleb128 0
 1636 024e 01       		.byte	0x1
 1637 024f 0C       		.uleb128 0xc
 1638 0250 01       		.byte	0x1
 1639 0251 D8010000 		.4byte	.LASF30
 1640 0255 01       		.byte	0x1
 1641 0256 3903     		.2byte	0x339
 1642 0258 01       		.byte	0x1
 1643 0259 00000000 		.4byte	.LFB10
 1644 025d 1C000000 		.4byte	.LFE10
 1645 0261 02       		.byte	0x2
 1646 0262 7D       		.byte	0x7d
 1647 0263 00       		.sleb128 0
 1648 0264 01       		.byte	0x1
 1649 0265 06       		.uleb128 0x6
 1650 0266 01       		.byte	0x1
 1651 0267 42020000 		.4byte	.LASF31
 1652 026b 01       		.byte	0x1
 1653 026c 5103     		.2byte	0x351
 1654 026e 01       		.byte	0x1
 1655 026f 85000000 		.4byte	0x85
 1656 0273 00000000 		.4byte	.LFB11
ARM GAS  C:\Users\Milo\AppData\Local\Temp\ccfBxLki.s 			page 50


 1657 0277 1C000000 		.4byte	.LFE11
 1658 027b 04030000 		.4byte	.LLST15
 1659 027f 01       		.byte	0x1
 1660 0280 95020000 		.4byte	0x295
 1661 0284 08       		.uleb128 0x8
 1662 0285 82000000 		.4byte	.LASF32
 1663 0289 01       		.byte	0x1
 1664 028a 5303     		.2byte	0x353
 1665 028c 85000000 		.4byte	0x85
 1666 0290 24030000 		.4byte	.LLST16
 1667 0294 00       		.byte	0
 1668 0295 0D       		.uleb128 0xd
 1669 0296 01       		.byte	0x1
 1670 0297 9E010000 		.4byte	.LASF33
 1671 029b 01       		.byte	0x1
 1672 029c 7203     		.2byte	0x372
 1673 029e 01       		.byte	0x1
 1674 029f 85000000 		.4byte	0x85
 1675 02a3 00000000 		.4byte	.LFB12
 1676 02a7 10000000 		.4byte	.LFE12
 1677 02ab 02       		.byte	0x2
 1678 02ac 7D       		.byte	0x7d
 1679 02ad 00       		.sleb128 0
 1680 02ae 01       		.byte	0x1
 1681 02af C8020000 		.4byte	0x2c8
 1682 02b3 0E       		.uleb128 0xe
 1683 02b4 82000000 		.4byte	.LASF32
 1684 02b8 01       		.byte	0x1
 1685 02b9 7403     		.2byte	0x374
 1686 02bb 85000000 		.4byte	0x85
 1687 02bf 07       		.byte	0x7
 1688 02c0 70       		.byte	0x70
 1689 02c1 00       		.sleb128 0
 1690 02c2 0A       		.byte	0xa
 1691 02c3 FFFF     		.2byte	0xffff
 1692 02c5 1A       		.byte	0x1a
 1693 02c6 9F       		.byte	0x9f
 1694 02c7 00       		.byte	0
 1695 02c8 0F       		.uleb128 0xf
 1696 02c9 01       		.byte	0x1
 1697 02ca FC010000 		.4byte	.LASF58
 1698 02ce 01       		.byte	0x1
 1699 02cf A003     		.2byte	0x3a0
 1700 02d1 01       		.byte	0x1
 1701 02d2 00000000 		.4byte	.LFB13
 1702 02d6 90000000 		.4byte	.LFE13
 1703 02da 48030000 		.4byte	.LLST17
 1704 02de 01       		.byte	0x1
 1705 02df 9A030000 		.4byte	0x39a
 1706 02e3 08       		.uleb128 0x8
 1707 02e4 82000000 		.4byte	.LASF32
 1708 02e8 01       		.byte	0x1
 1709 02e9 A503     		.2byte	0x3a5
 1710 02eb 85000000 		.4byte	0x85
 1711 02ef 68030000 		.4byte	.LLST18
 1712 02f3 10       		.uleb128 0x10
 1713 02f4 0A000000 		.4byte	.LVL43
ARM GAS  C:\Users\Milo\AppData\Local\Temp\ccfBxLki.s 			page 51


 1714 02f8 FC050000 		.4byte	0x5fc
 1715 02fc 11       		.uleb128 0x11
 1716 02fd 14000000 		.4byte	.LVL44
 1717 0301 0A060000 		.4byte	0x60a
 1718 0305 0F030000 		.4byte	0x30f
 1719 0309 0A       		.uleb128 0xa
 1720 030a 01       		.byte	0x1
 1721 030b 50       		.byte	0x50
 1722 030c 01       		.byte	0x1
 1723 030d 30       		.byte	0x30
 1724 030e 00       		.byte	0
 1725 030f 11       		.uleb128 0x11
 1726 0310 34000000 		.4byte	.LVL45
 1727 0314 0A060000 		.4byte	0x60a
 1728 0318 22030000 		.4byte	0x322
 1729 031c 0A       		.uleb128 0xa
 1730 031d 01       		.byte	0x1
 1731 031e 50       		.byte	0x50
 1732 031f 01       		.byte	0x1
 1733 0320 30       		.byte	0x30
 1734 0321 00       		.byte	0
 1735 0322 11       		.uleb128 0x11
 1736 0323 3A000000 		.4byte	.LVL46
 1737 0327 1E060000 		.4byte	0x61e
 1738 032b 35030000 		.4byte	0x335
 1739 032f 0A       		.uleb128 0xa
 1740 0330 01       		.byte	0x1
 1741 0331 50       		.byte	0x50
 1742 0332 01       		.byte	0x1
 1743 0333 44       		.byte	0x44
 1744 0334 00       		.byte	0
 1745 0335 11       		.uleb128 0x11
 1746 0336 40000000 		.4byte	.LVL47
 1747 033a 0A060000 		.4byte	0x60a
 1748 033e 48030000 		.4byte	0x348
 1749 0342 0A       		.uleb128 0xa
 1750 0343 01       		.byte	0x1
 1751 0344 50       		.byte	0x50
 1752 0345 01       		.byte	0x1
 1753 0346 31       		.byte	0x31
 1754 0347 00       		.byte	0
 1755 0348 10       		.uleb128 0x10
 1756 0349 44000000 		.4byte	.LVL48
 1757 034d 32060000 		.4byte	0x632
 1758 0351 11       		.uleb128 0x11
 1759 0352 4E000000 		.4byte	.LVL49
 1760 0356 1E060000 		.4byte	0x61e
 1761 035a 64030000 		.4byte	0x364
 1762 035e 0A       		.uleb128 0xa
 1763 035f 01       		.byte	0x1
 1764 0360 50       		.byte	0x50
 1765 0361 01       		.byte	0x1
 1766 0362 44       		.byte	0x44
 1767 0363 00       		.byte	0
 1768 0364 11       		.uleb128 0x11
 1769 0365 54000000 		.4byte	.LVL50
 1770 0369 0A060000 		.4byte	0x60a
ARM GAS  C:\Users\Milo\AppData\Local\Temp\ccfBxLki.s 			page 52


 1771 036d 77030000 		.4byte	0x377
 1772 0371 0A       		.uleb128 0xa
 1773 0372 01       		.byte	0x1
 1774 0373 50       		.byte	0x50
 1775 0374 01       		.byte	0x1
 1776 0375 30       		.byte	0x30
 1777 0376 00       		.byte	0
 1778 0377 11       		.uleb128 0x11
 1779 0378 5C000000 		.4byte	.LVL52
 1780 037c 1E060000 		.4byte	0x61e
 1781 0380 8A030000 		.4byte	0x38a
 1782 0384 0A       		.uleb128 0xa
 1783 0385 01       		.byte	0x1
 1784 0386 50       		.byte	0x50
 1785 0387 01       		.byte	0x1
 1786 0388 44       		.byte	0x44
 1787 0389 00       		.byte	0
 1788 038a 09       		.uleb128 0x9
 1789 038b 7A000000 		.4byte	.LVL53
 1790 038f 0A060000 		.4byte	0x60a
 1791 0393 0A       		.uleb128 0xa
 1792 0394 01       		.byte	0x1
 1793 0395 50       		.byte	0x50
 1794 0396 01       		.byte	0x1
 1795 0397 31       		.byte	0x31
 1796 0398 00       		.byte	0
 1797 0399 00       		.byte	0
 1798 039a 06       		.uleb128 0x6
 1799 039b 01       		.byte	0x1
 1800 039c 06040000 		.4byte	.LASF34
 1801 03a0 01       		.byte	0x1
 1802 03a1 8301     		.2byte	0x183
 1803 03a3 01       		.byte	0x1
 1804 03a4 85000000 		.4byte	0x85
 1805 03a8 00000000 		.4byte	.LFB3
 1806 03ac A8000000 		.4byte	.LFE3
 1807 03b0 7B030000 		.4byte	.LLST19
 1808 03b4 01       		.byte	0x1
 1809 03b5 03040000 		.4byte	0x403
 1810 03b9 07       		.uleb128 0x7
 1811 03ba BB020000 		.4byte	.LASF17
 1812 03be 01       		.byte	0x1
 1813 03bf 8301     		.2byte	0x183
 1814 03c1 85000000 		.4byte	0x85
 1815 03c5 9B030000 		.4byte	.LLST20
 1816 03c9 07       		.uleb128 0x7
 1817 03ca F5010000 		.4byte	.LASF18
 1818 03ce 01       		.byte	0x1
 1819 03cf 8301     		.2byte	0x183
 1820 03d1 85000000 		.4byte	0x85
 1821 03d5 E1030000 		.4byte	.LLST21
 1822 03d9 08       		.uleb128 0x8
 1823 03da 00010000 		.4byte	.LASF19
 1824 03de 01       		.byte	0x1
 1825 03df 8501     		.2byte	0x185
 1826 03e1 85000000 		.4byte	0x85
 1827 03e5 02040000 		.4byte	.LLST22
ARM GAS  C:\Users\Milo\AppData\Local\Temp\ccfBxLki.s 			page 53


 1828 03e9 08       		.uleb128 0x8
 1829 03ea C7010000 		.4byte	.LASF20
 1830 03ee 01       		.byte	0x1
 1831 03ef 8601     		.2byte	0x186
 1832 03f1 85000000 		.4byte	0x85
 1833 03f5 39040000 		.4byte	.LLST23
 1834 03f9 10       		.uleb128 0x10
 1835 03fa 30000000 		.4byte	.LVL60
 1836 03fe C8020000 		.4byte	0x2c8
 1837 0402 00       		.byte	0
 1838 0403 12       		.uleb128 0x12
 1839 0404 01       		.byte	0x1
 1840 0405 21040000 		.4byte	.LASF35
 1841 0409 01       		.byte	0x1
 1842 040a B1       		.byte	0xb1
 1843 040b 01       		.byte	0x1
 1844 040c 85000000 		.4byte	0x85
 1845 0410 00000000 		.4byte	.LFB1
 1846 0414 E4000000 		.4byte	.LFE1
 1847 0418 7E040000 		.4byte	.LLST24
 1848 041c 01       		.byte	0x1
 1849 041d 98040000 		.4byte	0x498
 1850 0421 13       		.uleb128 0x13
 1851 0422 BB020000 		.4byte	.LASF17
 1852 0426 01       		.byte	0x1
 1853 0427 B1       		.byte	0xb1
 1854 0428 85000000 		.4byte	0x85
 1855 042c 9E040000 		.4byte	.LLST25
 1856 0430 13       		.uleb128 0x13
 1857 0431 58020000 		.4byte	.LASF36
 1858 0435 01       		.byte	0x1
 1859 0436 B1       		.byte	0xb1
 1860 0437 98040000 		.4byte	0x498
 1861 043b 17050000 		.4byte	.LLST26
 1862 043f 14       		.uleb128 0x14
 1863 0440 636E7400 		.ascii	"cnt\000"
 1864 0444 01       		.byte	0x1
 1865 0445 B1       		.byte	0xb1
 1866 0446 85000000 		.4byte	0x85
 1867 044a 9E050000 		.4byte	.LLST27
 1868 044e 13       		.uleb128 0x13
 1869 044f B6020000 		.4byte	.LASF37
 1870 0453 01       		.byte	0x1
 1871 0454 B1       		.byte	0xb1
 1872 0455 85000000 		.4byte	0x85
 1873 0459 EB050000 		.4byte	.LLST28
 1874 045d 15       		.uleb128 0x15
 1875 045e C7010000 		.4byte	.LASF20
 1876 0462 01       		.byte	0x1
 1877 0463 B3       		.byte	0xb3
 1878 0464 85000000 		.4byte	0x85
 1879 0468 39060000 		.4byte	.LLST29
 1880 046c 11       		.uleb128 0x11
 1881 046d 1A000000 		.4byte	.LVL71
 1882 0471 E8050000 		.4byte	0x5e8
 1883 0475 7F040000 		.4byte	0x47f
 1884 0479 0A       		.uleb128 0xa
ARM GAS  C:\Users\Milo\AppData\Local\Temp\ccfBxLki.s 			page 54


 1885 047a 01       		.byte	0x1
 1886 047b 50       		.byte	0x50
 1887 047c 01       		.byte	0x1
 1888 047d 3B       		.byte	0x3b
 1889 047e 00       		.byte	0
 1890 047f 10       		.uleb128 0x10
 1891 0480 78000000 		.4byte	.LVL81
 1892 0484 C8020000 		.4byte	0x2c8
 1893 0488 09       		.uleb128 0x9
 1894 0489 AC000000 		.4byte	.LVL87
 1895 048d 40060000 		.4byte	0x640
 1896 0491 0A       		.uleb128 0xa
 1897 0492 01       		.byte	0x1
 1898 0493 50       		.byte	0x50
 1899 0494 01       		.byte	0x1
 1900 0495 3B       		.byte	0x3b
 1901 0496 00       		.byte	0
 1902 0497 00       		.byte	0
 1903 0498 16       		.uleb128 0x16
 1904 0499 04       		.byte	0x4
 1905 049a 6F000000 		.4byte	0x6f
 1906 049e 12       		.uleb128 0x12
 1907 049f 01       		.byte	0x1
 1908 04a0 38040000 		.4byte	.LASF38
 1909 04a4 01       		.byte	0x1
 1910 04a5 4B       		.byte	0x4b
 1911 04a6 01       		.byte	0x1
 1912 04a7 85000000 		.4byte	0x85
 1913 04ab 00000000 		.4byte	.LFB0
 1914 04af DC000000 		.4byte	.LFE0
 1915 04b3 65060000 		.4byte	.LLST30
 1916 04b7 01       		.byte	0x1
 1917 04b8 33050000 		.4byte	0x533
 1918 04bc 13       		.uleb128 0x13
 1919 04bd BB020000 		.4byte	.LASF17
 1920 04c1 01       		.byte	0x1
 1921 04c2 4B       		.byte	0x4b
 1922 04c3 85000000 		.4byte	0x85
 1923 04c7 85060000 		.4byte	.LLST31
 1924 04cb 13       		.uleb128 0x13
 1925 04cc 7F020000 		.4byte	.LASF39
 1926 04d0 01       		.byte	0x1
 1927 04d1 4B       		.byte	0x4b
 1928 04d2 98040000 		.4byte	0x498
 1929 04d6 07070000 		.4byte	.LLST32
 1930 04da 14       		.uleb128 0x14
 1931 04db 636E7400 		.ascii	"cnt\000"
 1932 04df 01       		.byte	0x1
 1933 04e0 4B       		.byte	0x4b
 1934 04e1 85000000 		.4byte	0x85
 1935 04e5 8B070000 		.4byte	.LLST33
 1936 04e9 13       		.uleb128 0x13
 1937 04ea B6020000 		.4byte	.LASF37
 1938 04ee 01       		.byte	0x1
 1939 04ef 4B       		.byte	0x4b
 1940 04f0 85000000 		.4byte	0x85
 1941 04f4 D8070000 		.4byte	.LLST34
ARM GAS  C:\Users\Milo\AppData\Local\Temp\ccfBxLki.s 			page 55


 1942 04f8 15       		.uleb128 0x15
 1943 04f9 C7010000 		.4byte	.LASF20
 1944 04fd 01       		.byte	0x1
 1945 04fe 4D       		.byte	0x4d
 1946 04ff 85000000 		.4byte	0x85
 1947 0503 26080000 		.4byte	.LLST35
 1948 0507 11       		.uleb128 0x11
 1949 0508 1A000000 		.4byte	.LVL91
 1950 050c E8050000 		.4byte	0x5e8
 1951 0510 1A050000 		.4byte	0x51a
 1952 0514 0A       		.uleb128 0xa
 1953 0515 01       		.byte	0x1
 1954 0516 50       		.byte	0x50
 1955 0517 01       		.byte	0x1
 1956 0518 3B       		.byte	0x3b
 1957 0519 00       		.byte	0
 1958 051a 10       		.uleb128 0x10
 1959 051b 86000000 		.4byte	.LVL103
 1960 051f C8020000 		.4byte	0x2c8
 1961 0523 09       		.uleb128 0x9
 1962 0524 9E000000 		.4byte	.LVL108
 1963 0528 40060000 		.4byte	0x640
 1964 052c 0A       		.uleb128 0xa
 1965 052d 01       		.byte	0x1
 1966 052e 50       		.byte	0x50
 1967 052f 01       		.byte	0x1
 1968 0530 3B       		.byte	0x3b
 1969 0531 00       		.byte	0
 1970 0532 00       		.byte	0
 1971 0533 17       		.uleb128 0x17
 1972 0534 66020000 		.4byte	.LASF40
 1973 0538 03       		.byte	0x3
 1974 0539 1D       		.byte	0x1d
 1975 053a A5000000 		.4byte	0xa5
 1976 053e 01       		.byte	0x1
 1977 053f 01       		.byte	0x1
 1978 0540 18       		.uleb128 0x18
 1979 0541 EF000000 		.4byte	.LASF41
 1980 0545 01       		.byte	0x1
 1981 0546 1C       		.byte	0x1c
 1982 0547 AA000000 		.4byte	0xaa
 1983 054b 01       		.byte	0x1
 1984 054c 05       		.byte	0x5
 1985 054d 03       		.byte	0x3
 1986 054e 00000000 		.4byte	I2C_1_mstrStatus
 1987 0552 18       		.uleb128 0x18
 1988 0553 9E000000 		.4byte	.LASF42
 1989 0557 01       		.byte	0x1
 1990 0558 1D       		.byte	0x1d
 1991 0559 A5000000 		.4byte	0xa5
 1992 055d 01       		.byte	0x1
 1993 055e 05       		.byte	0x5
 1994 055f 03       		.byte	0x3
 1995 0560 00000000 		.4byte	I2C_1_mstrControl
 1996 0564 18       		.uleb128 0x18
 1997 0565 2D030000 		.4byte	.LASF43
 1998 0569 01       		.byte	0x1
ARM GAS  C:\Users\Milo\AppData\Local\Temp\ccfBxLki.s 			page 56


 1999 056a 20       		.byte	0x20
 2000 056b 76050000 		.4byte	0x576
 2001 056f 01       		.byte	0x1
 2002 0570 05       		.byte	0x5
 2003 0571 03       		.byte	0x3
 2004 0572 00000000 		.4byte	I2C_1_mstrRdBufPtr
 2005 0576 16       		.uleb128 0x16
 2006 0577 04       		.byte	0x4
 2007 0578 A5000000 		.4byte	0xa5
 2008 057c 18       		.uleb128 0x18
 2009 057d C8020000 		.4byte	.LASF44
 2010 0581 01       		.byte	0x1
 2011 0582 21       		.byte	0x21
 2012 0583 BA000000 		.4byte	0xba
 2013 0587 01       		.byte	0x1
 2014 0588 05       		.byte	0x5
 2015 0589 03       		.byte	0x3
 2016 058a 00000000 		.4byte	I2C_1_mstrRdBufSize
 2017 058e 18       		.uleb128 0x18
 2018 058f 89000000 		.4byte	.LASF45
 2019 0593 01       		.byte	0x1
 2020 0594 22       		.byte	0x22
 2021 0595 BA000000 		.4byte	0xba
 2022 0599 01       		.byte	0x1
 2023 059a 05       		.byte	0x5
 2024 059b 03       		.byte	0x3
 2025 059c 00000000 		.4byte	I2C_1_mstrRdBufIndex
 2026 05a0 18       		.uleb128 0x18
 2027 05a1 B0000000 		.4byte	.LASF46
 2028 05a5 01       		.byte	0x1
 2029 05a6 25       		.byte	0x25
 2030 05a7 76050000 		.4byte	0x576
 2031 05ab 01       		.byte	0x1
 2032 05ac 05       		.byte	0x5
 2033 05ad 03       		.byte	0x3
 2034 05ae 00000000 		.4byte	I2C_1_mstrWrBufPtr
 2035 05b2 18       		.uleb128 0x18
 2036 05b3 DB000000 		.4byte	.LASF47
 2037 05b7 01       		.byte	0x1
 2038 05b8 26       		.byte	0x26
 2039 05b9 BA000000 		.4byte	0xba
 2040 05bd 01       		.byte	0x1
 2041 05be 05       		.byte	0x5
 2042 05bf 03       		.byte	0x3
 2043 05c0 00000000 		.4byte	I2C_1_mstrWrBufSize
 2044 05c4 18       		.uleb128 0x18
 2045 05c5 C6030000 		.4byte	.LASF48
 2046 05c9 01       		.byte	0x1
 2047 05ca 27       		.byte	0x27
 2048 05cb BA000000 		.4byte	0xba
 2049 05cf 01       		.byte	0x1
 2050 05d0 05       		.byte	0x5
 2051 05d1 03       		.byte	0x3
 2052 05d2 00000000 		.4byte	I2C_1_mstrWrBufIndex
 2053 05d6 18       		.uleb128 0x18
 2054 05d7 23020000 		.4byte	.LASF49
 2055 05db 01       		.byte	0x1
ARM GAS  C:\Users\Milo\AppData\Local\Temp\ccfBxLki.s 			page 57


 2056 05dc 28       		.byte	0x28
 2057 05dd BA000000 		.4byte	0xba
 2058 05e1 01       		.byte	0x1
 2059 05e2 05       		.byte	0x5
 2060 05e3 03       		.byte	0x3
 2061 05e4 00000000 		.4byte	I2C_1_mstrWrBufIndexTmp
 2062 05e8 19       		.uleb128 0x19
 2063 05e9 01       		.byte	0x1
 2064 05ea 40030000 		.4byte	.LASF50
 2065 05ee 04       		.byte	0x4
 2066 05ef 63       		.byte	0x63
 2067 05f0 01       		.byte	0x1
 2068 05f1 01       		.byte	0x1
 2069 05f2 FC050000 		.4byte	0x5fc
 2070 05f6 1A       		.uleb128 0x1a
 2071 05f7 6F000000 		.4byte	0x6f
 2072 05fb 00       		.byte	0
 2073 05fc 1B       		.uleb128 0x1b
 2074 05fd 01       		.byte	0x1
 2075 05fe 08010000 		.4byte	.LASF53
 2076 0602 06       		.byte	0x6
 2077 0603 20       		.byte	0x20
 2078 0604 01       		.byte	0x1
 2079 0605 6F000000 		.4byte	0x6f
 2080 0609 01       		.byte	0x1
 2081 060a 19       		.uleb128 0x19
 2082 060b 01       		.byte	0x1
 2083 060c EA030000 		.4byte	.LASF51
 2084 0610 05       		.byte	0x5
 2085 0611 1D       		.byte	0x1d
 2086 0612 01       		.byte	0x1
 2087 0613 01       		.byte	0x1
 2088 0614 1E060000 		.4byte	0x61e
 2089 0618 1A       		.uleb128 0x1a
 2090 0619 6F000000 		.4byte	0x6f
 2091 061d 00       		.byte	0
 2092 061e 19       		.uleb128 0x19
 2093 061f 01       		.byte	0x1
 2094 0620 0B030000 		.4byte	.LASF52
 2095 0624 04       		.byte	0x4
 2096 0625 6D       		.byte	0x6d
 2097 0626 01       		.byte	0x1
 2098 0627 01       		.byte	0x1
 2099 0628 32060000 		.4byte	0x632
 2100 062c 1A       		.uleb128 0x1a
 2101 062d 7A000000 		.4byte	0x7a
 2102 0631 00       		.byte	0
 2103 0632 1B       		.uleb128 0x1b
 2104 0633 01       		.byte	0x1
 2105 0634 54000000 		.4byte	.LASF54
 2106 0638 05       		.byte	0x5
 2107 0639 20       		.byte	0x20
 2108 063a 01       		.byte	0x1
 2109 063b 6F000000 		.4byte	0x6f
 2110 063f 01       		.byte	0x1
 2111 0640 1C       		.uleb128 0x1c
 2112 0641 01       		.byte	0x1
ARM GAS  C:\Users\Milo\AppData\Local\Temp\ccfBxLki.s 			page 58


 2113 0642 17020000 		.4byte	.LASF59
 2114 0646 04       		.byte	0x4
 2115 0647 61       		.byte	0x61
 2116 0648 01       		.byte	0x1
 2117 0649 01       		.byte	0x1
 2118 064a 1A       		.uleb128 0x1a
 2119 064b 6F000000 		.4byte	0x6f
 2120 064f 00       		.byte	0
 2121 0650 00       		.byte	0
 2122              		.section	.debug_abbrev,"",%progbits
 2123              	.Ldebug_abbrev0:
 2124 0000 01       		.uleb128 0x1
 2125 0001 11       		.uleb128 0x11
 2126 0002 01       		.byte	0x1
 2127 0003 25       		.uleb128 0x25
 2128 0004 0E       		.uleb128 0xe
 2129 0005 13       		.uleb128 0x13
 2130 0006 0B       		.uleb128 0xb
 2131 0007 03       		.uleb128 0x3
 2132 0008 0E       		.uleb128 0xe
 2133 0009 1B       		.uleb128 0x1b
 2134 000a 0E       		.uleb128 0xe
 2135 000b 55       		.uleb128 0x55
 2136 000c 06       		.uleb128 0x6
 2137 000d 11       		.uleb128 0x11
 2138 000e 01       		.uleb128 0x1
 2139 000f 52       		.uleb128 0x52
 2140 0010 01       		.uleb128 0x1
 2141 0011 10       		.uleb128 0x10
 2142 0012 06       		.uleb128 0x6
 2143 0013 00       		.byte	0
 2144 0014 00       		.byte	0
 2145 0015 02       		.uleb128 0x2
 2146 0016 24       		.uleb128 0x24
 2147 0017 00       		.byte	0
 2148 0018 0B       		.uleb128 0xb
 2149 0019 0B       		.uleb128 0xb
 2150 001a 3E       		.uleb128 0x3e
 2151 001b 0B       		.uleb128 0xb
 2152 001c 03       		.uleb128 0x3
 2153 001d 0E       		.uleb128 0xe
 2154 001e 00       		.byte	0
 2155 001f 00       		.byte	0
 2156 0020 03       		.uleb128 0x3
 2157 0021 24       		.uleb128 0x24
 2158 0022 00       		.byte	0
 2159 0023 0B       		.uleb128 0xb
 2160 0024 0B       		.uleb128 0xb
 2161 0025 3E       		.uleb128 0x3e
 2162 0026 0B       		.uleb128 0xb
 2163 0027 03       		.uleb128 0x3
 2164 0028 08       		.uleb128 0x8
 2165 0029 00       		.byte	0
 2166 002a 00       		.byte	0
 2167 002b 04       		.uleb128 0x4
 2168 002c 16       		.uleb128 0x16
 2169 002d 00       		.byte	0
ARM GAS  C:\Users\Milo\AppData\Local\Temp\ccfBxLki.s 			page 59


 2170 002e 03       		.uleb128 0x3
 2171 002f 0E       		.uleb128 0xe
 2172 0030 3A       		.uleb128 0x3a
 2173 0031 0B       		.uleb128 0xb
 2174 0032 3B       		.uleb128 0x3b
 2175 0033 0B       		.uleb128 0xb
 2176 0034 49       		.uleb128 0x49
 2177 0035 13       		.uleb128 0x13
 2178 0036 00       		.byte	0
 2179 0037 00       		.byte	0
 2180 0038 05       		.uleb128 0x5
 2181 0039 35       		.uleb128 0x35
 2182 003a 00       		.byte	0
 2183 003b 49       		.uleb128 0x49
 2184 003c 13       		.uleb128 0x13
 2185 003d 00       		.byte	0
 2186 003e 00       		.byte	0
 2187 003f 06       		.uleb128 0x6
 2188 0040 2E       		.uleb128 0x2e
 2189 0041 01       		.byte	0x1
 2190 0042 3F       		.uleb128 0x3f
 2191 0043 0C       		.uleb128 0xc
 2192 0044 03       		.uleb128 0x3
 2193 0045 0E       		.uleb128 0xe
 2194 0046 3A       		.uleb128 0x3a
 2195 0047 0B       		.uleb128 0xb
 2196 0048 3B       		.uleb128 0x3b
 2197 0049 05       		.uleb128 0x5
 2198 004a 27       		.uleb128 0x27
 2199 004b 0C       		.uleb128 0xc
 2200 004c 49       		.uleb128 0x49
 2201 004d 13       		.uleb128 0x13
 2202 004e 11       		.uleb128 0x11
 2203 004f 01       		.uleb128 0x1
 2204 0050 12       		.uleb128 0x12
 2205 0051 01       		.uleb128 0x1
 2206 0052 40       		.uleb128 0x40
 2207 0053 06       		.uleb128 0x6
 2208 0054 9742     		.uleb128 0x2117
 2209 0056 0C       		.uleb128 0xc
 2210 0057 01       		.uleb128 0x1
 2211 0058 13       		.uleb128 0x13
 2212 0059 00       		.byte	0
 2213 005a 00       		.byte	0
 2214 005b 07       		.uleb128 0x7
 2215 005c 05       		.uleb128 0x5
 2216 005d 00       		.byte	0
 2217 005e 03       		.uleb128 0x3
 2218 005f 0E       		.uleb128 0xe
 2219 0060 3A       		.uleb128 0x3a
 2220 0061 0B       		.uleb128 0xb
 2221 0062 3B       		.uleb128 0x3b
 2222 0063 05       		.uleb128 0x5
 2223 0064 49       		.uleb128 0x49
 2224 0065 13       		.uleb128 0x13
 2225 0066 02       		.uleb128 0x2
 2226 0067 06       		.uleb128 0x6
ARM GAS  C:\Users\Milo\AppData\Local\Temp\ccfBxLki.s 			page 60


 2227 0068 00       		.byte	0
 2228 0069 00       		.byte	0
 2229 006a 08       		.uleb128 0x8
 2230 006b 34       		.uleb128 0x34
 2231 006c 00       		.byte	0
 2232 006d 03       		.uleb128 0x3
 2233 006e 0E       		.uleb128 0xe
 2234 006f 3A       		.uleb128 0x3a
 2235 0070 0B       		.uleb128 0xb
 2236 0071 3B       		.uleb128 0x3b
 2237 0072 05       		.uleb128 0x5
 2238 0073 49       		.uleb128 0x49
 2239 0074 13       		.uleb128 0x13
 2240 0075 02       		.uleb128 0x2
 2241 0076 06       		.uleb128 0x6
 2242 0077 00       		.byte	0
 2243 0078 00       		.byte	0
 2244 0079 09       		.uleb128 0x9
 2245 007a 898201   		.uleb128 0x4109
 2246 007d 01       		.byte	0x1
 2247 007e 11       		.uleb128 0x11
 2248 007f 01       		.uleb128 0x1
 2249 0080 31       		.uleb128 0x31
 2250 0081 13       		.uleb128 0x13
 2251 0082 00       		.byte	0
 2252 0083 00       		.byte	0
 2253 0084 0A       		.uleb128 0xa
 2254 0085 8A8201   		.uleb128 0x410a
 2255 0088 00       		.byte	0
 2256 0089 02       		.uleb128 0x2
 2257 008a 0A       		.uleb128 0xa
 2258 008b 9142     		.uleb128 0x2111
 2259 008d 0A       		.uleb128 0xa
 2260 008e 00       		.byte	0
 2261 008f 00       		.byte	0
 2262 0090 0B       		.uleb128 0xb
 2263 0091 2E       		.uleb128 0x2e
 2264 0092 00       		.byte	0
 2265 0093 3F       		.uleb128 0x3f
 2266 0094 0C       		.uleb128 0xc
 2267 0095 03       		.uleb128 0x3
 2268 0096 0E       		.uleb128 0xe
 2269 0097 3A       		.uleb128 0x3a
 2270 0098 0B       		.uleb128 0xb
 2271 0099 3B       		.uleb128 0x3b
 2272 009a 05       		.uleb128 0x5
 2273 009b 27       		.uleb128 0x27
 2274 009c 0C       		.uleb128 0xc
 2275 009d 49       		.uleb128 0x49
 2276 009e 13       		.uleb128 0x13
 2277 009f 11       		.uleb128 0x11
 2278 00a0 01       		.uleb128 0x1
 2279 00a1 12       		.uleb128 0x12
 2280 00a2 01       		.uleb128 0x1
 2281 00a3 40       		.uleb128 0x40
 2282 00a4 0A       		.uleb128 0xa
 2283 00a5 9742     		.uleb128 0x2117
ARM GAS  C:\Users\Milo\AppData\Local\Temp\ccfBxLki.s 			page 61


 2284 00a7 0C       		.uleb128 0xc
 2285 00a8 00       		.byte	0
 2286 00a9 00       		.byte	0
 2287 00aa 0C       		.uleb128 0xc
 2288 00ab 2E       		.uleb128 0x2e
 2289 00ac 00       		.byte	0
 2290 00ad 3F       		.uleb128 0x3f
 2291 00ae 0C       		.uleb128 0xc
 2292 00af 03       		.uleb128 0x3
 2293 00b0 0E       		.uleb128 0xe
 2294 00b1 3A       		.uleb128 0x3a
 2295 00b2 0B       		.uleb128 0xb
 2296 00b3 3B       		.uleb128 0x3b
 2297 00b4 05       		.uleb128 0x5
 2298 00b5 27       		.uleb128 0x27
 2299 00b6 0C       		.uleb128 0xc
 2300 00b7 11       		.uleb128 0x11
 2301 00b8 01       		.uleb128 0x1
 2302 00b9 12       		.uleb128 0x12
 2303 00ba 01       		.uleb128 0x1
 2304 00bb 40       		.uleb128 0x40
 2305 00bc 0A       		.uleb128 0xa
 2306 00bd 9742     		.uleb128 0x2117
 2307 00bf 0C       		.uleb128 0xc
 2308 00c0 00       		.byte	0
 2309 00c1 00       		.byte	0
 2310 00c2 0D       		.uleb128 0xd
 2311 00c3 2E       		.uleb128 0x2e
 2312 00c4 01       		.byte	0x1
 2313 00c5 3F       		.uleb128 0x3f
 2314 00c6 0C       		.uleb128 0xc
 2315 00c7 03       		.uleb128 0x3
 2316 00c8 0E       		.uleb128 0xe
 2317 00c9 3A       		.uleb128 0x3a
 2318 00ca 0B       		.uleb128 0xb
 2319 00cb 3B       		.uleb128 0x3b
 2320 00cc 05       		.uleb128 0x5
 2321 00cd 27       		.uleb128 0x27
 2322 00ce 0C       		.uleb128 0xc
 2323 00cf 49       		.uleb128 0x49
 2324 00d0 13       		.uleb128 0x13
 2325 00d1 11       		.uleb128 0x11
 2326 00d2 01       		.uleb128 0x1
 2327 00d3 12       		.uleb128 0x12
 2328 00d4 01       		.uleb128 0x1
 2329 00d5 40       		.uleb128 0x40
 2330 00d6 0A       		.uleb128 0xa
 2331 00d7 9742     		.uleb128 0x2117
 2332 00d9 0C       		.uleb128 0xc
 2333 00da 01       		.uleb128 0x1
 2334 00db 13       		.uleb128 0x13
 2335 00dc 00       		.byte	0
 2336 00dd 00       		.byte	0
 2337 00de 0E       		.uleb128 0xe
 2338 00df 34       		.uleb128 0x34
 2339 00e0 00       		.byte	0
 2340 00e1 03       		.uleb128 0x3
ARM GAS  C:\Users\Milo\AppData\Local\Temp\ccfBxLki.s 			page 62


 2341 00e2 0E       		.uleb128 0xe
 2342 00e3 3A       		.uleb128 0x3a
 2343 00e4 0B       		.uleb128 0xb
 2344 00e5 3B       		.uleb128 0x3b
 2345 00e6 05       		.uleb128 0x5
 2346 00e7 49       		.uleb128 0x49
 2347 00e8 13       		.uleb128 0x13
 2348 00e9 02       		.uleb128 0x2
 2349 00ea 0A       		.uleb128 0xa
 2350 00eb 00       		.byte	0
 2351 00ec 00       		.byte	0
 2352 00ed 0F       		.uleb128 0xf
 2353 00ee 2E       		.uleb128 0x2e
 2354 00ef 01       		.byte	0x1
 2355 00f0 3F       		.uleb128 0x3f
 2356 00f1 0C       		.uleb128 0xc
 2357 00f2 03       		.uleb128 0x3
 2358 00f3 0E       		.uleb128 0xe
 2359 00f4 3A       		.uleb128 0x3a
 2360 00f5 0B       		.uleb128 0xb
 2361 00f6 3B       		.uleb128 0x3b
 2362 00f7 05       		.uleb128 0x5
 2363 00f8 27       		.uleb128 0x27
 2364 00f9 0C       		.uleb128 0xc
 2365 00fa 11       		.uleb128 0x11
 2366 00fb 01       		.uleb128 0x1
 2367 00fc 12       		.uleb128 0x12
 2368 00fd 01       		.uleb128 0x1
 2369 00fe 40       		.uleb128 0x40
 2370 00ff 06       		.uleb128 0x6
 2371 0100 9742     		.uleb128 0x2117
 2372 0102 0C       		.uleb128 0xc
 2373 0103 01       		.uleb128 0x1
 2374 0104 13       		.uleb128 0x13
 2375 0105 00       		.byte	0
 2376 0106 00       		.byte	0
 2377 0107 10       		.uleb128 0x10
 2378 0108 898201   		.uleb128 0x4109
 2379 010b 00       		.byte	0
 2380 010c 11       		.uleb128 0x11
 2381 010d 01       		.uleb128 0x1
 2382 010e 31       		.uleb128 0x31
 2383 010f 13       		.uleb128 0x13
 2384 0110 00       		.byte	0
 2385 0111 00       		.byte	0
 2386 0112 11       		.uleb128 0x11
 2387 0113 898201   		.uleb128 0x4109
 2388 0116 01       		.byte	0x1
 2389 0117 11       		.uleb128 0x11
 2390 0118 01       		.uleb128 0x1
 2391 0119 31       		.uleb128 0x31
 2392 011a 13       		.uleb128 0x13
 2393 011b 01       		.uleb128 0x1
 2394 011c 13       		.uleb128 0x13
 2395 011d 00       		.byte	0
 2396 011e 00       		.byte	0
 2397 011f 12       		.uleb128 0x12
ARM GAS  C:\Users\Milo\AppData\Local\Temp\ccfBxLki.s 			page 63


 2398 0120 2E       		.uleb128 0x2e
 2399 0121 01       		.byte	0x1
 2400 0122 3F       		.uleb128 0x3f
 2401 0123 0C       		.uleb128 0xc
 2402 0124 03       		.uleb128 0x3
 2403 0125 0E       		.uleb128 0xe
 2404 0126 3A       		.uleb128 0x3a
 2405 0127 0B       		.uleb128 0xb
 2406 0128 3B       		.uleb128 0x3b
 2407 0129 0B       		.uleb128 0xb
 2408 012a 27       		.uleb128 0x27
 2409 012b 0C       		.uleb128 0xc
 2410 012c 49       		.uleb128 0x49
 2411 012d 13       		.uleb128 0x13
 2412 012e 11       		.uleb128 0x11
 2413 012f 01       		.uleb128 0x1
 2414 0130 12       		.uleb128 0x12
 2415 0131 01       		.uleb128 0x1
 2416 0132 40       		.uleb128 0x40
 2417 0133 06       		.uleb128 0x6
 2418 0134 9742     		.uleb128 0x2117
 2419 0136 0C       		.uleb128 0xc
 2420 0137 01       		.uleb128 0x1
 2421 0138 13       		.uleb128 0x13
 2422 0139 00       		.byte	0
 2423 013a 00       		.byte	0
 2424 013b 13       		.uleb128 0x13
 2425 013c 05       		.uleb128 0x5
 2426 013d 00       		.byte	0
 2427 013e 03       		.uleb128 0x3
 2428 013f 0E       		.uleb128 0xe
 2429 0140 3A       		.uleb128 0x3a
 2430 0141 0B       		.uleb128 0xb
 2431 0142 3B       		.uleb128 0x3b
 2432 0143 0B       		.uleb128 0xb
 2433 0144 49       		.uleb128 0x49
 2434 0145 13       		.uleb128 0x13
 2435 0146 02       		.uleb128 0x2
 2436 0147 06       		.uleb128 0x6
 2437 0148 00       		.byte	0
 2438 0149 00       		.byte	0
 2439 014a 14       		.uleb128 0x14
 2440 014b 05       		.uleb128 0x5
 2441 014c 00       		.byte	0
 2442 014d 03       		.uleb128 0x3
 2443 014e 08       		.uleb128 0x8
 2444 014f 3A       		.uleb128 0x3a
 2445 0150 0B       		.uleb128 0xb
 2446 0151 3B       		.uleb128 0x3b
 2447 0152 0B       		.uleb128 0xb
 2448 0153 49       		.uleb128 0x49
 2449 0154 13       		.uleb128 0x13
 2450 0155 02       		.uleb128 0x2
 2451 0156 06       		.uleb128 0x6
 2452 0157 00       		.byte	0
 2453 0158 00       		.byte	0
 2454 0159 15       		.uleb128 0x15
ARM GAS  C:\Users\Milo\AppData\Local\Temp\ccfBxLki.s 			page 64


 2455 015a 34       		.uleb128 0x34
 2456 015b 00       		.byte	0
 2457 015c 03       		.uleb128 0x3
 2458 015d 0E       		.uleb128 0xe
 2459 015e 3A       		.uleb128 0x3a
 2460 015f 0B       		.uleb128 0xb
 2461 0160 3B       		.uleb128 0x3b
 2462 0161 0B       		.uleb128 0xb
 2463 0162 49       		.uleb128 0x49
 2464 0163 13       		.uleb128 0x13
 2465 0164 02       		.uleb128 0x2
 2466 0165 06       		.uleb128 0x6
 2467 0166 00       		.byte	0
 2468 0167 00       		.byte	0
 2469 0168 16       		.uleb128 0x16
 2470 0169 0F       		.uleb128 0xf
 2471 016a 00       		.byte	0
 2472 016b 0B       		.uleb128 0xb
 2473 016c 0B       		.uleb128 0xb
 2474 016d 49       		.uleb128 0x49
 2475 016e 13       		.uleb128 0x13
 2476 016f 00       		.byte	0
 2477 0170 00       		.byte	0
 2478 0171 17       		.uleb128 0x17
 2479 0172 34       		.uleb128 0x34
 2480 0173 00       		.byte	0
 2481 0174 03       		.uleb128 0x3
 2482 0175 0E       		.uleb128 0xe
 2483 0176 3A       		.uleb128 0x3a
 2484 0177 0B       		.uleb128 0xb
 2485 0178 3B       		.uleb128 0x3b
 2486 0179 0B       		.uleb128 0xb
 2487 017a 49       		.uleb128 0x49
 2488 017b 13       		.uleb128 0x13
 2489 017c 3F       		.uleb128 0x3f
 2490 017d 0C       		.uleb128 0xc
 2491 017e 3C       		.uleb128 0x3c
 2492 017f 0C       		.uleb128 0xc
 2493 0180 00       		.byte	0
 2494 0181 00       		.byte	0
 2495 0182 18       		.uleb128 0x18
 2496 0183 34       		.uleb128 0x34
 2497 0184 00       		.byte	0
 2498 0185 03       		.uleb128 0x3
 2499 0186 0E       		.uleb128 0xe
 2500 0187 3A       		.uleb128 0x3a
 2501 0188 0B       		.uleb128 0xb
 2502 0189 3B       		.uleb128 0x3b
 2503 018a 0B       		.uleb128 0xb
 2504 018b 49       		.uleb128 0x49
 2505 018c 13       		.uleb128 0x13
 2506 018d 3F       		.uleb128 0x3f
 2507 018e 0C       		.uleb128 0xc
 2508 018f 02       		.uleb128 0x2
 2509 0190 0A       		.uleb128 0xa
 2510 0191 00       		.byte	0
 2511 0192 00       		.byte	0
ARM GAS  C:\Users\Milo\AppData\Local\Temp\ccfBxLki.s 			page 65


 2512 0193 19       		.uleb128 0x19
 2513 0194 2E       		.uleb128 0x2e
 2514 0195 01       		.byte	0x1
 2515 0196 3F       		.uleb128 0x3f
 2516 0197 0C       		.uleb128 0xc
 2517 0198 03       		.uleb128 0x3
 2518 0199 0E       		.uleb128 0xe
 2519 019a 3A       		.uleb128 0x3a
 2520 019b 0B       		.uleb128 0xb
 2521 019c 3B       		.uleb128 0x3b
 2522 019d 0B       		.uleb128 0xb
 2523 019e 27       		.uleb128 0x27
 2524 019f 0C       		.uleb128 0xc
 2525 01a0 3C       		.uleb128 0x3c
 2526 01a1 0C       		.uleb128 0xc
 2527 01a2 01       		.uleb128 0x1
 2528 01a3 13       		.uleb128 0x13
 2529 01a4 00       		.byte	0
 2530 01a5 00       		.byte	0
 2531 01a6 1A       		.uleb128 0x1a
 2532 01a7 05       		.uleb128 0x5
 2533 01a8 00       		.byte	0
 2534 01a9 49       		.uleb128 0x49
 2535 01aa 13       		.uleb128 0x13
 2536 01ab 00       		.byte	0
 2537 01ac 00       		.byte	0
 2538 01ad 1B       		.uleb128 0x1b
 2539 01ae 2E       		.uleb128 0x2e
 2540 01af 00       		.byte	0
 2541 01b0 3F       		.uleb128 0x3f
 2542 01b1 0C       		.uleb128 0xc
 2543 01b2 03       		.uleb128 0x3
 2544 01b3 0E       		.uleb128 0xe
 2545 01b4 3A       		.uleb128 0x3a
 2546 01b5 0B       		.uleb128 0xb
 2547 01b6 3B       		.uleb128 0x3b
 2548 01b7 0B       		.uleb128 0xb
 2549 01b8 27       		.uleb128 0x27
 2550 01b9 0C       		.uleb128 0xc
 2551 01ba 49       		.uleb128 0x49
 2552 01bb 13       		.uleb128 0x13
 2553 01bc 3C       		.uleb128 0x3c
 2554 01bd 0C       		.uleb128 0xc
 2555 01be 00       		.byte	0
 2556 01bf 00       		.byte	0
 2557 01c0 1C       		.uleb128 0x1c
 2558 01c1 2E       		.uleb128 0x2e
 2559 01c2 01       		.byte	0x1
 2560 01c3 3F       		.uleb128 0x3f
 2561 01c4 0C       		.uleb128 0xc
 2562 01c5 03       		.uleb128 0x3
 2563 01c6 0E       		.uleb128 0xe
 2564 01c7 3A       		.uleb128 0x3a
 2565 01c8 0B       		.uleb128 0xb
 2566 01c9 3B       		.uleb128 0x3b
 2567 01ca 0B       		.uleb128 0xb
 2568 01cb 27       		.uleb128 0x27
ARM GAS  C:\Users\Milo\AppData\Local\Temp\ccfBxLki.s 			page 66


 2569 01cc 0C       		.uleb128 0xc
 2570 01cd 3C       		.uleb128 0x3c
 2571 01ce 0C       		.uleb128 0xc
 2572 01cf 00       		.byte	0
 2573 01d0 00       		.byte	0
 2574 01d1 00       		.byte	0
 2575              		.section	.debug_loc,"",%progbits
 2576              	.Ldebug_loc0:
 2577              	.LLST0:
 2578 0000 00000000 		.4byte	.LFB2
 2579 0004 02000000 		.4byte	.LCFI0
 2580 0008 0200     		.2byte	0x2
 2581 000a 7D       		.byte	0x7d
 2582 000b 00       		.sleb128 0
 2583 000c 02000000 		.4byte	.LCFI0
 2584 0010 B8000000 		.4byte	.LFE2
 2585 0014 0200     		.2byte	0x2
 2586 0016 7D       		.byte	0x7d
 2587 0017 18       		.sleb128 24
 2588 0018 00000000 		.4byte	0
 2589 001c 00000000 		.4byte	0
 2590              	.LLST1:
 2591 0020 00000000 		.4byte	.LVL0
 2592 0024 0C000000 		.4byte	.LVL1
 2593 0028 0100     		.2byte	0x1
 2594 002a 50       		.byte	0x50
 2595 002b 0C000000 		.4byte	.LVL1
 2596 002f 24000000 		.4byte	.LVL4
 2597 0033 0100     		.2byte	0x1
 2598 0035 57       		.byte	0x57
 2599 0036 24000000 		.4byte	.LVL4
 2600 003a 28000000 		.4byte	.LVL5
 2601 003e 0400     		.2byte	0x4
 2602 0040 F3       		.byte	0xf3
 2603 0041 01       		.uleb128 0x1
 2604 0042 50       		.byte	0x50
 2605 0043 9F       		.byte	0x9f
 2606 0044 28000000 		.4byte	.LVL5
 2607 0048 42000000 		.4byte	.LVL8
 2608 004c 0100     		.2byte	0x1
 2609 004e 57       		.byte	0x57
 2610 004f 42000000 		.4byte	.LVL8
 2611 0053 54000000 		.4byte	.LVL9
 2612 0057 0200     		.2byte	0x2
 2613 0059 70       		.byte	0x70
 2614 005a 00       		.sleb128 0
 2615 005b 54000000 		.4byte	.LVL9
 2616 005f 96000000 		.4byte	.LVL15
 2617 0063 0500     		.2byte	0x5
 2618 0065 0C       		.byte	0xc
 2619 0066 40020740 		.4byte	0x40070240
 2620 006a 00000000 		.4byte	0
 2621 006e 00000000 		.4byte	0
 2622              	.LLST2:
 2623 0072 00000000 		.4byte	.LVL0
 2624 0076 16000000 		.4byte	.LVL2
 2625 007a 0100     		.2byte	0x1
ARM GAS  C:\Users\Milo\AppData\Local\Temp\ccfBxLki.s 			page 67


 2626 007c 51       		.byte	0x51
 2627 007d 16000000 		.4byte	.LVL2
 2628 0081 34000000 		.4byte	.LVL6
 2629 0085 0100     		.2byte	0x1
 2630 0087 56       		.byte	0x56
 2631 0088 34000000 		.4byte	.LVL6
 2632 008c B8000000 		.4byte	.LFE2
 2633 0090 0400     		.2byte	0x4
 2634 0092 F3       		.byte	0xf3
 2635 0093 01       		.uleb128 0x1
 2636 0094 51       		.byte	0x51
 2637 0095 9F       		.byte	0x9f
 2638 0096 00000000 		.4byte	0
 2639 009a 00000000 		.4byte	0
 2640              	.LLST3:
 2641 009e 00000000 		.4byte	.LVL0
 2642 00a2 6E000000 		.4byte	.LVL10
 2643 00a6 0200     		.2byte	0x2
 2644 00a8 30       		.byte	0x30
 2645 00a9 9F       		.byte	0x9f
 2646 00aa 6E000000 		.4byte	.LVL10
 2647 00ae 78000000 		.4byte	.LVL12
 2648 00b2 0200     		.2byte	0x2
 2649 00b4 31       		.byte	0x31
 2650 00b5 9F       		.byte	0x9f
 2651 00b6 78000000 		.4byte	.LVL12
 2652 00ba 7C000000 		.4byte	.LVL13
 2653 00be 0200     		.2byte	0x2
 2654 00c0 30       		.byte	0x30
 2655 00c1 9F       		.byte	0x9f
 2656 00c2 7C000000 		.4byte	.LVL13
 2657 00c6 8A000000 		.4byte	.LVL14
 2658 00ca 0100     		.2byte	0x1
 2659 00cc 53       		.byte	0x53
 2660 00cd 00000000 		.4byte	0
 2661 00d1 00000000 		.4byte	0
 2662              	.LLST4:
 2663 00d5 00000000 		.4byte	.LVL0
 2664 00d9 6E000000 		.4byte	.LVL10
 2665 00dd 0200     		.2byte	0x2
 2666 00df 34       		.byte	0x34
 2667 00e0 9F       		.byte	0x9f
 2668 00e1 6E000000 		.4byte	.LVL10
 2669 00e5 72000000 		.4byte	.LVL11
 2670 00e9 0200     		.2byte	0x2
 2671 00eb 31       		.byte	0x31
 2672 00ec 9F       		.byte	0x9f
 2673 00ed 72000000 		.4byte	.LVL11
 2674 00f1 78000000 		.4byte	.LVL12
 2675 00f5 0400     		.2byte	0x4
 2676 00f7 0A       		.byte	0xa
 2677 00f8 0001     		.2byte	0x100
 2678 00fa 9F       		.byte	0x9f
 2679 00fb 78000000 		.4byte	.LVL12
 2680 00ff 7C000000 		.4byte	.LVL13
 2681 0103 0200     		.2byte	0x2
 2682 0105 34       		.byte	0x34
ARM GAS  C:\Users\Milo\AppData\Local\Temp\ccfBxLki.s 			page 68


 2683 0106 9F       		.byte	0x9f
 2684 0107 7C000000 		.4byte	.LVL13
 2685 010b B8000000 		.4byte	.LFE2
 2686 010f 0100     		.2byte	0x1
 2687 0111 50       		.byte	0x50
 2688 0112 00000000 		.4byte	0
 2689 0116 00000000 		.4byte	0
 2690              	.LLST5:
 2691 011a 00000000 		.4byte	.LFB4
 2692 011e 02000000 		.4byte	.LCFI1
 2693 0122 0200     		.2byte	0x2
 2694 0124 7D       		.byte	0x7d
 2695 0125 00       		.sleb128 0
 2696 0126 02000000 		.4byte	.LCFI1
 2697 012a 80000000 		.4byte	.LFE4
 2698 012e 0200     		.2byte	0x2
 2699 0130 7D       		.byte	0x7d
 2700 0131 08       		.sleb128 8
 2701 0132 00000000 		.4byte	0
 2702 0136 00000000 		.4byte	0
 2703              	.LLST6:
 2704 013a 00000000 		.4byte	.LVL16
 2705 013e 46000000 		.4byte	.LVL17
 2706 0142 0200     		.2byte	0x2
 2707 0144 30       		.byte	0x30
 2708 0145 9F       		.byte	0x9f
 2709 0146 46000000 		.4byte	.LVL17
 2710 014a 56000000 		.4byte	.LVL18
 2711 014e 0100     		.2byte	0x1
 2712 0150 53       		.byte	0x53
 2713 0151 00000000 		.4byte	0
 2714 0155 00000000 		.4byte	0
 2715              	.LLST7:
 2716 0159 00000000 		.4byte	.LVL16
 2717 015d 46000000 		.4byte	.LVL17
 2718 0161 0200     		.2byte	0x2
 2719 0163 34       		.byte	0x34
 2720 0164 9F       		.byte	0x9f
 2721 0165 46000000 		.4byte	.LVL17
 2722 0169 80000000 		.4byte	.LFE4
 2723 016d 0100     		.2byte	0x1
 2724 016f 50       		.byte	0x50
 2725 0170 00000000 		.4byte	0
 2726 0174 00000000 		.4byte	0
 2727              	.LLST8:
 2728 0178 00000000 		.4byte	.LFB5
 2729 017c 02000000 		.4byte	.LCFI2
 2730 0180 0200     		.2byte	0x2
 2731 0182 7D       		.byte	0x7d
 2732 0183 00       		.sleb128 0
 2733 0184 02000000 		.4byte	.LCFI2
 2734 0188 80000000 		.4byte	.LFE5
 2735 018c 0200     		.2byte	0x2
 2736 018e 7D       		.byte	0x7d
 2737 018f 0C       		.sleb128 12
 2738 0190 00000000 		.4byte	0
 2739 0194 00000000 		.4byte	0
ARM GAS  C:\Users\Milo\AppData\Local\Temp\ccfBxLki.s 			page 69


 2740              	.LLST9:
 2741 0198 00000000 		.4byte	.LVL20
 2742 019c 0A000000 		.4byte	.LVL21
 2743 01a0 0100     		.2byte	0x1
 2744 01a2 50       		.byte	0x50
 2745 01a3 0A000000 		.4byte	.LVL21
 2746 01a7 12000000 		.4byte	.LVL22
 2747 01ab 0100     		.2byte	0x1
 2748 01ad 52       		.byte	0x52
 2749 01ae 12000000 		.4byte	.LVL22
 2750 01b2 1E000000 		.4byte	.LVL23
 2751 01b6 0200     		.2byte	0x2
 2752 01b8 70       		.byte	0x70
 2753 01b9 00       		.sleb128 0
 2754 01ba 1E000000 		.4byte	.LVL23
 2755 01be 68000000 		.4byte	.LVL31
 2756 01c2 0500     		.2byte	0x5
 2757 01c4 0C       		.byte	0xc
 2758 01c5 40020740 		.4byte	0x40070240
 2759 01c9 68000000 		.4byte	.LVL31
 2760 01cd 80000000 		.4byte	.LFE5
 2761 01d1 0400     		.2byte	0x4
 2762 01d3 F3       		.byte	0xf3
 2763 01d4 01       		.uleb128 0x1
 2764 01d5 50       		.byte	0x50
 2765 01d6 9F       		.byte	0x9f
 2766 01d7 00000000 		.4byte	0
 2767 01db 00000000 		.4byte	0
 2768              	.LLST10:
 2769 01df 00000000 		.4byte	.LVL20
 2770 01e3 4A000000 		.4byte	.LVL28
 2771 01e7 0200     		.2byte	0x2
 2772 01e9 30       		.byte	0x30
 2773 01ea 9F       		.byte	0x9f
 2774 01eb 4A000000 		.4byte	.LVL28
 2775 01ef 4E000000 		.4byte	.LVL29
 2776 01f3 0200     		.2byte	0x2
 2777 01f5 31       		.byte	0x31
 2778 01f6 9F       		.byte	0x9f
 2779 01f7 4E000000 		.4byte	.LVL29
 2780 01fb 60000000 		.4byte	.LVL30
 2781 01ff 0100     		.2byte	0x1
 2782 0201 53       		.byte	0x53
 2783 0202 00000000 		.4byte	0
 2784 0206 00000000 		.4byte	0
 2785              	.LLST11:
 2786 020a 00000000 		.4byte	.LVL20
 2787 020e 2A000000 		.4byte	.LVL24
 2788 0212 0200     		.2byte	0x2
 2789 0214 34       		.byte	0x34
 2790 0215 9F       		.byte	0x9f
 2791 0216 2A000000 		.4byte	.LVL24
 2792 021a 2E000000 		.4byte	.LVL25
 2793 021e 0200     		.2byte	0x2
 2794 0220 30       		.byte	0x30
 2795 0221 9F       		.byte	0x9f
 2796 0222 2E000000 		.4byte	.LVL25
ARM GAS  C:\Users\Milo\AppData\Local\Temp\ccfBxLki.s 			page 70


 2797 0226 3A000000 		.4byte	.LVL26
 2798 022a 0200     		.2byte	0x2
 2799 022c 34       		.byte	0x34
 2800 022d 9F       		.byte	0x9f
 2801 022e 3A000000 		.4byte	.LVL26
 2802 0232 3C000000 		.4byte	.LVL27
 2803 0236 0200     		.2byte	0x2
 2804 0238 32       		.byte	0x32
 2805 0239 9F       		.byte	0x9f
 2806 023a 3C000000 		.4byte	.LVL27
 2807 023e 4A000000 		.4byte	.LVL28
 2808 0242 0200     		.2byte	0x2
 2809 0244 34       		.byte	0x34
 2810 0245 9F       		.byte	0x9f
 2811 0246 4A000000 		.4byte	.LVL28
 2812 024a 4E000000 		.4byte	.LVL29
 2813 024e 0400     		.2byte	0x4
 2814 0250 0A       		.byte	0xa
 2815 0251 0001     		.2byte	0x100
 2816 0253 9F       		.byte	0x9f
 2817 0254 4E000000 		.4byte	.LVL29
 2818 0258 80000000 		.4byte	.LFE5
 2819 025c 0100     		.2byte	0x1
 2820 025e 50       		.byte	0x50
 2821 025f 00000000 		.4byte	0
 2822 0263 00000000 		.4byte	0
 2823              	.LLST12:
 2824 0267 00000000 		.4byte	.LFB6
 2825 026b 02000000 		.4byte	.LCFI3
 2826 026f 0200     		.2byte	0x2
 2827 0271 7D       		.byte	0x7d
 2828 0272 00       		.sleb128 0
 2829 0273 02000000 		.4byte	.LCFI3
 2830 0277 80000000 		.4byte	.LFE6
 2831 027b 0200     		.2byte	0x2
 2832 027d 7D       		.byte	0x7d
 2833 027e 08       		.sleb128 8
 2834 027f 00000000 		.4byte	0
 2835 0283 00000000 		.4byte	0
 2836              	.LLST13:
 2837 0287 00000000 		.4byte	.LVL32
 2838 028b 08000000 		.4byte	.LVL33
 2839 028f 0100     		.2byte	0x1
 2840 0291 50       		.byte	0x50
 2841 0292 08000000 		.4byte	.LVL33
 2842 0296 3C000000 		.4byte	.LVL35
 2843 029a 0100     		.2byte	0x1
 2844 029c 51       		.byte	0x51
 2845 029d 3C000000 		.4byte	.LVL35
 2846 02a1 40000000 		.4byte	.LVL36
 2847 02a5 0400     		.2byte	0x4
 2848 02a7 F3       		.byte	0xf3
 2849 02a8 01       		.uleb128 0x1
 2850 02a9 50       		.byte	0x50
 2851 02aa 9F       		.byte	0x9f
 2852 02ab 40000000 		.4byte	.LVL36
 2853 02af 42000000 		.4byte	.LVL37
ARM GAS  C:\Users\Milo\AppData\Local\Temp\ccfBxLki.s 			page 71


 2854 02b3 0100     		.2byte	0x1
 2855 02b5 51       		.byte	0x51
 2856 02b6 42000000 		.4byte	.LVL37
 2857 02ba 80000000 		.4byte	.LFE6
 2858 02be 0400     		.2byte	0x4
 2859 02c0 F3       		.byte	0xf3
 2860 02c1 01       		.uleb128 0x1
 2861 02c2 50       		.byte	0x50
 2862 02c3 9F       		.byte	0x9f
 2863 02c4 00000000 		.4byte	0
 2864 02c8 00000000 		.4byte	0
 2865              	.LLST14:
 2866 02cc 00000000 		.4byte	.LVL32
 2867 02d0 2C000000 		.4byte	.LVL34
 2868 02d4 0300     		.2byte	0x3
 2869 02d6 09       		.byte	0x9
 2870 02d7 FF       		.byte	0xff
 2871 02d8 9F       		.byte	0x9f
 2872 02d9 2C000000 		.4byte	.LVL34
 2873 02dd 40000000 		.4byte	.LVL36
 2874 02e1 0100     		.2byte	0x1
 2875 02e3 50       		.byte	0x50
 2876 02e4 40000000 		.4byte	.LVL36
 2877 02e8 5E000000 		.4byte	.LVL38
 2878 02ec 0300     		.2byte	0x3
 2879 02ee 09       		.byte	0x9
 2880 02ef FF       		.byte	0xff
 2881 02f0 9F       		.byte	0x9f
 2882 02f1 5E000000 		.4byte	.LVL38
 2883 02f5 80000000 		.4byte	.LFE6
 2884 02f9 0100     		.2byte	0x1
 2885 02fb 50       		.byte	0x50
 2886 02fc 00000000 		.4byte	0
 2887 0300 00000000 		.4byte	0
 2888              	.LLST15:
 2889 0304 00000000 		.4byte	.LFB11
 2890 0308 02000000 		.4byte	.LCFI4
 2891 030c 0200     		.2byte	0x2
 2892 030e 7D       		.byte	0x7d
 2893 030f 00       		.sleb128 0
 2894 0310 02000000 		.4byte	.LCFI4
 2895 0314 1C000000 		.4byte	.LFE11
 2896 0318 0200     		.2byte	0x2
 2897 031a 7D       		.byte	0x7d
 2898 031b 04       		.sleb128 4
 2899 031c 00000000 		.4byte	0
 2900 0320 00000000 		.4byte	0
 2901              	.LLST16:
 2902 0324 08000000 		.4byte	.LVL39
 2903 0328 12000000 		.4byte	.LVL40
 2904 032c 0700     		.2byte	0x7
 2905 032e 70       		.byte	0x70
 2906 032f 00       		.sleb128 0
 2907 0330 0A       		.byte	0xa
 2908 0331 FFFF     		.2byte	0xffff
 2909 0333 1A       		.byte	0x1a
 2910 0334 9F       		.byte	0x9f
ARM GAS  C:\Users\Milo\AppData\Local\Temp\ccfBxLki.s 			page 72


 2911 0335 12000000 		.4byte	.LVL40
 2912 0339 1C000000 		.4byte	.LFE11
 2913 033d 0100     		.2byte	0x1
 2914 033f 50       		.byte	0x50
 2915 0340 00000000 		.4byte	0
 2916 0344 00000000 		.4byte	0
 2917              	.LLST17:
 2918 0348 00000000 		.4byte	.LFB13
 2919 034c 02000000 		.4byte	.LCFI5
 2920 0350 0200     		.2byte	0x2
 2921 0352 7D       		.byte	0x7d
 2922 0353 00       		.sleb128 0
 2923 0354 02000000 		.4byte	.LCFI5
 2924 0358 90000000 		.4byte	.LFE13
 2925 035c 0200     		.2byte	0x2
 2926 035e 7D       		.byte	0x7d
 2927 035f 18       		.sleb128 24
 2928 0360 00000000 		.4byte	0
 2929 0364 00000000 		.4byte	0
 2930              	.LLST18:
 2931 0368 06000000 		.4byte	.LVL42
 2932 036c 56000000 		.4byte	.LVL51
 2933 0370 0100     		.2byte	0x1
 2934 0372 55       		.byte	0x55
 2935 0373 00000000 		.4byte	0
 2936 0377 00000000 		.4byte	0
 2937              	.LLST19:
 2938 037b 00000000 		.4byte	.LFB3
 2939 037f 02000000 		.4byte	.LCFI6
 2940 0383 0200     		.2byte	0x2
 2941 0385 7D       		.byte	0x7d
 2942 0386 00       		.sleb128 0
 2943 0387 02000000 		.4byte	.LCFI6
 2944 038b A8000000 		.4byte	.LFE3
 2945 038f 0200     		.2byte	0x2
 2946 0391 7D       		.byte	0x7d
 2947 0392 10       		.sleb128 16
 2948 0393 00000000 		.4byte	0
 2949 0397 00000000 		.4byte	0
 2950              	.LLST20:
 2951 039b 00000000 		.4byte	.LVL54
 2952 039f 0A000000 		.4byte	.LVL55
 2953 03a3 0100     		.2byte	0x1
 2954 03a5 50       		.byte	0x50
 2955 03a6 0A000000 		.4byte	.LVL55
 2956 03aa 10000000 		.4byte	.LVL56
 2957 03ae 0100     		.2byte	0x1
 2958 03b0 55       		.byte	0x55
 2959 03b1 10000000 		.4byte	.LVL56
 2960 03b5 14000000 		.4byte	.LVL57
 2961 03b9 0400     		.2byte	0x4
 2962 03bb F3       		.byte	0xf3
 2963 03bc 01       		.uleb128 0x1
 2964 03bd 50       		.byte	0x50
 2965 03be 9F       		.byte	0x9f
 2966 03bf 14000000 		.4byte	.LVL57
 2967 03c3 3C000000 		.4byte	.LVL61
ARM GAS  C:\Users\Milo\AppData\Local\Temp\ccfBxLki.s 			page 73


 2968 03c7 0100     		.2byte	0x1
 2969 03c9 55       		.byte	0x55
 2970 03ca 3C000000 		.4byte	.LVL61
 2971 03ce 8A000000 		.4byte	.LVL67
 2972 03d2 0500     		.2byte	0x5
 2973 03d4 0C       		.byte	0xc
 2974 03d5 40020740 		.4byte	0x40070240
 2975 03d9 00000000 		.4byte	0
 2976 03dd 00000000 		.4byte	0
 2977              	.LLST21:
 2978 03e1 00000000 		.4byte	.LVL54
 2979 03e5 20000000 		.4byte	.LVL58
 2980 03e9 0100     		.2byte	0x1
 2981 03eb 51       		.byte	0x51
 2982 03ec 20000000 		.4byte	.LVL58
 2983 03f0 A8000000 		.4byte	.LFE3
 2984 03f4 0400     		.2byte	0x4
 2985 03f6 F3       		.byte	0xf3
 2986 03f7 01       		.uleb128 0x1
 2987 03f8 51       		.byte	0x51
 2988 03f9 9F       		.byte	0x9f
 2989 03fa 00000000 		.4byte	0
 2990 03fe 00000000 		.4byte	0
 2991              	.LLST22:
 2992 0402 00000000 		.4byte	.LVL54
 2993 0406 62000000 		.4byte	.LVL62
 2994 040a 0200     		.2byte	0x2
 2995 040c 30       		.byte	0x30
 2996 040d 9F       		.byte	0x9f
 2997 040e 62000000 		.4byte	.LVL62
 2998 0412 6C000000 		.4byte	.LVL64
 2999 0416 0200     		.2byte	0x2
 3000 0418 31       		.byte	0x31
 3001 0419 9F       		.byte	0x9f
 3002 041a 6C000000 		.4byte	.LVL64
 3003 041e 70000000 		.4byte	.LVL65
 3004 0422 0200     		.2byte	0x2
 3005 0424 30       		.byte	0x30
 3006 0425 9F       		.byte	0x9f
 3007 0426 70000000 		.4byte	.LVL65
 3008 042a 7A000000 		.4byte	.LVL66
 3009 042e 0100     		.2byte	0x1
 3010 0430 53       		.byte	0x53
 3011 0431 00000000 		.4byte	0
 3012 0435 00000000 		.4byte	0
 3013              	.LLST23:
 3014 0439 00000000 		.4byte	.LVL54
 3015 043d 62000000 		.4byte	.LVL62
 3016 0441 0200     		.2byte	0x2
 3017 0443 34       		.byte	0x34
 3018 0444 9F       		.byte	0x9f
 3019 0445 62000000 		.4byte	.LVL62
 3020 0449 66000000 		.4byte	.LVL63
 3021 044d 0200     		.2byte	0x2
 3022 044f 31       		.byte	0x31
 3023 0450 9F       		.byte	0x9f
 3024 0451 66000000 		.4byte	.LVL63
ARM GAS  C:\Users\Milo\AppData\Local\Temp\ccfBxLki.s 			page 74


 3025 0455 6C000000 		.4byte	.LVL64
 3026 0459 0400     		.2byte	0x4
 3027 045b 0A       		.byte	0xa
 3028 045c 0001     		.2byte	0x100
 3029 045e 9F       		.byte	0x9f
 3030 045f 6C000000 		.4byte	.LVL64
 3031 0463 70000000 		.4byte	.LVL65
 3032 0467 0200     		.2byte	0x2
 3033 0469 34       		.byte	0x34
 3034 046a 9F       		.byte	0x9f
 3035 046b 70000000 		.4byte	.LVL65
 3036 046f A8000000 		.4byte	.LFE3
 3037 0473 0100     		.2byte	0x1
 3038 0475 50       		.byte	0x50
 3039 0476 00000000 		.4byte	0
 3040 047a 00000000 		.4byte	0
 3041              	.LLST24:
 3042 047e 00000000 		.4byte	.LFB1
 3043 0482 02000000 		.4byte	.LCFI7
 3044 0486 0200     		.2byte	0x2
 3045 0488 7D       		.byte	0x7d
 3046 0489 00       		.sleb128 0
 3047 048a 02000000 		.4byte	.LCFI7
 3048 048e E4000000 		.4byte	.LFE1
 3049 0492 0200     		.2byte	0x2
 3050 0494 7D       		.byte	0x7d
 3051 0495 20       		.sleb128 32
 3052 0496 00000000 		.4byte	0
 3053 049a 00000000 		.4byte	0
 3054              	.LLST25:
 3055 049e 00000000 		.4byte	.LVL68
 3056 04a2 16000000 		.4byte	.LVL70
 3057 04a6 0100     		.2byte	0x1
 3058 04a8 50       		.byte	0x50
 3059 04a9 16000000 		.4byte	.LVL70
 3060 04ad 26000000 		.4byte	.LVL72
 3061 04b1 0100     		.2byte	0x1
 3062 04b3 57       		.byte	0x57
 3063 04b4 26000000 		.4byte	.LVL72
 3064 04b8 28000000 		.4byte	.LVL73
 3065 04bc 0100     		.2byte	0x1
 3066 04be 50       		.byte	0x50
 3067 04bf 28000000 		.4byte	.LVL73
 3068 04c3 5C000000 		.4byte	.LVL79
 3069 04c7 0100     		.2byte	0x1
 3070 04c9 57       		.byte	0x57
 3071 04ca 5C000000 		.4byte	.LVL79
 3072 04ce 6C000000 		.4byte	.LVL80
 3073 04d2 0400     		.2byte	0x4
 3074 04d4 F3       		.byte	0xf3
 3075 04d5 01       		.uleb128 0x1
 3076 04d6 50       		.byte	0x50
 3077 04d7 9F       		.byte	0x9f
 3078 04d8 6C000000 		.4byte	.LVL80
 3079 04dc 82000000 		.4byte	.LVL83
 3080 04e0 0100     		.2byte	0x1
 3081 04e2 57       		.byte	0x57
ARM GAS  C:\Users\Milo\AppData\Local\Temp\ccfBxLki.s 			page 75


 3082 04e3 82000000 		.4byte	.LVL83
 3083 04e7 84000000 		.4byte	.LVL84
 3084 04eb 0200     		.2byte	0x2
 3085 04ed 74       		.byte	0x74
 3086 04ee 00       		.sleb128 0
 3087 04ef 84000000 		.4byte	.LVL84
 3088 04f3 A4000000 		.4byte	.LVL85
 3089 04f7 0B00     		.2byte	0xb
 3090 04f9 F3       		.byte	0xf3
 3091 04fa 01       		.uleb128 0x1
 3092 04fb 50       		.byte	0x50
 3093 04fc 31       		.byte	0x31
 3094 04fd 24       		.byte	0x24
 3095 04fe 08       		.byte	0x8
 3096 04ff FE       		.byte	0xfe
 3097 0500 1A       		.byte	0x1a
 3098 0501 31       		.byte	0x31
 3099 0502 21       		.byte	0x21
 3100 0503 9F       		.byte	0x9f
 3101 0504 A4000000 		.4byte	.LVL85
 3102 0508 A6000000 		.4byte	.LVL86
 3103 050c 0100     		.2byte	0x1
 3104 050e 50       		.byte	0x50
 3105 050f 00000000 		.4byte	0
 3106 0513 00000000 		.4byte	0
 3107              	.LLST26:
 3108 0517 00000000 		.4byte	.LVL68
 3109 051b 19000000 		.4byte	.LVL71-1
 3110 051f 0100     		.2byte	0x1
 3111 0521 51       		.byte	0x51
 3112 0522 19000000 		.4byte	.LVL71-1
 3113 0526 26000000 		.4byte	.LVL72
 3114 052a 0100     		.2byte	0x1
 3115 052c 55       		.byte	0x55
 3116 052d 26000000 		.4byte	.LVL72
 3117 0531 32000000 		.4byte	.LVL74
 3118 0535 0100     		.2byte	0x1
 3119 0537 51       		.byte	0x51
 3120 0538 32000000 		.4byte	.LVL74
 3121 053c 4C000000 		.4byte	.LVL77
 3122 0540 0100     		.2byte	0x1
 3123 0542 55       		.byte	0x55
 3124 0543 4C000000 		.4byte	.LVL77
 3125 0547 77000000 		.4byte	.LVL81-1
 3126 054b 0500     		.2byte	0x5
 3127 054d 03       		.byte	0x3
 3128 054e 00000000 		.4byte	I2C_1_mstrRdBufPtr
 3129 0552 77000000 		.4byte	.LVL81-1
 3130 0556 7C000000 		.4byte	.LVL82
 3131 055a 0400     		.2byte	0x4
 3132 055c F3       		.byte	0xf3
 3133 055d 01       		.uleb128 0x1
 3134 055e 51       		.byte	0x51
 3135 055f 9F       		.byte	0x9f
 3136 0560 7C000000 		.4byte	.LVL82
 3137 0564 84000000 		.4byte	.LVL84
 3138 0568 0500     		.2byte	0x5
ARM GAS  C:\Users\Milo\AppData\Local\Temp\ccfBxLki.s 			page 76


 3139 056a 03       		.byte	0x3
 3140 056b 00000000 		.4byte	I2C_1_mstrRdBufPtr
 3141 056f 84000000 		.4byte	.LVL84
 3142 0573 A4000000 		.4byte	.LVL85
 3143 0577 0400     		.2byte	0x4
 3144 0579 F3       		.byte	0xf3
 3145 057a 01       		.uleb128 0x1
 3146 057b 51       		.byte	0x51
 3147 057c 9F       		.byte	0x9f
 3148 057d A4000000 		.4byte	.LVL85
 3149 0581 A6000000 		.4byte	.LVL86
 3150 0585 0100     		.2byte	0x1
 3151 0587 51       		.byte	0x51
 3152 0588 A6000000 		.4byte	.LVL86
 3153 058c E4000000 		.4byte	.LFE1
 3154 0590 0400     		.2byte	0x4
 3155 0592 F3       		.byte	0xf3
 3156 0593 01       		.uleb128 0x1
 3157 0594 51       		.byte	0x51
 3158 0595 9F       		.byte	0x9f
 3159 0596 00000000 		.4byte	0
 3160 059a 00000000 		.4byte	0
 3161              	.LLST27:
 3162 059e 00000000 		.4byte	.LVL68
 3163 05a2 19000000 		.4byte	.LVL71-1
 3164 05a6 0100     		.2byte	0x1
 3165 05a8 52       		.byte	0x52
 3166 05a9 19000000 		.4byte	.LVL71-1
 3167 05ad 26000000 		.4byte	.LVL72
 3168 05b1 0200     		.2byte	0x2
 3169 05b3 91       		.byte	0x91
 3170 05b4 64       		.sleb128 -28
 3171 05b5 26000000 		.4byte	.LVL72
 3172 05b9 34000000 		.4byte	.LVL75
 3173 05bd 0100     		.2byte	0x1
 3174 05bf 52       		.byte	0x52
 3175 05c0 34000000 		.4byte	.LVL75
 3176 05c4 A4000000 		.4byte	.LVL85
 3177 05c8 0200     		.2byte	0x2
 3178 05ca 91       		.byte	0x91
 3179 05cb 64       		.sleb128 -28
 3180 05cc A4000000 		.4byte	.LVL85
 3181 05d0 A6000000 		.4byte	.LVL86
 3182 05d4 0100     		.2byte	0x1
 3183 05d6 52       		.byte	0x52
 3184 05d7 A6000000 		.4byte	.LVL86
 3185 05db E4000000 		.4byte	.LFE1
 3186 05df 0200     		.2byte	0x2
 3187 05e1 91       		.byte	0x91
 3188 05e2 64       		.sleb128 -28
 3189 05e3 00000000 		.4byte	0
 3190 05e7 00000000 		.4byte	0
 3191              	.LLST28:
 3192 05eb 00000000 		.4byte	.LVL68
 3193 05ef 10000000 		.4byte	.LVL69
 3194 05f3 0100     		.2byte	0x1
 3195 05f5 53       		.byte	0x53
ARM GAS  C:\Users\Milo\AppData\Local\Temp\ccfBxLki.s 			page 77


 3196 05f6 10000000 		.4byte	.LVL69
 3197 05fa 4C000000 		.4byte	.LVL77
 3198 05fe 0200     		.2byte	0x2
 3199 0600 91       		.byte	0x91
 3200 0601 60       		.sleb128 -32
 3201 0602 4C000000 		.4byte	.LVL77
 3202 0606 58000000 		.4byte	.LVL78
 3203 060a 0200     		.2byte	0x2
 3204 060c 75       		.byte	0x75
 3205 060d 00       		.sleb128 0
 3206 060e 58000000 		.4byte	.LVL78
 3207 0612 A4000000 		.4byte	.LVL85
 3208 0616 0200     		.2byte	0x2
 3209 0618 91       		.byte	0x91
 3210 0619 60       		.sleb128 -32
 3211 061a A4000000 		.4byte	.LVL85
 3212 061e A6000000 		.4byte	.LVL86
 3213 0622 0100     		.2byte	0x1
 3214 0624 53       		.byte	0x53
 3215 0625 A6000000 		.4byte	.LVL86
 3216 0629 E4000000 		.4byte	.LFE1
 3217 062d 0200     		.2byte	0x2
 3218 062f 91       		.byte	0x91
 3219 0630 60       		.sleb128 -32
 3220 0631 00000000 		.4byte	0
 3221 0635 00000000 		.4byte	0
 3222              	.LLST29:
 3223 0639 00000000 		.4byte	.LVL68
 3224 063d 38000000 		.4byte	.LVL76
 3225 0641 0200     		.2byte	0x2
 3226 0643 34       		.byte	0x34
 3227 0644 9F       		.byte	0x9f
 3228 0645 38000000 		.4byte	.LVL76
 3229 0649 A4000000 		.4byte	.LVL85
 3230 064d 0200     		.2byte	0x2
 3231 064f 30       		.byte	0x30
 3232 0650 9F       		.byte	0x9f
 3233 0651 A4000000 		.4byte	.LVL85
 3234 0655 A6000000 		.4byte	.LVL86
 3235 0659 0200     		.2byte	0x2
 3236 065b 34       		.byte	0x34
 3237 065c 9F       		.byte	0x9f
 3238 065d 00000000 		.4byte	0
 3239 0661 00000000 		.4byte	0
 3240              	.LLST30:
 3241 0665 00000000 		.4byte	.LFB0
 3242 0669 02000000 		.4byte	.LCFI8
 3243 066d 0200     		.2byte	0x2
 3244 066f 7D       		.byte	0x7d
 3245 0670 00       		.sleb128 0
 3246 0671 02000000 		.4byte	.LCFI8
 3247 0675 DC000000 		.4byte	.LFE0
 3248 0679 0200     		.2byte	0x2
 3249 067b 7D       		.byte	0x7d
 3250 067c 20       		.sleb128 32
 3251 067d 00000000 		.4byte	0
 3252 0681 00000000 		.4byte	0
ARM GAS  C:\Users\Milo\AppData\Local\Temp\ccfBxLki.s 			page 78


 3253              	.LLST31:
 3254 0685 00000000 		.4byte	.LVL88
 3255 0689 16000000 		.4byte	.LVL90
 3256 068d 0100     		.2byte	0x1
 3257 068f 50       		.byte	0x50
 3258 0690 16000000 		.4byte	.LVL90
 3259 0694 26000000 		.4byte	.LVL92
 3260 0698 0100     		.2byte	0x1
 3261 069a 57       		.byte	0x57
 3262 069b 26000000 		.4byte	.LVL92
 3263 069f 28000000 		.4byte	.LVL93
 3264 06a3 0100     		.2byte	0x1
 3265 06a5 50       		.byte	0x50
 3266 06a6 28000000 		.4byte	.LVL93
 3267 06aa 3A000000 		.4byte	.LVL97
 3268 06ae 0100     		.2byte	0x1
 3269 06b0 57       		.byte	0x57
 3270 06b1 3A000000 		.4byte	.LVL97
 3271 06b5 3E000000 		.4byte	.LVL98
 3272 06b9 0100     		.2byte	0x1
 3273 06bb 50       		.byte	0x50
 3274 06bc 3E000000 		.4byte	.LVL98
 3275 06c0 68000000 		.4byte	.LVL101
 3276 06c4 0100     		.2byte	0x1
 3277 06c6 57       		.byte	0x57
 3278 06c7 68000000 		.4byte	.LVL101
 3279 06cb 70000000 		.4byte	.LVL102
 3280 06cf 0400     		.2byte	0x4
 3281 06d1 F3       		.byte	0xf3
 3282 06d2 01       		.uleb128 0x1
 3283 06d3 50       		.byte	0x50
 3284 06d4 9F       		.byte	0x9f
 3285 06d5 70000000 		.4byte	.LVL102
 3286 06d9 8E000000 		.4byte	.LVL105
 3287 06dd 0100     		.2byte	0x1
 3288 06df 57       		.byte	0x57
 3289 06e0 8E000000 		.4byte	.LVL105
 3290 06e4 90000000 		.4byte	.LVL106
 3291 06e8 0200     		.2byte	0x2
 3292 06ea 74       		.byte	0x74
 3293 06eb 00       		.sleb128 0
 3294 06ec 90000000 		.4byte	.LVL106
 3295 06f0 98000000 		.4byte	.LVL107
 3296 06f4 0900     		.2byte	0x9
 3297 06f6 F3       		.byte	0xf3
 3298 06f7 01       		.uleb128 0x1
 3299 06f8 50       		.byte	0x50
 3300 06f9 31       		.byte	0x31
 3301 06fa 24       		.byte	0x24
 3302 06fb 08       		.byte	0x8
 3303 06fc FF       		.byte	0xff
 3304 06fd 1A       		.byte	0x1a
 3305 06fe 9F       		.byte	0x9f
 3306 06ff 00000000 		.4byte	0
 3307 0703 00000000 		.4byte	0
 3308              	.LLST32:
 3309 0707 00000000 		.4byte	.LVL88
ARM GAS  C:\Users\Milo\AppData\Local\Temp\ccfBxLki.s 			page 79


 3310 070b 19000000 		.4byte	.LVL91-1
 3311 070f 0100     		.2byte	0x1
 3312 0711 51       		.byte	0x51
 3313 0712 19000000 		.4byte	.LVL91-1
 3314 0716 26000000 		.4byte	.LVL92
 3315 071a 0100     		.2byte	0x1
 3316 071c 55       		.byte	0x55
 3317 071d 26000000 		.4byte	.LVL92
 3318 0721 32000000 		.4byte	.LVL94
 3319 0725 0100     		.2byte	0x1
 3320 0727 51       		.byte	0x51
 3321 0728 32000000 		.4byte	.LVL94
 3322 072c 3A000000 		.4byte	.LVL97
 3323 0730 0100     		.2byte	0x1
 3324 0732 55       		.byte	0x55
 3325 0733 3A000000 		.4byte	.LVL97
 3326 0737 3E000000 		.4byte	.LVL98
 3327 073b 0100     		.2byte	0x1
 3328 073d 51       		.byte	0x51
 3329 073e 3E000000 		.4byte	.LVL98
 3330 0742 52000000 		.4byte	.LVL99
 3331 0746 0100     		.2byte	0x1
 3332 0748 55       		.byte	0x55
 3333 0749 52000000 		.4byte	.LVL99
 3334 074d 85000000 		.4byte	.LVL103-1
 3335 0751 0500     		.2byte	0x5
 3336 0753 03       		.byte	0x3
 3337 0754 00000000 		.4byte	I2C_1_mstrWrBufPtr
 3338 0758 85000000 		.4byte	.LVL103-1
 3339 075c 8A000000 		.4byte	.LVL104
 3340 0760 0400     		.2byte	0x4
 3341 0762 F3       		.byte	0xf3
 3342 0763 01       		.uleb128 0x1
 3343 0764 51       		.byte	0x51
 3344 0765 9F       		.byte	0x9f
 3345 0766 8A000000 		.4byte	.LVL104
 3346 076a 90000000 		.4byte	.LVL106
 3347 076e 0500     		.2byte	0x5
 3348 0770 03       		.byte	0x3
 3349 0771 00000000 		.4byte	I2C_1_mstrWrBufPtr
 3350 0775 90000000 		.4byte	.LVL106
 3351 0779 DC000000 		.4byte	.LFE0
 3352 077d 0400     		.2byte	0x4
 3353 077f F3       		.byte	0xf3
 3354 0780 01       		.uleb128 0x1
 3355 0781 51       		.byte	0x51
 3356 0782 9F       		.byte	0x9f
 3357 0783 00000000 		.4byte	0
 3358 0787 00000000 		.4byte	0
 3359              	.LLST33:
 3360 078b 00000000 		.4byte	.LVL88
 3361 078f 19000000 		.4byte	.LVL91-1
 3362 0793 0100     		.2byte	0x1
 3363 0795 52       		.byte	0x52
 3364 0796 19000000 		.4byte	.LVL91-1
 3365 079a 26000000 		.4byte	.LVL92
 3366 079e 0200     		.2byte	0x2
ARM GAS  C:\Users\Milo\AppData\Local\Temp\ccfBxLki.s 			page 80


 3367 07a0 91       		.byte	0x91
 3368 07a1 64       		.sleb128 -28
 3369 07a2 26000000 		.4byte	.LVL92
 3370 07a6 34000000 		.4byte	.LVL95
 3371 07aa 0100     		.2byte	0x1
 3372 07ac 52       		.byte	0x52
 3373 07ad 34000000 		.4byte	.LVL95
 3374 07b1 3A000000 		.4byte	.LVL97
 3375 07b5 0200     		.2byte	0x2
 3376 07b7 91       		.byte	0x91
 3377 07b8 64       		.sleb128 -28
 3378 07b9 3A000000 		.4byte	.LVL97
 3379 07bd 3E000000 		.4byte	.LVL98
 3380 07c1 0100     		.2byte	0x1
 3381 07c3 52       		.byte	0x52
 3382 07c4 3E000000 		.4byte	.LVL98
 3383 07c8 DC000000 		.4byte	.LFE0
 3384 07cc 0200     		.2byte	0x2
 3385 07ce 91       		.byte	0x91
 3386 07cf 64       		.sleb128 -28
 3387 07d0 00000000 		.4byte	0
 3388 07d4 00000000 		.4byte	0
 3389              	.LLST34:
 3390 07d8 00000000 		.4byte	.LVL88
 3391 07dc 10000000 		.4byte	.LVL89
 3392 07e0 0100     		.2byte	0x1
 3393 07e2 53       		.byte	0x53
 3394 07e3 10000000 		.4byte	.LVL89
 3395 07e7 3A000000 		.4byte	.LVL97
 3396 07eb 0200     		.2byte	0x2
 3397 07ed 91       		.byte	0x91
 3398 07ee 60       		.sleb128 -32
 3399 07ef 3A000000 		.4byte	.LVL97
 3400 07f3 3E000000 		.4byte	.LVL98
 3401 07f7 0100     		.2byte	0x1
 3402 07f9 53       		.byte	0x53
 3403 07fa 3E000000 		.4byte	.LVL98
 3404 07fe 52000000 		.4byte	.LVL99
 3405 0802 0200     		.2byte	0x2
 3406 0804 91       		.byte	0x91
 3407 0805 60       		.sleb128 -32
 3408 0806 52000000 		.4byte	.LVL99
 3409 080a 64000000 		.4byte	.LVL100
 3410 080e 0200     		.2byte	0x2
 3411 0810 75       		.byte	0x75
 3412 0811 00       		.sleb128 0
 3413 0812 64000000 		.4byte	.LVL100
 3414 0816 DC000000 		.4byte	.LFE0
 3415 081a 0200     		.2byte	0x2
 3416 081c 91       		.byte	0x91
 3417 081d 60       		.sleb128 -32
 3418 081e 00000000 		.4byte	0
 3419 0822 00000000 		.4byte	0
 3420              	.LLST35:
 3421 0826 00000000 		.4byte	.LVL88
 3422 082a 38000000 		.4byte	.LVL96
 3423 082e 0200     		.2byte	0x2
ARM GAS  C:\Users\Milo\AppData\Local\Temp\ccfBxLki.s 			page 81


 3424 0830 34       		.byte	0x34
 3425 0831 9F       		.byte	0x9f
 3426 0832 38000000 		.4byte	.LVL96
 3427 0836 3A000000 		.4byte	.LVL97
 3428 083a 0200     		.2byte	0x2
 3429 083c 30       		.byte	0x30
 3430 083d 9F       		.byte	0x9f
 3431 083e 3A000000 		.4byte	.LVL97
 3432 0842 3E000000 		.4byte	.LVL98
 3433 0846 0200     		.2byte	0x2
 3434 0848 34       		.byte	0x34
 3435 0849 9F       		.byte	0x9f
 3436 084a 3E000000 		.4byte	.LVL98
 3437 084e 98000000 		.4byte	.LVL107
 3438 0852 0200     		.2byte	0x2
 3439 0854 30       		.byte	0x30
 3440 0855 9F       		.byte	0x9f
 3441 0856 00000000 		.4byte	0
 3442 085a 00000000 		.4byte	0
 3443              		.section	.debug_aranges,"",%progbits
 3444 0000 84000000 		.4byte	0x84
 3445 0004 0200     		.2byte	0x2
 3446 0006 00000000 		.4byte	.Ldebug_info0
 3447 000a 04       		.byte	0x4
 3448 000b 00       		.byte	0
 3449 000c 0000     		.2byte	0
 3450 000e 0000     		.2byte	0
 3451 0010 00000000 		.4byte	.LFB2
 3452 0014 B8000000 		.4byte	.LFE2-.LFB2
 3453 0018 00000000 		.4byte	.LFB4
 3454 001c 80000000 		.4byte	.LFE4-.LFB4
 3455 0020 00000000 		.4byte	.LFB5
 3456 0024 80000000 		.4byte	.LFE5-.LFB5
 3457 0028 00000000 		.4byte	.LFB6
 3458 002c 80000000 		.4byte	.LFE6-.LFB6
 3459 0030 00000000 		.4byte	.LFB7
 3460 0034 0C000000 		.4byte	.LFE7-.LFB7
 3461 0038 00000000 		.4byte	.LFB8
 3462 003c 0C000000 		.4byte	.LFE8-.LFB8
 3463 0040 00000000 		.4byte	.LFB9
 3464 0044 1C000000 		.4byte	.LFE9-.LFB9
 3465 0048 00000000 		.4byte	.LFB10
 3466 004c 1C000000 		.4byte	.LFE10-.LFB10
 3467 0050 00000000 		.4byte	.LFB11
 3468 0054 1C000000 		.4byte	.LFE11-.LFB11
 3469 0058 00000000 		.4byte	.LFB12
 3470 005c 10000000 		.4byte	.LFE12-.LFB12
 3471 0060 00000000 		.4byte	.LFB13
 3472 0064 90000000 		.4byte	.LFE13-.LFB13
 3473 0068 00000000 		.4byte	.LFB3
 3474 006c A8000000 		.4byte	.LFE3-.LFB3
 3475 0070 00000000 		.4byte	.LFB1
 3476 0074 E4000000 		.4byte	.LFE1-.LFB1
 3477 0078 00000000 		.4byte	.LFB0
 3478 007c DC000000 		.4byte	.LFE0-.LFB0
 3479 0080 00000000 		.4byte	0
 3480 0084 00000000 		.4byte	0
ARM GAS  C:\Users\Milo\AppData\Local\Temp\ccfBxLki.s 			page 82


 3481              		.section	.debug_ranges,"",%progbits
 3482              	.Ldebug_ranges0:
 3483 0000 00000000 		.4byte	.LFB2
 3484 0004 B8000000 		.4byte	.LFE2
 3485 0008 00000000 		.4byte	.LFB4
 3486 000c 80000000 		.4byte	.LFE4
 3487 0010 00000000 		.4byte	.LFB5
 3488 0014 80000000 		.4byte	.LFE5
 3489 0018 00000000 		.4byte	.LFB6
 3490 001c 80000000 		.4byte	.LFE6
 3491 0020 00000000 		.4byte	.LFB7
 3492 0024 0C000000 		.4byte	.LFE7
 3493 0028 00000000 		.4byte	.LFB8
 3494 002c 0C000000 		.4byte	.LFE8
 3495 0030 00000000 		.4byte	.LFB9
 3496 0034 1C000000 		.4byte	.LFE9
 3497 0038 00000000 		.4byte	.LFB10
 3498 003c 1C000000 		.4byte	.LFE10
 3499 0040 00000000 		.4byte	.LFB11
 3500 0044 1C000000 		.4byte	.LFE11
 3501 0048 00000000 		.4byte	.LFB12
 3502 004c 10000000 		.4byte	.LFE12
 3503 0050 00000000 		.4byte	.LFB13
 3504 0054 90000000 		.4byte	.LFE13
 3505 0058 00000000 		.4byte	.LFB3
 3506 005c A8000000 		.4byte	.LFE3
 3507 0060 00000000 		.4byte	.LFB1
 3508 0064 E4000000 		.4byte	.LFE1
 3509 0068 00000000 		.4byte	.LFB0
 3510 006c DC000000 		.4byte	.LFE0
 3511 0070 00000000 		.4byte	0
 3512 0074 00000000 		.4byte	0
 3513              		.section	.debug_line,"",%progbits
 3514              	.Ldebug_line0:
 3515 0000 E1020000 		.section	.debug_str,"MS",%progbits,1
 3515      02008B00 
 3515      00000201 
 3515      FB0E0D00 
 3515      01010101 
 3516              	.LASF57:
 3517 0000 433A5C55 		.ascii	"C:\\Users\\Milo\\Documents\\PSoC Creator\\DPI_Deskt"
 3517      73657273 
 3517      5C4D696C 
 3517      6F5C446F 
 3517      63756D65 
 3518 002e 6F705F54 		.ascii	"op_Tester\\Desktop_Tool_Emulator.cydsn\000"
 3518      65737465 
 3518      725C4465 
 3518      736B746F 
 3518      705F546F 
 3519              	.LASF54:
 3520 0054 4932435F 		.ascii	"I2C_1_scl_Read\000"
 3520      315F7363 
 3520      6C5F5265 
 3520      616400
 3521              	.LASF28:
 3522 0063 4932435F 		.ascii	"I2C_1_I2CMasterGetWriteBufSize\000"
ARM GAS  C:\Users\Milo\AppData\Local\Temp\ccfBxLki.s 			page 83


 3522      315F4932 
 3522      434D6173 
 3522      74657247 
 3522      65745772 
 3523              	.LASF32:
 3524 0082 73746174 		.ascii	"status\000"
 3524      757300
 3525              	.LASF45:
 3526 0089 4932435F 		.ascii	"I2C_1_mstrRdBufIndex\000"
 3526      315F6D73 
 3526      74725264 
 3526      42756649 
 3526      6E646578 
 3527              	.LASF42:
 3528 009e 4932435F 		.ascii	"I2C_1_mstrControl\000"
 3528      315F6D73 
 3528      7472436F 
 3528      6E74726F 
 3528      6C00
 3529              	.LASF46:
 3530 00b0 4932435F 		.ascii	"I2C_1_mstrWrBufPtr\000"
 3530      315F6D73 
 3530      74725772 
 3530      42756650 
 3530      747200
 3531              	.LASF3:
 3532 00c3 73686F72 		.ascii	"short unsigned int\000"
 3532      7420756E 
 3532      7369676E 
 3532      65642069 
 3532      6E7400
 3533              	.LASF14:
 3534 00d6 63686172 		.ascii	"char\000"
 3534      00
 3535              	.LASF47:
 3536 00db 4932435F 		.ascii	"I2C_1_mstrWrBufSize\000"
 3536      315F6D73 
 3536      74725772 
 3536      42756653 
 3536      697A6500 
 3537              	.LASF41:
 3538 00ef 4932435F 		.ascii	"I2C_1_mstrStatus\000"
 3538      315F6D73 
 3538      74725374 
 3538      61747573 
 3538      00
 3539              	.LASF19:
 3540 0100 72657365 		.ascii	"resetIp\000"
 3540      74497000 
 3541              	.LASF53:
 3542 0108 4932435F 		.ascii	"I2C_1_sda_Read\000"
 3542      315F7364 
 3542      615F5265 
 3542      616400
 3543              	.LASF29:
 3544 0117 4932435F 		.ascii	"I2C_1_I2CMasterClearReadBuf\000"
 3544      315F4932 
ARM GAS  C:\Users\Milo\AppData\Local\Temp\ccfBxLki.s 			page 84


 3544      434D6173 
 3544      74657243 
 3544      6C656172 
 3545              	.LASF12:
 3546 0133 666C6F61 		.ascii	"float\000"
 3546      7400
 3547              	.LASF1:
 3548 0139 756E7369 		.ascii	"unsigned char\000"
 3548      676E6564 
 3548      20636861 
 3548      7200
 3549              	.LASF56:
 3550 0147 2E5C4765 		.ascii	".\\Generated_Source\\PSoC4\\I2C_1_I2C_MASTER.c\000"
 3550      6E657261 
 3550      7465645F 
 3550      536F7572 
 3550      63655C50 
 3551              	.LASF23:
 3552 0173 4932435F 		.ascii	"I2C_1_I2CMasterWriteByte\000"
 3552      315F4932 
 3552      434D6173 
 3552      74657257 
 3552      72697465 
 3553              	.LASF5:
 3554 018c 6C6F6E67 		.ascii	"long unsigned int\000"
 3554      20756E73 
 3554      69676E65 
 3554      6420696E 
 3554      7400
 3555              	.LASF33:
 3556 019e 4932435F 		.ascii	"I2C_1_I2CMasterClearStatus\000"
 3556      315F4932 
 3556      434D6173 
 3556      74657243 
 3556      6C656172 
 3557              	.LASF9:
 3558 01b9 75696E74 		.ascii	"uint8\000"
 3558      3800
 3559              	.LASF26:
 3560 01bf 61636B4E 		.ascii	"ackNack\000"
 3560      61636B00 
 3561              	.LASF20:
 3562 01c7 65727253 		.ascii	"errStatus\000"
 3562      74617475 
 3562      7300
 3563              	.LASF13:
 3564 01d1 646F7562 		.ascii	"double\000"
 3564      6C6500
 3565              	.LASF30:
 3566 01d8 4932435F 		.ascii	"I2C_1_I2CMasterClearWriteBuf\000"
 3566      315F4932 
 3566      434D6173 
 3566      74657243 
 3566      6C656172 
 3567              	.LASF18:
 3568 01f5 62697452 		.ascii	"bitRnW\000"
 3568      6E5700
ARM GAS  C:\Users\Milo\AppData\Local\Temp\ccfBxLki.s 			page 85


 3569              	.LASF58:
 3570 01fc 4932435F 		.ascii	"I2C_1_I2CReStartGeneration\000"
 3570      315F4932 
 3570      43526553 
 3570      74617274 
 3570      47656E65 
 3571              	.LASF59:
 3572 0217 4379496E 		.ascii	"CyIntEnable\000"
 3572      74456E61 
 3572      626C6500 
 3573              	.LASF49:
 3574 0223 4932435F 		.ascii	"I2C_1_mstrWrBufIndexTmp\000"
 3574      315F6D73 
 3574      74725772 
 3574      42756649 
 3574      6E646578 
 3575              	.LASF10:
 3576 023b 75696E74 		.ascii	"uint16\000"
 3576      313600
 3577              	.LASF31:
 3578 0242 4932435F 		.ascii	"I2C_1_I2CMasterStatus\000"
 3578      315F4932 
 3578      434D6173 
 3578      74657253 
 3578      74617475 
 3579              	.LASF36:
 3580 0258 72644461 		.ascii	"rdData\000"
 3580      746100
 3581              	.LASF11:
 3582 025f 75696E74 		.ascii	"uint32\000"
 3582      333200
 3583              	.LASF40:
 3584 0266 4932435F 		.ascii	"I2C_1_state\000"
 3584      315F7374 
 3584      61746500 
 3585              	.LASF8:
 3586 0272 756E7369 		.ascii	"unsigned int\000"
 3586      676E6564 
 3586      20696E74 
 3586      00
 3587              	.LASF39:
 3588 027f 77724461 		.ascii	"wrData\000"
 3588      746100
 3589              	.LASF7:
 3590 0286 6C6F6E67 		.ascii	"long long unsigned int\000"
 3590      206C6F6E 
 3590      6720756E 
 3590      7369676E 
 3590      65642069 
 3591              	.LASF21:
 3592 029d 4932435F 		.ascii	"I2C_1_I2CMasterSendStart\000"
 3592      315F4932 
 3592      434D6173 
 3592      74657253 
 3592      656E6453 
 3593              	.LASF37:
 3594 02b6 6D6F6465 		.ascii	"mode\000"
ARM GAS  C:\Users\Milo\AppData\Local\Temp\ccfBxLki.s 			page 86


 3594      00
 3595              	.LASF17:
 3596 02bb 736C6176 		.ascii	"slaveAddress\000"
 3596      65416464 
 3596      72657373 
 3596      00
 3597              	.LASF44:
 3598 02c8 4932435F 		.ascii	"I2C_1_mstrRdBufSize\000"
 3598      315F6D73 
 3598      74725264 
 3598      42756653 
 3598      697A6500 
 3599              	.LASF25:
 3600 02dc 4932435F 		.ascii	"I2C_1_I2CMasterReadByte\000"
 3600      315F4932 
 3600      434D6173 
 3600      74657252 
 3600      65616442 
 3601              	.LASF16:
 3602 02f4 73697A65 		.ascii	"sizetype\000"
 3602      74797065 
 3602      00
 3603              	.LASF6:
 3604 02fd 6C6F6E67 		.ascii	"long long int\000"
 3604      206C6F6E 
 3604      6720696E 
 3604      7400
 3605              	.LASF52:
 3606 030b 43794465 		.ascii	"CyDelayUs\000"
 3606      6C617955 
 3606      7300
 3607              	.LASF22:
 3608 0315 4932435F 		.ascii	"I2C_1_I2CMasterSendStop\000"
 3608      315F4932 
 3608      434D6173 
 3608      74657253 
 3608      656E6453 
 3609              	.LASF43:
 3610 032d 4932435F 		.ascii	"I2C_1_mstrRdBufPtr\000"
 3610      315F6D73 
 3610      74725264 
 3610      42756650 
 3610      747200
 3611              	.LASF50:
 3612 0340 4379496E 		.ascii	"CyIntDisable\000"
 3612      74446973 
 3612      61626C65 
 3612      00
 3613              	.LASF27:
 3614 034d 4932435F 		.ascii	"I2C_1_I2CMasterGetReadBufSize\000"
 3614      315F4932 
 3614      434D6173 
 3614      74657247 
 3614      65745265 
 3615              	.LASF2:
 3616 036b 73686F72 		.ascii	"short int\000"
 3616      7420696E 
ARM GAS  C:\Users\Milo\AppData\Local\Temp\ccfBxLki.s 			page 87


 3616      7400
 3617              	.LASF24:
 3618 0375 74686542 		.ascii	"theByte\000"
 3618      79746500 
 3619              	.LASF55:
 3620 037d 474E5520 		.ascii	"GNU C 4.7.3 20130312 (release) [ARM/embedded-4_7-br"
 3620      4320342E 
 3620      372E3320 
 3620      32303133 
 3620      30333132 
 3621 03b0 616E6368 		.ascii	"anch revision 196615]\000"
 3621      20726576 
 3621      6973696F 
 3621      6E203139 
 3621      36363135 
 3622              	.LASF48:
 3623 03c6 4932435F 		.ascii	"I2C_1_mstrWrBufIndex\000"
 3623      315F6D73 
 3623      74725772 
 3623      42756649 
 3623      6E646578 
 3624              	.LASF4:
 3625 03db 6C6F6E67 		.ascii	"long int\000"
 3625      20696E74 
 3625      00
 3626              	.LASF15:
 3627 03e4 72656733 		.ascii	"reg32\000"
 3627      3200
 3628              	.LASF51:
 3629 03ea 4932435F 		.ascii	"I2C_1_scl_Write\000"
 3629      315F7363 
 3629      6C5F5772 
 3629      69746500 
 3630              	.LASF0:
 3631 03fa 7369676E 		.ascii	"signed char\000"
 3631      65642063 
 3631      68617200 
 3632              	.LASF34:
 3633 0406 4932435F 		.ascii	"I2C_1_I2CMasterSendRestart\000"
 3633      315F4932 
 3633      434D6173 
 3633      74657253 
 3633      656E6452 
 3634              	.LASF35:
 3635 0421 4932435F 		.ascii	"I2C_1_I2CMasterReadBuf\000"
 3635      315F4932 
 3635      434D6173 
 3635      74657252 
 3635      65616442 
 3636              	.LASF38:
 3637 0438 4932435F 		.ascii	"I2C_1_I2CMasterWriteBuf\000"
 3637      315F4932 
 3637      434D6173 
 3637      74657257 
 3637      72697465 
 3638              		.ident	"GCC: (GNU Tools for ARM Embedded Processors) 4.7.3 20130312 (release) [ARM/embedded-4_7-br
