ARM GAS  C:\Users\Milo\AppData\Local\Temp\cc85A6Bb.s 			page 1


   1              		.cpu cortex-m0
   2              		.fpu softvfp
   3              		.eabi_attribute 20, 1
   4              		.eabi_attribute 21, 1
   5              		.eabi_attribute 23, 3
   6              		.eabi_attribute 24, 1
   7              		.eabi_attribute 25, 1
   8              		.eabi_attribute 26, 1
   9              		.eabi_attribute 30, 4
  10              		.eabi_attribute 34, 0
  11              		.eabi_attribute 18, 4
  12              		.code	16
  13              		.file	"main.c"
  14              		.text
  15              	.Ltext0:
  16              		.cfi_sections	.debug_frame
  17              		.section	.text.startup.main,"ax",%progbits
  18              		.align	1
  19              		.global	main
  20              		.code	16
  21              		.thumb_func
  22              		.type	main, %function
  23              	main:
  24              	.LFB33:
  25              		.file 1 ".\\main.c"
   1:.\main.c      **** /* ========================================
   2:.\main.c      ****  *
   3:.\main.c      ****  * Copyright YOUR COMPANY, THE YEAR
   4:.\main.c      ****  * All Rights Reserved
   5:.\main.c      ****  * UNPUBLISHED, LICENSED SOFTWARE.
   6:.\main.c      ****  *
   7:.\main.c      ****  * CONFIDENTIAL AND PROPRIETARY INFORMATION
   8:.\main.c      ****  * WHICH IS THE PROPERTY OF your company.
   9:.\main.c      ****  *
  10:.\main.c      ****  * ========================================
  11:.\main.c      **** */
  12:.\main.c      **** #include <project.h>
  13:.\main.c      **** #include <stdio.h>
  14:.\main.c      **** 
  15:.\main.c      **** uint8 i2c_write(uint8 subAddr, uint8 *buffer, uint8 buff_size);
  16:.\main.c      **** uint8 i2c_read(uint8 subAddr, uint8 *buffer, uint8 buff_size);
  17:.\main.c      **** void spi_read( uint8 reg, uint8 *buffer);
  18:.\main.c      **** void configure();
  19:.\main.c      **** 
  20:.\main.c      **** 
  21:.\main.c      **** const int ADDRESS = 0x0E;
  22:.\main.c      **** int main()
  23:.\main.c      **** {
  26              		.loc 1 23 0
  27              		.cfi_startproc
  28              	.LVL0:
  29 0000 13B5     		push	{r0, r1, r4, lr}
  30              	.LCFI0:
  31              		.cfi_def_cfa_offset 16
  32              		.cfi_offset 0, -16
  33              		.cfi_offset 1, -12
  34              		.cfi_offset 4, -8
ARM GAS  C:\Users\Milo\AppData\Local\Temp\cc85A6Bb.s 			page 2


  35              		.cfi_offset 14, -4
  24:.\main.c      ****     /* Place your initialization/startup code here (e.g. MyInst_Start()) */
  25:.\main.c      **** 	uint8 array[6]={1,2,3,1,2,3};
  26:.\main.c      **** 	uint8 array2[6]={1,2,3,1,2,3};
  27:.\main.c      **** 	int16 x = 6;
  28:.\main.c      **** 	int16 y = 7;
  29:.\main.c      **** 	int16 z = 8;
  30:.\main.c      **** 	int16 ax = 9;
  31:.\main.c      **** 	int16 ay =0;
  32:.\main.c      **** 	int16 az;
  33:.\main.c      **** 	
  34:.\main.c      **** 	char *buffer;
  35:.\main.c      **** 	int n;
  36:.\main.c      **** 	
  37:.\main.c      **** 	//I2C_1_Start();
  38:.\main.c      **** 	UART_1_Start();
  36              		.loc 1 38 0
  37 0002 FFF7FEFF 		bl	UART_1_Start
  38              	.LVL1:
  39:.\main.c      **** 	//SPIM_1_Start();
  40:.\main.c      ****     CyGlobalIntEnable;  /* Uncomment this line to enable global interrupts. */
  39              		.loc 1 40 0
  40              	@ 40 ".\main.c" 1
  41 0006 62B6     		CPSIE   i
  42              	@ 0 "" 2
  43              	.LVL2:
  44              		.code	16
  45              	.L2:
  41:.\main.c      **** 	//configure();
  42:.\main.c      ****     for(;;)
  43:.\main.c      ****     {
  44:.\main.c      ****     	
  45:.\main.c      **** 		//i2c_read(0x1u,array, 6);
  46:.\main.c      **** 		//spi_read(0x28,array2);
  47:.\main.c      **** 		x = (array[0] << 8)|array[1];
  48:.\main.c      **** 		y = (array[2] << 8)|array[3];
  49:.\main.c      **** 		z = (array[4] << 8)|array[5];
  50:.\main.c      **** 		
  51:.\main.c      **** 		ax = (array2[1] << 8)|array2[0];
  52:.\main.c      **** 		ay = (array2[3] << 8)|array2[2];
  53:.\main.c      **** 		az = (array2[5] << 8)|array2[4];
  54:.\main.c      **** 		CyDelay(1000);
  46              		.loc 1 54 0 discriminator 1
  47 0008 FA20     		mov	r0, #250
  48 000a 8000     		lsl	r0, r0, #2
  49 000c FFF7FEFF 		bl	CyDelay
  50              	.LVL3:
  55:.\main.c      **** 		UART_1_UartPutString("MAG: \n\r");
  51              		.loc 1 55 0 discriminator 1
  52 0010 0948     		ldr	r0, .L4
  53 0012 FFF7FEFF 		bl	UART_1_UartPutString
  54              	.LVL4:
  56:.\main.c      **** 		//n=sprintf(buffer, "X: %d \nY: %d \nZ: %d \n",(int)x,(int)y,(int)z);
  57:.\main.c      **** 		//UART_1_SpiUartPutArray(buffer, n);
  58:.\main.c      **** 		UART_1_UartPutString("ACC: \n\r");
  55              		.loc 1 58 0 discriminator 1
  56 0016 0948     		ldr	r0, .L4+4
ARM GAS  C:\Users\Milo\AppData\Local\Temp\cc85A6Bb.s 			page 3


  57 0018 FFF7FEFF 		bl	UART_1_UartPutString
  58              	.LVL5:
  59:.\main.c      **** 		n=sprintf(buffer, "X: %d \nY: %d \nZ: %d \n\r ",ax,ay,az);
  59              		.loc 1 59 0 discriminator 1
  60 001c 084B     		ldr	r3, .L4+8
  61 001e 0024     		mov	r4, #0
  62 0020 0093     		str	r3, [sp]
  63 0022 201C     		mov	r0, r4
  64 0024 0749     		ldr	r1, .L4+12
  65 0026 084A     		ldr	r2, .L4+16
  66 0028 084B     		ldr	r3, .L4+20
  67 002a FFF7FEFF 		bl	sprintf
  68              	.LVL6:
  69 002e 011C     		mov	r1, r0
  70              	.LVL7:
  60:.\main.c      **** 		UART_1_SpiUartPutArray(buffer, n);
  71              		.loc 1 60 0 discriminator 1
  72 0030 201C     		mov	r0, r4
  73              	.LVL8:
  74 0032 FFF7FEFF 		bl	UART_1_SpiUartPutArray
  75              	.LVL9:
  76 0036 E7E7     		b	.L2
  77              	.L5:
  78              		.align	2
  79              	.L4:
  80 0038 00000000 		.word	.LC1
  81 003c 08000000 		.word	.LC3
  82 0040 02030000 		.word	770
  83 0044 10000000 		.word	.LC5
  84 0048 01020000 		.word	513
  85 004c 03010000 		.word	259
  86              		.cfi_endproc
  87              	.LFE33:
  88              		.size	main, .-main
  89              		.section	.text.i2c_write,"ax",%progbits
  90              		.align	1
  91              		.global	i2c_write
  92              		.code	16
  93              		.thumb_func
  94              		.type	i2c_write, %function
  95              	i2c_write:
  96              	.LFB34:
  61:.\main.c      ****     }
  62:.\main.c      **** }
  63:.\main.c      **** uint8 i2c_write(uint8 subAddr, uint8 *buffer, uint8 buff_size) {
  97              		.loc 1 63 0
  98              		.cfi_startproc
  99              	.LVL10:
 100 0000 F0B5     		push	{r4, r5, r6, r7, lr}
 101              	.LCFI1:
 102              		.cfi_def_cfa_offset 20
 103              		.cfi_offset 4, -20
 104              		.cfi_offset 5, -16
 105              		.cfi_offset 6, -12
 106              		.cfi_offset 7, -8
 107              		.cfi_offset 14, -4
 108 0002 85B0     		sub	sp, sp, #20
ARM GAS  C:\Users\Milo\AppData\Local\Temp\cc85A6Bb.s 			page 4


 109              	.LCFI2:
 110              		.cfi_def_cfa_offset 40
 111              		.loc 1 63 0
 112 0004 0E1C     		mov	r6, r1
 113 0006 171C     		mov	r7, r2
 114 0008 051C     		mov	r5, r0
  64:.\main.c      **** 
  65:.\main.c      **** 	int i;
  66:.\main.c      **** 	uint8 status;
  67:.\main.c      **** 	char array[10];
  68:.\main.c      **** 	I2C_1_I2CMasterClearStatus();
 115              		.loc 1 68 0
 116 000a FFF7FEFF 		bl	I2C_1_I2CMasterClearStatus
 117              	.LVL11:
  69:.\main.c      **** 
  70:.\main.c      **** 	
  71:.\main.c      **** 	//Set subaddr
  72:.\main.c      **** 	status = I2C_1_I2CMasterSendStart(ADDRESS, 0);
 118              		.loc 1 72 0
 119 000e 0E20     		mov	r0, #14
 120 0010 0021     		mov	r1, #0
 121 0012 FFF7FEFF 		bl	I2C_1_I2CMasterSendStart
 122              	.LVL12:
 123 0016 C4B2     		uxtb	r4, r0
 124              	.LVL13:
  73:.\main.c      **** 	if (status != I2C_1_I2C_MSTR_NO_ERROR) {
 125              		.loc 1 73 0
 126 0018 002C     		cmp	r4, #0
 127 001a 03D0     		beq	.L7
  74:.\main.c      **** 		i= sprintf(array, "Error 1.1: %d \n",status);
  75:.\main.c      **** 		UART_1_UartPutString(array);;
  76:.\main.c      **** 		return status;
  77:.\main.c      **** 	}
  78:.\main.c      ****    
  79:.\main.c      ****      
  80:.\main.c      **** 	status = I2C_1_I2CMasterWriteByte(subAddr);
  81:.\main.c      **** 	if (status != I2C_1_I2C_MSTR_NO_ERROR) {
  82:.\main.c      **** 		i= sprintf(array, "Error 1.2: %d \n",status);
  83:.\main.c      **** 		UART_1_UartPutString(array);
  84:.\main.c      **** 		return status;
  85:.\main.c      **** 	}
  86:.\main.c      ****                
  87:.\main.c      **** 	for (i=0;i<buff_size;i++) {
  88:.\main.c      **** 		status = I2C_1_I2CMasterWriteByte(buffer[i]);
  89:.\main.c      **** 		if (status != I2C_1_I2C_MSTR_NO_ERROR) {
  90:.\main.c      **** 			return status;
  91:.\main.c      **** 			i= sprintf(array, "Error 1.3: %d \n",status);
  92:.\main.c      **** 			UART_1_UartPutString(array);
  93:.\main.c      **** 		}
  94:.\main.c      **** 	}
  95:.\main.c      ****                   
  96:.\main.c      **** 		status = I2C_1_I2CMasterSendStop();
  97:.\main.c      **** 	if (status != I2C_1_I2C_MSTR_NO_ERROR) {
  98:.\main.c      **** 		return status;
  99:.\main.c      **** 		i= sprintf(array, "Error 1.4: %d \n",status);
 100:.\main.c      **** 		UART_1_UartPutString(array);
 101:.\main.c      **** 	}   
ARM GAS  C:\Users\Milo\AppData\Local\Temp\cc85A6Bb.s 			page 5


 102:.\main.c      **** 	return status;
 103:.\main.c      **** }
 104:.\main.c      **** uint8 i2c_read(uint8 subAddr, uint8 *buffer, uint8 buff_size) {
 105:.\main.c      **** 
 106:.\main.c      **** 	uint8 status;
 107:.\main.c      **** 	int i;
 108:.\main.c      **** 	char array[12];
 109:.\main.c      **** 	
 110:.\main.c      **** 	I2C_1_I2CMasterClearStatus();
 111:.\main.c      ****     //UART_1_PutString("make it here?  \n"); 
 112:.\main.c      **** 	//Set subaddr
 113:.\main.c      **** 	status = I2C_1_I2CMasterSendStart(ADDRESS, 0);
 114:.\main.c      **** 	if (status != I2C_1_I2C_MSTR_NO_ERROR) {
 115:.\main.c      **** 		i= sprintf(array, "Error 2.1: %d \n",status);
 116:.\main.c      **** 		UART_1_UartPutString(array);
 117:.\main.c      **** 		return status;
 118:.\main.c      **** 	}
 119:.\main.c      ****            
 120:.\main.c      **** 	///buffer[0] = I2C_1_I2CMasterReadByte(0);
 121:.\main.c      ****                    
 122:.\main.c      **** 	status = I2C_1_I2CMasterWriteByte(subAddr);
 123:.\main.c      **** 	if (status != I2C_1_I2C_MSTR_NO_ERROR) {
 124:.\main.c      **** 		return status;
 125:.\main.c      **** 	}
 126:.\main.c      **** 	UART_1_UartPutString("make it here?  \n\r"); 
 127:.\main.c      **** 	I2C_1_I2CMasterReadBuf(ADDRESS,buffer,buff_size,(I2C_1_I2C_MODE_REPEAT_START | I2C_1_I2C_MODE_COMP
 128:.\main.c      ****                
 129:.\main.c      **** //	status = I2C_1_I2CMasterSendRestart(ADDRESS, 1);
 130:.\main.c      **** //	if (status != I2C_1_I2C_MSTR_NO_ERROR) {
 131:.\main.c      **** //		return status;
 132:.\main.c      **** //	}               
 133:.\main.c      **** //               
 134:.\main.c      **** //	for (i=0;i<buff_size;i++) {
 135:.\main.c      **** //		buffer[i] = I2C_1_I2CMasterReadByte( (i<(buff_size-1) ) );
 136:.\main.c      **** //	}
 137:.\main.c      ****  
 138:.\main.c      **** 	status = I2C_1_I2CMasterSendStop();
 139:.\main.c      **** 	if (status != I2C_1_I2C_MSTR_NO_ERROR) {
 140:.\main.c      ****         return status;
 141:.\main.c      ****  	}  
 142:.\main.c      **** 	return 0;
 143:.\main.c      **** }
 144:.\main.c      **** void configure()
 145:.\main.c      **** {
 146:.\main.c      **** 	uint8 array[2];
 147:.\main.c      **** 	Pin_4_Write(1);
 148:.\main.c      **** 	array [0] = 0x80;
 149:.\main.c      **** 	i2c_write(0x11,array,1);
 150:.\main.c      **** 	
 151:.\main.c      **** 	array [0] = 1;
 152:.\main.c      **** 	i2c_write(0x10,array,1);
 153:.\main.c      **** 	
 154:.\main.c      **** 	Pin_4_Write(0);
 155:.\main.c      **** 	CyDelay(10);
 156:.\main.c      **** 	SPIM_1_WriteTxData(0x20);
 157:.\main.c      **** 	SPIM_1_WriteTxData(0x37);
 158:.\main.c      **** 	Pin_4_Write(1);
ARM GAS  C:\Users\Milo\AppData\Local\Temp\cc85A6Bb.s 			page 6


 159:.\main.c      **** 	CyDelay(100);
 160:.\main.c      **** 	
 161:.\main.c      **** 	Pin_4_Write(0);
 162:.\main.c      **** 	CyDelay(10);
 163:.\main.c      **** 	SPIM_1_WriteTxData(0x21);
 164:.\main.c      **** 	SPIM_1_WriteTxData(0x00);
 165:.\main.c      **** 	Pin_4_Write(1);
 166:.\main.c      **** 	CyDelay(100);
 167:.\main.c      **** 	
 168:.\main.c      **** 	Pin_4_Write(0);
 169:.\main.c      **** 	CyDelay(10);
 170:.\main.c      **** 	SPIM_1_WriteTxData(0x22);
 171:.\main.c      **** 	SPIM_1_WriteTxData(0x00);
 172:.\main.c      **** 	Pin_4_Write(1);
 173:.\main.c      **** 	CyDelay(100);
 174:.\main.c      **** 	
 175:.\main.c      **** 	Pin_4_Write(0);
 176:.\main.c      **** 	CyDelay(10);
 177:.\main.c      **** 	SPIM_1_WriteTxData(0x23);
 178:.\main.c      **** 	SPIM_1_WriteTxData(0x30);
 179:.\main.c      **** 	Pin_4_Write(1);
 180:.\main.c      **** 	CyDelay(100);
 181:.\main.c      **** 
 182:.\main.c      **** }
 183:.\main.c      **** void spi_read(uint8 reg, uint8 *buffer)
 184:.\main.c      **** {
 185:.\main.c      **** 	uint8 array[6];
 186:.\main.c      **** 	reg = 0xC0 | reg;
 187:.\main.c      **** 	Pin_4_Write(0);
 188:.\main.c      **** 	CyDelay(10);
 189:.\main.c      **** 	SPIM_1_WriteTxData(reg);
 190:.\main.c      **** 	SPIM_1_WriteTxData(0x00);
 191:.\main.c      **** 	array[0] = SPIM_1_ReadRxData();
 192:.\main.c      **** 	SPIM_1_WriteTxData(0x00);
 193:.\main.c      **** 	array[1] = SPIM_1_ReadRxData();
 194:.\main.c      **** 	SPIM_1_WriteTxData(0x00);
 195:.\main.c      **** 	array[2] = SPIM_1_ReadRxData();
 196:.\main.c      **** 	SPIM_1_WriteTxData(0x00);
 197:.\main.c      **** 	array[3] = SPIM_1_ReadRxData();
 198:.\main.c      **** 	SPIM_1_WriteTxData(0x00);
 199:.\main.c      **** 	array[4] = SPIM_1_ReadRxData();
 200:.\main.c      **** 	SPIM_1_WriteTxData(0x00);
 201:.\main.c      **** 	array[5] = SPIM_1_ReadRxData();
 202:.\main.c      **** 	Pin_4_Write(1);
 203:.\main.c      **** 	buffer = array;
 204:.\main.c      **** }
 128              		.loc 1 204 0
 129 001c C2B2     		uxtb	r2, r0
  74:.\main.c      **** 		i= sprintf(array, "Error 1.1: %d \n",status);
 130              		.loc 1 74 0
 131 001e 1249     		ldr	r1, .L15
 132 0020 01A8     		add	r0, sp, #4
 133              	.LVL14:
 134 0022 18E0     		b	.L13
 135              	.LVL15:
 136              	.L7:
  80:.\main.c      **** 	status = I2C_1_I2CMasterWriteByte(subAddr);
ARM GAS  C:\Users\Milo\AppData\Local\Temp\cc85A6Bb.s 			page 7


 137              		.loc 1 80 0
 138 0024 281C     		mov	r0, r5
 139              	.LVL16:
 140 0026 FFF7FEFF 		bl	I2C_1_I2CMasterWriteByte
 141              	.LVL17:
 142 002a C4B2     		uxtb	r4, r0
 143              	.LVL18:
  81:.\main.c      **** 	if (status != I2C_1_I2C_MSTR_NO_ERROR) {
 144              		.loc 1 81 0
 145 002c 002C     		cmp	r4, #0
 146 002e 0FD1     		bne	.L9
 147 0030 351C     		mov	r5, r6
 148              	.LVL19:
 149              	.L10:
 150              	.LBB4:
 151              	.LBB5:
  63:.\main.c      **** uint8 i2c_write(uint8 subAddr, uint8 *buffer, uint8 buff_size) {
 152              		.loc 1 63 0
 153 0032 AB1B     		sub	r3, r5, r6
  87:.\main.c      **** 	for (i=0;i<buff_size;i++) {
 154              		.loc 1 87 0
 155 0034 BB42     		cmp	r3, r7
 156 0036 07DA     		bge	.L14
 157              	.L12:
  88:.\main.c      **** 		status = I2C_1_I2CMasterWriteByte(buffer[i]);
 158              		.loc 1 88 0
 159 0038 2878     		ldrb	r0, [r5]
 160 003a FFF7FEFF 		bl	I2C_1_I2CMasterWriteByte
 161              	.LVL20:
 162 003e C4B2     		uxtb	r4, r0
 163              	.LVL21:
 164 0040 0135     		add	r5, r5, #1
  89:.\main.c      **** 		if (status != I2C_1_I2C_MSTR_NO_ERROR) {
 165              		.loc 1 89 0
 166 0042 002C     		cmp	r4, #0
 167 0044 F5D0     		beq	.L10
 168 0046 0BE0     		b	.L8
 169              	.LVL22:
 170              	.L14:
  96:.\main.c      **** 		status = I2C_1_I2CMasterSendStop();
 171              		.loc 1 96 0
 172 0048 FFF7FEFF 		bl	I2C_1_I2CMasterSendStop
 173              	.LVL23:
 174 004c C4B2     		uxtb	r4, r0
 175              	.LVL24:
 176 004e 07E0     		b	.L8
 177              	.LVL25:
 178              	.L9:
 179              	.LBE5:
 180              	.LBE4:
  82:.\main.c      **** 		i= sprintf(array, "Error 1.2: %d \n",status);
 181              		.loc 1 82 0
 182 0050 0649     		ldr	r1, .L15+4
 183              		.loc 1 204 0
 184 0052 C2B2     		uxtb	r2, r0
  82:.\main.c      **** 		i= sprintf(array, "Error 1.2: %d \n",status);
 185              		.loc 1 82 0
ARM GAS  C:\Users\Milo\AppData\Local\Temp\cc85A6Bb.s 			page 8


 186 0054 01A8     		add	r0, sp, #4
 187              	.LVL26:
 188              	.L13:
 189 0056 FFF7FEFF 		bl	sprintf
 190              	.LVL27:
  83:.\main.c      **** 		UART_1_UartPutString(array);
 191              		.loc 1 83 0
 192 005a 01A8     		add	r0, sp, #4
 193 005c FFF7FEFF 		bl	UART_1_UartPutString
 194              	.LVL28:
 195              	.L8:
 103:.\main.c      **** }
 196              		.loc 1 103 0
 197 0060 201C     		mov	r0, r4
 198 0062 05B0     		add	sp, sp, #20
 199              		@ sp needed for prologue
 200              	.LVL29:
 201 0064 F0BD     		pop	{r4, r5, r6, r7, pc}
 202              	.L16:
 203 0066 C046     		.align	2
 204              	.L15:
 205 0068 28000000 		.word	.LC9
 206 006c 38000000 		.word	.LC11
 207              		.cfi_endproc
 208              	.LFE34:
 209              		.size	i2c_write, .-i2c_write
 210              		.section	.text.i2c_read,"ax",%progbits
 211              		.align	1
 212              		.global	i2c_read
 213              		.code	16
 214              		.thumb_func
 215              		.type	i2c_read, %function
 216              	i2c_read:
 217              	.LFB35:
 104:.\main.c      **** uint8 i2c_read(uint8 subAddr, uint8 *buffer, uint8 buff_size) {
 218              		.loc 1 104 0
 219              		.cfi_startproc
 220              	.LVL30:
 221 0000 F0B5     		push	{r4, r5, r6, r7, lr}
 222              	.LCFI3:
 223              		.cfi_def_cfa_offset 20
 224              		.cfi_offset 4, -20
 225              		.cfi_offset 5, -16
 226              		.cfi_offset 6, -12
 227              		.cfi_offset 7, -8
 228              		.cfi_offset 14, -4
 229 0002 85B0     		sub	sp, sp, #20
 230              	.LCFI4:
 231              		.cfi_def_cfa_offset 40
 104:.\main.c      **** uint8 i2c_read(uint8 subAddr, uint8 *buffer, uint8 buff_size) {
 232              		.loc 1 104 0
 233 0004 0E1C     		mov	r6, r1
 234 0006 151C     		mov	r5, r2
 235 0008 071C     		mov	r7, r0
 110:.\main.c      **** 	I2C_1_I2CMasterClearStatus();
 236              		.loc 1 110 0
 237 000a FFF7FEFF 		bl	I2C_1_I2CMasterClearStatus
ARM GAS  C:\Users\Milo\AppData\Local\Temp\cc85A6Bb.s 			page 9


 238              	.LVL31:
 113:.\main.c      **** 	status = I2C_1_I2CMasterSendStart(ADDRESS, 0);
 239              		.loc 1 113 0
 240 000e 0E20     		mov	r0, #14
 241 0010 0021     		mov	r1, #0
 242 0012 FFF7FEFF 		bl	I2C_1_I2CMasterSendStart
 243              	.LVL32:
 244 0016 C4B2     		uxtb	r4, r0
 245              	.LVL33:
 114:.\main.c      **** 	if (status != I2C_1_I2C_MSTR_NO_ERROR) {
 246              		.loc 1 114 0
 247 0018 002C     		cmp	r4, #0
 248 001a 08D0     		beq	.L18
 249              		.loc 1 204 0
 250 001c C2B2     		uxtb	r2, r0
 115:.\main.c      **** 		i= sprintf(array, "Error 2.1: %d \n",status);
 251              		.loc 1 115 0
 252 001e 0E49     		ldr	r1, .L20
 253 0020 01A8     		add	r0, sp, #4
 254              	.LVL34:
 255 0022 FFF7FEFF 		bl	sprintf
 256              	.LVL35:
 116:.\main.c      **** 		UART_1_UartPutString(array);
 257              		.loc 1 116 0
 258 0026 01A8     		add	r0, sp, #4
 259 0028 FFF7FEFF 		bl	UART_1_UartPutString
 260              	.LVL36:
 261 002c 11E0     		b	.L19
 262              	.LVL37:
 263              	.L18:
 122:.\main.c      **** 	status = I2C_1_I2CMasterWriteByte(subAddr);
 264              		.loc 1 122 0
 265 002e 381C     		mov	r0, r7
 266              	.LVL38:
 267 0030 FFF7FEFF 		bl	I2C_1_I2CMasterWriteByte
 268              	.LVL39:
 269 0034 C4B2     		uxtb	r4, r0
 270              	.LVL40:
 123:.\main.c      **** 	if (status != I2C_1_I2C_MSTR_NO_ERROR) {
 271              		.loc 1 123 0
 272 0036 002C     		cmp	r4, #0
 273 0038 0BD1     		bne	.L19
 126:.\main.c      **** 	UART_1_UartPutString("make it here?  \n\r"); 
 274              		.loc 1 126 0
 275 003a 0848     		ldr	r0, .L20+4
 276              	.LVL41:
 277 003c FFF7FEFF 		bl	UART_1_UartPutString
 278              	.LVL42:
 127:.\main.c      **** 	I2C_1_I2CMasterReadBuf(ADDRESS,buffer,buff_size,(I2C_1_I2C_MODE_REPEAT_START | I2C_1_I2C_MODE_COMP
 279              		.loc 1 127 0
 280 0040 311C     		mov	r1, r6
 281 0042 2A1C     		mov	r2, r5
 282 0044 0123     		mov	r3, #1
 283 0046 0E20     		mov	r0, #14
 284 0048 FFF7FEFF 		bl	I2C_1_I2CMasterReadBuf
 285              	.LVL43:
 138:.\main.c      **** 	status = I2C_1_I2CMasterSendStop();
ARM GAS  C:\Users\Milo\AppData\Local\Temp\cc85A6Bb.s 			page 10


 286              		.loc 1 138 0
 287 004c FFF7FEFF 		bl	I2C_1_I2CMasterSendStop
 288              	.LVL44:
 289 0050 C4B2     		uxtb	r4, r0
 290              	.LVL45:
 291              	.L19:
 143:.\main.c      **** }
 292              		.loc 1 143 0
 293 0052 201C     		mov	r0, r4
 294 0054 05B0     		add	sp, sp, #20
 295              		@ sp needed for prologue
 296              	.LVL46:
 297 0056 F0BD     		pop	{r4, r5, r6, r7, pc}
 298              	.L21:
 299              		.align	2
 300              	.L20:
 301 0058 48000000 		.word	.LC13
 302 005c 58000000 		.word	.LC15
 303              		.cfi_endproc
 304              	.LFE35:
 305              		.size	i2c_read, .-i2c_read
 306              		.section	.text.configure,"ax",%progbits
 307              		.align	1
 308              		.global	configure
 309              		.code	16
 310              		.thumb_func
 311              		.type	configure, %function
 312              	configure:
 313              	.LFB36:
 145:.\main.c      **** {
 314              		.loc 1 145 0
 315              		.cfi_startproc
 316 0000 37B5     		push	{r0, r1, r2, r4, r5, lr}
 317              	.LCFI5:
 318              		.cfi_def_cfa_offset 24
 319              		.cfi_offset 0, -24
 320              		.cfi_offset 1, -20
 321              		.cfi_offset 2, -16
 322              		.cfi_offset 4, -12
 323              		.cfi_offset 5, -8
 324              		.cfi_offset 14, -4
 147:.\main.c      **** 	Pin_4_Write(1);
 325              		.loc 1 147 0
 326 0002 0120     		mov	r0, #1
 148:.\main.c      **** 	array [0] = 0x80;
 327              		.loc 1 148 0
 328 0004 01AD     		add	r5, sp, #4
 147:.\main.c      **** 	Pin_4_Write(1);
 329              		.loc 1 147 0
 330 0006 FFF7FEFF 		bl	Pin_4_Write
 331              	.LVL47:
 151:.\main.c      **** 	array [0] = 1;
 332              		.loc 1 151 0
 333 000a 0124     		mov	r4, #1
 148:.\main.c      **** 	array [0] = 0x80;
 334              		.loc 1 148 0
 335 000c 8023     		mov	r3, #128
ARM GAS  C:\Users\Milo\AppData\Local\Temp\cc85A6Bb.s 			page 11


 149:.\main.c      **** 	i2c_write(0x11,array,1);
 336              		.loc 1 149 0
 337 000e 291C     		mov	r1, r5
 338 0010 0122     		mov	r2, #1
 339 0012 1120     		mov	r0, #17
 148:.\main.c      **** 	array [0] = 0x80;
 340              		.loc 1 148 0
 341 0014 2B70     		strb	r3, [r5]
 149:.\main.c      **** 	i2c_write(0x11,array,1);
 342              		.loc 1 149 0
 343 0016 FFF7FEFF 		bl	i2c_write
 344              	.LVL48:
 152:.\main.c      **** 	i2c_write(0x10,array,1);
 345              		.loc 1 152 0
 346 001a 291C     		mov	r1, r5
 347 001c 221C     		mov	r2, r4
 348 001e 1020     		mov	r0, #16
 151:.\main.c      **** 	array [0] = 1;
 349              		.loc 1 151 0
 350 0020 2C70     		strb	r4, [r5]
 152:.\main.c      **** 	i2c_write(0x10,array,1);
 351              		.loc 1 152 0
 352 0022 FFF7FEFF 		bl	i2c_write
 353              	.LVL49:
 154:.\main.c      **** 	Pin_4_Write(0);
 354              		.loc 1 154 0
 355 0026 0020     		mov	r0, #0
 356 0028 FFF7FEFF 		bl	Pin_4_Write
 357              	.LVL50:
 155:.\main.c      **** 	CyDelay(10);
 358              		.loc 1 155 0
 359 002c 0A20     		mov	r0, #10
 360 002e FFF7FEFF 		bl	CyDelay
 361              	.LVL51:
 156:.\main.c      **** 	SPIM_1_WriteTxData(0x20);
 362              		.loc 1 156 0
 363 0032 2020     		mov	r0, #32
 364 0034 FFF7FEFF 		bl	SPIM_1_WriteTxData
 365              	.LVL52:
 157:.\main.c      **** 	SPIM_1_WriteTxData(0x37);
 366              		.loc 1 157 0
 367 0038 3720     		mov	r0, #55
 368 003a FFF7FEFF 		bl	SPIM_1_WriteTxData
 369              	.LVL53:
 158:.\main.c      **** 	Pin_4_Write(1);
 370              		.loc 1 158 0
 371 003e 201C     		mov	r0, r4
 372 0040 FFF7FEFF 		bl	Pin_4_Write
 373              	.LVL54:
 159:.\main.c      **** 	CyDelay(100);
 374              		.loc 1 159 0
 375 0044 6420     		mov	r0, #100
 376 0046 FFF7FEFF 		bl	CyDelay
 377              	.LVL55:
 161:.\main.c      **** 	Pin_4_Write(0);
 378              		.loc 1 161 0
 379 004a 0020     		mov	r0, #0
ARM GAS  C:\Users\Milo\AppData\Local\Temp\cc85A6Bb.s 			page 12


 380 004c FFF7FEFF 		bl	Pin_4_Write
 381              	.LVL56:
 162:.\main.c      **** 	CyDelay(10);
 382              		.loc 1 162 0
 383 0050 0A20     		mov	r0, #10
 384 0052 FFF7FEFF 		bl	CyDelay
 385              	.LVL57:
 163:.\main.c      **** 	SPIM_1_WriteTxData(0x21);
 386              		.loc 1 163 0
 387 0056 2120     		mov	r0, #33
 388 0058 FFF7FEFF 		bl	SPIM_1_WriteTxData
 389              	.LVL58:
 164:.\main.c      **** 	SPIM_1_WriteTxData(0x00);
 390              		.loc 1 164 0
 391 005c 0020     		mov	r0, #0
 392 005e FFF7FEFF 		bl	SPIM_1_WriteTxData
 393              	.LVL59:
 165:.\main.c      **** 	Pin_4_Write(1);
 394              		.loc 1 165 0
 395 0062 201C     		mov	r0, r4
 396 0064 FFF7FEFF 		bl	Pin_4_Write
 397              	.LVL60:
 166:.\main.c      **** 	CyDelay(100);
 398              		.loc 1 166 0
 399 0068 6420     		mov	r0, #100
 400 006a FFF7FEFF 		bl	CyDelay
 401              	.LVL61:
 168:.\main.c      **** 	Pin_4_Write(0);
 402              		.loc 1 168 0
 403 006e 0020     		mov	r0, #0
 404 0070 FFF7FEFF 		bl	Pin_4_Write
 405              	.LVL62:
 169:.\main.c      **** 	CyDelay(10);
 406              		.loc 1 169 0
 407 0074 0A20     		mov	r0, #10
 408 0076 FFF7FEFF 		bl	CyDelay
 409              	.LVL63:
 170:.\main.c      **** 	SPIM_1_WriteTxData(0x22);
 410              		.loc 1 170 0
 411 007a 2220     		mov	r0, #34
 412 007c FFF7FEFF 		bl	SPIM_1_WriteTxData
 413              	.LVL64:
 171:.\main.c      **** 	SPIM_1_WriteTxData(0x00);
 414              		.loc 1 171 0
 415 0080 0020     		mov	r0, #0
 416 0082 FFF7FEFF 		bl	SPIM_1_WriteTxData
 417              	.LVL65:
 172:.\main.c      **** 	Pin_4_Write(1);
 418              		.loc 1 172 0
 419 0086 201C     		mov	r0, r4
 420 0088 FFF7FEFF 		bl	Pin_4_Write
 421              	.LVL66:
 173:.\main.c      **** 	CyDelay(100);
 422              		.loc 1 173 0
 423 008c 6420     		mov	r0, #100
 424 008e FFF7FEFF 		bl	CyDelay
 425              	.LVL67:
ARM GAS  C:\Users\Milo\AppData\Local\Temp\cc85A6Bb.s 			page 13


 175:.\main.c      **** 	Pin_4_Write(0);
 426              		.loc 1 175 0
 427 0092 0020     		mov	r0, #0
 428 0094 FFF7FEFF 		bl	Pin_4_Write
 429              	.LVL68:
 176:.\main.c      **** 	CyDelay(10);
 430              		.loc 1 176 0
 431 0098 0A20     		mov	r0, #10
 432 009a FFF7FEFF 		bl	CyDelay
 433              	.LVL69:
 177:.\main.c      **** 	SPIM_1_WriteTxData(0x23);
 434              		.loc 1 177 0
 435 009e 2320     		mov	r0, #35
 436 00a0 FFF7FEFF 		bl	SPIM_1_WriteTxData
 437              	.LVL70:
 178:.\main.c      **** 	SPIM_1_WriteTxData(0x30);
 438              		.loc 1 178 0
 439 00a4 3020     		mov	r0, #48
 440 00a6 FFF7FEFF 		bl	SPIM_1_WriteTxData
 441              	.LVL71:
 179:.\main.c      **** 	Pin_4_Write(1);
 442              		.loc 1 179 0
 443 00aa 201C     		mov	r0, r4
 444 00ac FFF7FEFF 		bl	Pin_4_Write
 445              	.LVL72:
 180:.\main.c      **** 	CyDelay(100);
 446              		.loc 1 180 0
 447 00b0 6420     		mov	r0, #100
 448 00b2 FFF7FEFF 		bl	CyDelay
 449              	.LVL73:
 182:.\main.c      **** }
 450              		.loc 1 182 0
 451              		@ sp needed for prologue
 452 00b6 37BD     		pop	{r0, r1, r2, r4, r5, pc}
 453              		.cfi_endproc
 454              	.LFE36:
 455              		.size	configure, .-configure
 456              		.section	.text.spi_read,"ax",%progbits
 457              		.align	1
 458              		.global	spi_read
 459              		.code	16
 460              		.thumb_func
 461              		.type	spi_read, %function
 462              	spi_read:
 463              	.LFB37:
 184:.\main.c      **** {
 464              		.loc 1 184 0
 465              		.cfi_startproc
 466              	.LVL74:
 467 0000 10B5     		push	{r4, lr}
 468              	.LCFI6:
 469              		.cfi_def_cfa_offset 8
 470              		.cfi_offset 4, -8
 471              		.cfi_offset 14, -4
 184:.\main.c      **** {
 472              		.loc 1 184 0
 473 0002 041C     		mov	r4, r0
ARM GAS  C:\Users\Milo\AppData\Local\Temp\cc85A6Bb.s 			page 14


 474              	.LVL75:
 187:.\main.c      **** 	Pin_4_Write(0);
 475              		.loc 1 187 0
 476 0004 0020     		mov	r0, #0
 477              	.LVL76:
 478 0006 FFF7FEFF 		bl	Pin_4_Write
 479              	.LVL77:
 188:.\main.c      **** 	CyDelay(10);
 480              		.loc 1 188 0
 481 000a 0A20     		mov	r0, #10
 482 000c FFF7FEFF 		bl	CyDelay
 483              	.LVL78:
 186:.\main.c      **** 	reg = 0xC0 | reg;
 484              		.loc 1 186 0
 485 0010 C020     		mov	r0, #192
 189:.\main.c      **** 	SPIM_1_WriteTxData(reg);
 486              		.loc 1 189 0
 487 0012 2043     		orr	r0, r4
 488 0014 FFF7FEFF 		bl	SPIM_1_WriteTxData
 489              	.LVL79:
 190:.\main.c      **** 	SPIM_1_WriteTxData(0x00);
 490              		.loc 1 190 0
 491 0018 0020     		mov	r0, #0
 492 001a FFF7FEFF 		bl	SPIM_1_WriteTxData
 493              	.LVL80:
 191:.\main.c      **** 	array[0] = SPIM_1_ReadRxData();
 494              		.loc 1 191 0
 495 001e FFF7FEFF 		bl	SPIM_1_ReadRxData
 496              	.LVL81:
 192:.\main.c      **** 	SPIM_1_WriteTxData(0x00);
 497              		.loc 1 192 0
 498 0022 0020     		mov	r0, #0
 499 0024 FFF7FEFF 		bl	SPIM_1_WriteTxData
 500              	.LVL82:
 193:.\main.c      **** 	array[1] = SPIM_1_ReadRxData();
 501              		.loc 1 193 0
 502 0028 FFF7FEFF 		bl	SPIM_1_ReadRxData
 503              	.LVL83:
 194:.\main.c      **** 	SPIM_1_WriteTxData(0x00);
 504              		.loc 1 194 0
 505 002c 0020     		mov	r0, #0
 506 002e FFF7FEFF 		bl	SPIM_1_WriteTxData
 507              	.LVL84:
 195:.\main.c      **** 	array[2] = SPIM_1_ReadRxData();
 508              		.loc 1 195 0
 509 0032 FFF7FEFF 		bl	SPIM_1_ReadRxData
 510              	.LVL85:
 196:.\main.c      **** 	SPIM_1_WriteTxData(0x00);
 511              		.loc 1 196 0
 512 0036 0020     		mov	r0, #0
 513 0038 FFF7FEFF 		bl	SPIM_1_WriteTxData
 514              	.LVL86:
 197:.\main.c      **** 	array[3] = SPIM_1_ReadRxData();
 515              		.loc 1 197 0
 516 003c FFF7FEFF 		bl	SPIM_1_ReadRxData
 517              	.LVL87:
 198:.\main.c      **** 	SPIM_1_WriteTxData(0x00);
ARM GAS  C:\Users\Milo\AppData\Local\Temp\cc85A6Bb.s 			page 15


 518              		.loc 1 198 0
 519 0040 0020     		mov	r0, #0
 520 0042 FFF7FEFF 		bl	SPIM_1_WriteTxData
 521              	.LVL88:
 199:.\main.c      **** 	array[4] = SPIM_1_ReadRxData();
 522              		.loc 1 199 0
 523 0046 FFF7FEFF 		bl	SPIM_1_ReadRxData
 524              	.LVL89:
 200:.\main.c      **** 	SPIM_1_WriteTxData(0x00);
 525              		.loc 1 200 0
 526 004a 0020     		mov	r0, #0
 527 004c FFF7FEFF 		bl	SPIM_1_WriteTxData
 528              	.LVL90:
 201:.\main.c      **** 	array[5] = SPIM_1_ReadRxData();
 529              		.loc 1 201 0
 530 0050 FFF7FEFF 		bl	SPIM_1_ReadRxData
 531              	.LVL91:
 202:.\main.c      **** 	Pin_4_Write(1);
 532              		.loc 1 202 0
 533 0054 0120     		mov	r0, #1
 534 0056 FFF7FEFF 		bl	Pin_4_Write
 535              	.LVL92:
 536              		.loc 1 204 0
 537              		@ sp needed for prologue
 538              	.LVL93:
 539 005a 10BD     		pop	{r4, pc}
 540              		.cfi_endproc
 541              	.LFE37:
 542              		.size	spi_read, .-spi_read
 543              		.global	ADDRESS
 544              		.section	.rodata
 545              		.align	2
 546              		.type	ADDRESS, %object
 547              		.size	ADDRESS, 4
 548              	ADDRESS:
 549 0000 0E000000 		.word	14
 550              		.section	.rodata.str1.1,"aMS",%progbits,1
 551              	.LC1:
 552 0000 4D41473A 		.ascii	"MAG: \012\015\000"
 552      200A0D00 
 553              	.LC3:
 554 0008 4143433A 		.ascii	"ACC: \012\015\000"
 554      200A0D00 
 555              	.LC5:
 556 0010 583A2025 		.ascii	"X: %d \012Y: %d \012Z: %d \012\015 \000"
 556      64200A59 
 556      3A202564 
 556      200A5A3A 
 556      20256420 
 557              	.LC9:
 558 0028 4572726F 		.ascii	"Error 1.1: %d \012\000"
 558      7220312E 
 558      313A2025 
 558      64200A00 
 559              	.LC11:
 560 0038 4572726F 		.ascii	"Error 1.2: %d \012\000"
 560      7220312E 
ARM GAS  C:\Users\Milo\AppData\Local\Temp\cc85A6Bb.s 			page 16


 560      323A2025 
 560      64200A00 
 561              	.LC13:
 562 0048 4572726F 		.ascii	"Error 2.1: %d \012\000"
 562      7220322E 
 562      313A2025 
 562      64200A00 
 563              	.LC15:
 564 0058 6D616B65 		.ascii	"make it here?  \012\015\000"
 564      20697420 
 564      68657265 
 564      3F20200A 
 564      0D00
 565              		.text
 566              	.Letext0:
 567              		.file 2 "./Generated_Source/PSoC4/cytypes.h"
 568              		.file 3 "./Generated_Source/PSoC4/CyLib.h"
 569              		.file 4 "./Generated_Source/PSoC4/UART_1_SPI_UART.h"
 570              		.file 5 "c:\\program files (x86)\\cypress\\psoc creator\\3.0\\psoc creator\\import\\gnu_cs\\arm\\4
 571              		.file 6 "./Generated_Source/PSoC4/I2C_1_I2C.h"
 572              		.file 7 "./Generated_Source/PSoC4/Pin_4.h"
 573              		.file 8 "./Generated_Source/PSoC4/SPIM_1.h"
 574              		.file 9 "./Generated_Source/PSoC4/UART_1.h"