ARM GAS  C:\Users\Milo\AppData\Local\Temp\ccJAA3Rs.s 			page 1


   1              		.cpu cortex-m0
   2              		.fpu softvfp
   3              		.eabi_attribute 20, 1
   4              		.eabi_attribute 21, 1
   5              		.eabi_attribute 23, 3
   6              		.eabi_attribute 24, 1
   7              		.eabi_attribute 25, 1
   8              		.eabi_attribute 26, 1
   9              		.eabi_attribute 30, 6
  10              		.eabi_attribute 34, 0
  11              		.eabi_attribute 18, 4
  12              		.code	16
  13              		.file	"cyfitter_cfg.c"
  14              		.text
  15              	.Ltext0:
  16              		.cfi_sections	.debug_frame
  17              		.section	.text.CYMEMZERO,"ax",%progbits
  18              		.align	2
  19              		.code	16
  20              		.thumb_func
  21              		.type	CYMEMZERO, %function
  22              	CYMEMZERO:
  23              	.LFB0:
  24              		.file 1 ".\\Generated_Source\\PSoC4\\cyfitter_cfg.c"
   1:.\Generated_Source\PSoC4/cyfitter_cfg.c **** /*******************************************************************************
   2:.\Generated_Source\PSoC4/cyfitter_cfg.c **** * FILENAME: cyfitter_cfg.c
   3:.\Generated_Source\PSoC4/cyfitter_cfg.c **** * PSoC Creator 3.0 SP1
   4:.\Generated_Source\PSoC4/cyfitter_cfg.c **** *
   5:.\Generated_Source\PSoC4/cyfitter_cfg.c **** * Description:
   6:.\Generated_Source\PSoC4/cyfitter_cfg.c **** * This file is automatically generated by PSoC Creator with device 
   7:.\Generated_Source\PSoC4/cyfitter_cfg.c **** * initialization code.  Except for the user defined sections in
   8:.\Generated_Source\PSoC4/cyfitter_cfg.c **** * CyClockStartupError(), this file should not be modified.
   9:.\Generated_Source\PSoC4/cyfitter_cfg.c **** *
  10:.\Generated_Source\PSoC4/cyfitter_cfg.c **** ********************************************************************************
  11:.\Generated_Source\PSoC4/cyfitter_cfg.c **** * Copyright 2013, Cypress Semiconductor Corporation.  All rights reserved.
  12:.\Generated_Source\PSoC4/cyfitter_cfg.c **** * You may use this file only in accordance with the license, terms, conditions, 
  13:.\Generated_Source\PSoC4/cyfitter_cfg.c **** * disclaimers, and limitations in the end user license agreement accompanying 
  14:.\Generated_Source\PSoC4/cyfitter_cfg.c **** * the software package with which this file was provided.
  15:.\Generated_Source\PSoC4/cyfitter_cfg.c **** ********************************************************************************/
  16:.\Generated_Source\PSoC4/cyfitter_cfg.c **** 
  17:.\Generated_Source\PSoC4/cyfitter_cfg.c **** #include <string.h>
  18:.\Generated_Source\PSoC4/cyfitter_cfg.c **** #include <cytypes.h>
  19:.\Generated_Source\PSoC4/cyfitter_cfg.c **** #include <cydevice_trm.h>
  20:.\Generated_Source\PSoC4/cyfitter_cfg.c **** #include <cyfitter.h>
  21:.\Generated_Source\PSoC4/cyfitter_cfg.c **** #include <CyLib.h>
  22:.\Generated_Source\PSoC4/cyfitter_cfg.c **** #include <cyfitter_cfg.h>
  23:.\Generated_Source\PSoC4/cyfitter_cfg.c **** 
  24:.\Generated_Source\PSoC4/cyfitter_cfg.c **** 
  25:.\Generated_Source\PSoC4/cyfitter_cfg.c **** #if defined(__GNUC__) || defined(__ARMCC_VERSION)
  26:.\Generated_Source\PSoC4/cyfitter_cfg.c ****     #define CYPACKED 
  27:.\Generated_Source\PSoC4/cyfitter_cfg.c ****     #define CYPACKED_ATTR __attribute__ ((packed))
  28:.\Generated_Source\PSoC4/cyfitter_cfg.c ****     #define CYALIGNED __attribute__ ((aligned))
  29:.\Generated_Source\PSoC4/cyfitter_cfg.c ****     #define CY_CFG_UNUSED __attribute__ ((unused))
  30:.\Generated_Source\PSoC4/cyfitter_cfg.c ****     #define CY_CFG_SECTION __attribute__ ((section(".psocinit")))
  31:.\Generated_Source\PSoC4/cyfitter_cfg.c ****     
  32:.\Generated_Source\PSoC4/cyfitter_cfg.c ****     #if defined(__ARMCC_VERSION)
  33:.\Generated_Source\PSoC4/cyfitter_cfg.c ****         #define CY_CFG_MEMORY_BARRIER() __memory_changed()
ARM GAS  C:\Users\Milo\AppData\Local\Temp\ccJAA3Rs.s 			page 2


  34:.\Generated_Source\PSoC4/cyfitter_cfg.c ****     #else
  35:.\Generated_Source\PSoC4/cyfitter_cfg.c ****         #define CY_CFG_MEMORY_BARRIER() __sync_synchronize()
  36:.\Generated_Source\PSoC4/cyfitter_cfg.c ****     #endif
  37:.\Generated_Source\PSoC4/cyfitter_cfg.c ****     
  38:.\Generated_Source\PSoC4/cyfitter_cfg.c **** #elif defined(__ICCARM__)
  39:.\Generated_Source\PSoC4/cyfitter_cfg.c ****     #include <intrinsics.h>
  40:.\Generated_Source\PSoC4/cyfitter_cfg.c **** 
  41:.\Generated_Source\PSoC4/cyfitter_cfg.c ****     #define CYPACKED __packed
  42:.\Generated_Source\PSoC4/cyfitter_cfg.c ****     #define CYPACKED_ATTR 
  43:.\Generated_Source\PSoC4/cyfitter_cfg.c ****     #define CYALIGNED _Pragma("data_alignment=4")
  44:.\Generated_Source\PSoC4/cyfitter_cfg.c ****     #define CY_CFG_UNUSED _Pragma("diag_suppress=Pe177")
  45:.\Generated_Source\PSoC4/cyfitter_cfg.c ****     #define CY_CFG_SECTION _Pragma("location=\".psocinit\"")
  46:.\Generated_Source\PSoC4/cyfitter_cfg.c ****     
  47:.\Generated_Source\PSoC4/cyfitter_cfg.c ****     #define CY_CFG_MEMORY_BARRIER() __DMB()
  48:.\Generated_Source\PSoC4/cyfitter_cfg.c ****     
  49:.\Generated_Source\PSoC4/cyfitter_cfg.c **** #else
  50:.\Generated_Source\PSoC4/cyfitter_cfg.c ****     #error Unsupported toolchain
  51:.\Generated_Source\PSoC4/cyfitter_cfg.c **** #endif
  52:.\Generated_Source\PSoC4/cyfitter_cfg.c **** 
  53:.\Generated_Source\PSoC4/cyfitter_cfg.c **** 
  54:.\Generated_Source\PSoC4/cyfitter_cfg.c **** CY_CFG_UNUSED
  55:.\Generated_Source\PSoC4/cyfitter_cfg.c **** static void CYMEMZERO(void *s, size_t n);
  56:.\Generated_Source\PSoC4/cyfitter_cfg.c **** CY_CFG_UNUSED
  57:.\Generated_Source\PSoC4/cyfitter_cfg.c **** static void CYMEMZERO(void *s, size_t n)
  58:.\Generated_Source\PSoC4/cyfitter_cfg.c **** {
  25              		.loc 1 58 0
  26              		.cfi_startproc
  27 0000 80B5     		push	{r7, lr}
  28              	.LCFI0:
  29              		.cfi_def_cfa_offset 8
  30              		.cfi_offset 7, -8
  31              		.cfi_offset 14, -4
  32 0002 82B0     		sub	sp, sp, #8
  33              	.LCFI1:
  34              		.cfi_def_cfa_offset 16
  35 0004 00AF     		add	r7, sp, #0
  36              	.LCFI2:
  37              		.cfi_def_cfa_register 7
  38 0006 7860     		str	r0, [r7, #4]
  39 0008 3960     		str	r1, [r7]
  59:.\Generated_Source\PSoC4/cyfitter_cfg.c **** 	(void)memset(s, 0, n);
  40              		.loc 1 59 0
  41 000a 7A68     		ldr	r2, [r7, #4]
  42 000c 3B68     		ldr	r3, [r7]
  43 000e 101C     		mov	r0, r2
  44 0010 0021     		mov	r1, #0
  45 0012 1A1C     		mov	r2, r3
  46 0014 FFF7FEFF 		bl	memset
  60:.\Generated_Source\PSoC4/cyfitter_cfg.c **** }
  47              		.loc 1 60 0
  48 0018 BD46     		mov	sp, r7
  49 001a 02B0     		add	sp, sp, #8
  50              		@ sp needed for prologue
  51 001c 80BD     		pop	{r7, pc}
  52              		.cfi_endproc
  53              	.LFE0:
  54              		.size	CYMEMZERO, .-CYMEMZERO
ARM GAS  C:\Users\Milo\AppData\Local\Temp\ccJAA3Rs.s 			page 3


  55 001e C046     		.section	.text.CYCONFIGCPY,"ax",%progbits
  56              		.align	2
  57              		.code	16
  58              		.thumb_func
  59              		.type	CYCONFIGCPY, %function
  60              	CYCONFIGCPY:
  61              	.LFB1:
  61:.\Generated_Source\PSoC4/cyfitter_cfg.c **** CY_CFG_UNUSED
  62:.\Generated_Source\PSoC4/cyfitter_cfg.c **** static void CYCONFIGCPY(void *dest, const void *src, size_t n);
  63:.\Generated_Source\PSoC4/cyfitter_cfg.c **** CY_CFG_UNUSED
  64:.\Generated_Source\PSoC4/cyfitter_cfg.c **** static void CYCONFIGCPY(void *dest, const void *src, size_t n)
  65:.\Generated_Source\PSoC4/cyfitter_cfg.c **** {
  62              		.loc 1 65 0
  63              		.cfi_startproc
  64 0000 80B5     		push	{r7, lr}
  65              	.LCFI3:
  66              		.cfi_def_cfa_offset 8
  67              		.cfi_offset 7, -8
  68              		.cfi_offset 14, -4
  69 0002 84B0     		sub	sp, sp, #16
  70              	.LCFI4:
  71              		.cfi_def_cfa_offset 24
  72 0004 00AF     		add	r7, sp, #0
  73              	.LCFI5:
  74              		.cfi_def_cfa_register 7
  75 0006 F860     		str	r0, [r7, #12]
  76 0008 B960     		str	r1, [r7, #8]
  77 000a 7A60     		str	r2, [r7, #4]
  66:.\Generated_Source\PSoC4/cyfitter_cfg.c **** 	(void)memcpy(dest, src, n);
  78              		.loc 1 66 0
  79 000c F968     		ldr	r1, [r7, #12]
  80 000e BA68     		ldr	r2, [r7, #8]
  81 0010 7B68     		ldr	r3, [r7, #4]
  82 0012 081C     		mov	r0, r1
  83 0014 111C     		mov	r1, r2
  84 0016 1A1C     		mov	r2, r3
  85 0018 FFF7FEFF 		bl	memcpy
  67:.\Generated_Source\PSoC4/cyfitter_cfg.c **** }
  86              		.loc 1 67 0
  87 001c BD46     		mov	sp, r7
  88 001e 04B0     		add	sp, sp, #16
  89              		@ sp needed for prologue
  90 0020 80BD     		pop	{r7, pc}
  91              		.cfi_endproc
  92              	.LFE1:
  93              		.size	CYCONFIGCPY, .-CYCONFIGCPY
  94 0022 C046     		.section	.text.CYCONFIGCPYCODE,"ax",%progbits
  95              		.align	2
  96              		.code	16
  97              		.thumb_func
  98              		.type	CYCONFIGCPYCODE, %function
  99              	CYCONFIGCPYCODE:
 100              	.LFB2:
  68:.\Generated_Source\PSoC4/cyfitter_cfg.c **** CY_CFG_UNUSED
  69:.\Generated_Source\PSoC4/cyfitter_cfg.c **** static void CYCONFIGCPYCODE(void *dest, const void *src, size_t n);
  70:.\Generated_Source\PSoC4/cyfitter_cfg.c **** CY_CFG_UNUSED
  71:.\Generated_Source\PSoC4/cyfitter_cfg.c **** static void CYCONFIGCPYCODE(void *dest, const void *src, size_t n)
ARM GAS  C:\Users\Milo\AppData\Local\Temp\ccJAA3Rs.s 			page 4


  72:.\Generated_Source\PSoC4/cyfitter_cfg.c **** {
 101              		.loc 1 72 0
 102              		.cfi_startproc
 103 0000 80B5     		push	{r7, lr}
 104              	.LCFI6:
 105              		.cfi_def_cfa_offset 8
 106              		.cfi_offset 7, -8
 107              		.cfi_offset 14, -4
 108 0002 84B0     		sub	sp, sp, #16
 109              	.LCFI7:
 110              		.cfi_def_cfa_offset 24
 111 0004 00AF     		add	r7, sp, #0
 112              	.LCFI8:
 113              		.cfi_def_cfa_register 7
 114 0006 F860     		str	r0, [r7, #12]
 115 0008 B960     		str	r1, [r7, #8]
 116 000a 7A60     		str	r2, [r7, #4]
  73:.\Generated_Source\PSoC4/cyfitter_cfg.c **** 	(void)memcpy(dest, src, n);
 117              		.loc 1 73 0
 118 000c F968     		ldr	r1, [r7, #12]
 119 000e BA68     		ldr	r2, [r7, #8]
 120 0010 7B68     		ldr	r3, [r7, #4]
 121 0012 081C     		mov	r0, r1
 122 0014 111C     		mov	r1, r2
 123 0016 1A1C     		mov	r2, r3
 124 0018 FFF7FEFF 		bl	memcpy
  74:.\Generated_Source\PSoC4/cyfitter_cfg.c **** }
 125              		.loc 1 74 0
 126 001c BD46     		mov	sp, r7
 127 001e 04B0     		add	sp, sp, #16
 128              		@ sp needed for prologue
 129 0020 80BD     		pop	{r7, pc}
 130              		.cfi_endproc
 131              	.LFE2:
 132              		.size	CYCONFIGCPYCODE, .-CYCONFIGCPYCODE
 133 0022 C046     		.section	.text.cfg_write_bytes32,"ax",%progbits
 134              		.align	2
 135              		.code	16
 136              		.thumb_func
 137              		.type	cfg_write_bytes32, %function
 138              	cfg_write_bytes32:
 139              	.LFB3:
  75:.\Generated_Source\PSoC4/cyfitter_cfg.c **** 
  76:.\Generated_Source\PSoC4/cyfitter_cfg.c **** 
  77:.\Generated_Source\PSoC4/cyfitter_cfg.c **** 
  78:.\Generated_Source\PSoC4/cyfitter_cfg.c **** /* Clock startup error codes                                                   */
  79:.\Generated_Source\PSoC4/cyfitter_cfg.c **** #define CYCLOCKSTART_NO_ERROR    0u
  80:.\Generated_Source\PSoC4/cyfitter_cfg.c **** #define CYCLOCKSTART_XTAL_ERROR  1u
  81:.\Generated_Source\PSoC4/cyfitter_cfg.c **** #define CYCLOCKSTART_32KHZ_ERROR 2u
  82:.\Generated_Source\PSoC4/cyfitter_cfg.c **** #define CYCLOCKSTART_PLL_ERROR   3u
  83:.\Generated_Source\PSoC4/cyfitter_cfg.c **** 
  84:.\Generated_Source\PSoC4/cyfitter_cfg.c **** #ifdef CY_NEED_CYCLOCKSTARTUPERROR
  85:.\Generated_Source\PSoC4/cyfitter_cfg.c **** /*******************************************************************************
  86:.\Generated_Source\PSoC4/cyfitter_cfg.c **** * Function Name: CyClockStartupError
  87:.\Generated_Source\PSoC4/cyfitter_cfg.c **** ********************************************************************************
  88:.\Generated_Source\PSoC4/cyfitter_cfg.c **** * Summary:
  89:.\Generated_Source\PSoC4/cyfitter_cfg.c **** *  If an error is encountered during clock configuration (crystal startup error,
ARM GAS  C:\Users\Milo\AppData\Local\Temp\ccJAA3Rs.s 			page 5


  90:.\Generated_Source\PSoC4/cyfitter_cfg.c **** *  PLL lock error, etc.), the system will end up here.  Unless reimplemented by
  91:.\Generated_Source\PSoC4/cyfitter_cfg.c **** *  the customer, this function will stop in an infinite loop.
  92:.\Generated_Source\PSoC4/cyfitter_cfg.c **** *
  93:.\Generated_Source\PSoC4/cyfitter_cfg.c **** * Parameters:
  94:.\Generated_Source\PSoC4/cyfitter_cfg.c **** *   void
  95:.\Generated_Source\PSoC4/cyfitter_cfg.c **** *
  96:.\Generated_Source\PSoC4/cyfitter_cfg.c **** * Return:
  97:.\Generated_Source\PSoC4/cyfitter_cfg.c **** *   void
  98:.\Generated_Source\PSoC4/cyfitter_cfg.c **** *
  99:.\Generated_Source\PSoC4/cyfitter_cfg.c **** *******************************************************************************/
 100:.\Generated_Source\PSoC4/cyfitter_cfg.c **** CY_CFG_UNUSED
 101:.\Generated_Source\PSoC4/cyfitter_cfg.c **** static void CyClockStartupError(uint8 errorCode);
 102:.\Generated_Source\PSoC4/cyfitter_cfg.c **** CY_CFG_UNUSED
 103:.\Generated_Source\PSoC4/cyfitter_cfg.c **** static void CyClockStartupError(uint8 errorCode)
 104:.\Generated_Source\PSoC4/cyfitter_cfg.c **** {
 105:.\Generated_Source\PSoC4/cyfitter_cfg.c ****     /* To remove the compiler warning if errorCode not used.                */
 106:.\Generated_Source\PSoC4/cyfitter_cfg.c ****     errorCode = errorCode;
 107:.\Generated_Source\PSoC4/cyfitter_cfg.c **** 
 108:.\Generated_Source\PSoC4/cyfitter_cfg.c ****     /* `#START CyClockStartupError` */
 109:.\Generated_Source\PSoC4/cyfitter_cfg.c **** 
 110:.\Generated_Source\PSoC4/cyfitter_cfg.c ****     /* If we have a clock startup error (bad MHz crystal, PLL lock, etc.),  */
 111:.\Generated_Source\PSoC4/cyfitter_cfg.c ****     /* we will end up here to allow the customer to implement something to  */
 112:.\Generated_Source\PSoC4/cyfitter_cfg.c ****     /* deal with the clock condition.                                       */
 113:.\Generated_Source\PSoC4/cyfitter_cfg.c **** 
 114:.\Generated_Source\PSoC4/cyfitter_cfg.c ****     /* `#END` */
 115:.\Generated_Source\PSoC4/cyfitter_cfg.c **** 
 116:.\Generated_Source\PSoC4/cyfitter_cfg.c ****     /* If nothing else, stop here since the clocks have not started         */
 117:.\Generated_Source\PSoC4/cyfitter_cfg.c ****     /* correctly.                                                           */
 118:.\Generated_Source\PSoC4/cyfitter_cfg.c ****     while(1) {}
 119:.\Generated_Source\PSoC4/cyfitter_cfg.c **** }
 120:.\Generated_Source\PSoC4/cyfitter_cfg.c **** #endif
 121:.\Generated_Source\PSoC4/cyfitter_cfg.c **** 
 122:.\Generated_Source\PSoC4/cyfitter_cfg.c **** #define CY_CFG_BASE_ADDR_COUNT 8u
 123:.\Generated_Source\PSoC4/cyfitter_cfg.c **** CYPACKED typedef struct
 124:.\Generated_Source\PSoC4/cyfitter_cfg.c **** {
 125:.\Generated_Source\PSoC4/cyfitter_cfg.c **** 	uint8 offset;
 126:.\Generated_Source\PSoC4/cyfitter_cfg.c **** 	uint8 value;
 127:.\Generated_Source\PSoC4/cyfitter_cfg.c **** } CYPACKED_ATTR cy_cfg_addrvalue_t;
 128:.\Generated_Source\PSoC4/cyfitter_cfg.c **** 
 129:.\Generated_Source\PSoC4/cyfitter_cfg.c **** 
 130:.\Generated_Source\PSoC4/cyfitter_cfg.c **** 
 131:.\Generated_Source\PSoC4/cyfitter_cfg.c **** /*******************************************************************************
 132:.\Generated_Source\PSoC4/cyfitter_cfg.c **** * Function Name: cfg_write_bytes32
 133:.\Generated_Source\PSoC4/cyfitter_cfg.c **** ********************************************************************************
 134:.\Generated_Source\PSoC4/cyfitter_cfg.c **** * Summary:
 135:.\Generated_Source\PSoC4/cyfitter_cfg.c **** *  This function is used for setting up the chip configuration areas that
 136:.\Generated_Source\PSoC4/cyfitter_cfg.c **** *  contain relatively sparse data.
 137:.\Generated_Source\PSoC4/cyfitter_cfg.c **** *
 138:.\Generated_Source\PSoC4/cyfitter_cfg.c **** * Parameters:
 139:.\Generated_Source\PSoC4/cyfitter_cfg.c **** *   void
 140:.\Generated_Source\PSoC4/cyfitter_cfg.c **** *
 141:.\Generated_Source\PSoC4/cyfitter_cfg.c **** * Return:
 142:.\Generated_Source\PSoC4/cyfitter_cfg.c **** *   void
 143:.\Generated_Source\PSoC4/cyfitter_cfg.c **** *
 144:.\Generated_Source\PSoC4/cyfitter_cfg.c **** *******************************************************************************/
 145:.\Generated_Source\PSoC4/cyfitter_cfg.c **** static void cfg_write_bytes32(const uint32 addr_table[], const cy_cfg_addrvalue_t data_table[]);
 146:.\Generated_Source\PSoC4/cyfitter_cfg.c **** static void cfg_write_bytes32(const uint32 addr_table[], const cy_cfg_addrvalue_t data_table[])
ARM GAS  C:\Users\Milo\AppData\Local\Temp\ccJAA3Rs.s 			page 6


 147:.\Generated_Source\PSoC4/cyfitter_cfg.c **** {
 140              		.loc 1 147 0
 141              		.cfi_startproc
 142 0000 80B5     		push	{r7, lr}
 143              	.LCFI9:
 144              		.cfi_def_cfa_offset 8
 145              		.cfi_offset 7, -8
 146              		.cfi_offset 14, -4
 147 0002 86B0     		sub	sp, sp, #24
 148              	.LCFI10:
 149              		.cfi_def_cfa_offset 32
 150 0004 00AF     		add	r7, sp, #0
 151              	.LCFI11:
 152              		.cfi_def_cfa_register 7
 153 0006 7860     		str	r0, [r7, #4]
 154 0008 3960     		str	r1, [r7]
 148:.\Generated_Source\PSoC4/cyfitter_cfg.c **** 	/* For 32-bit little-endian architectures */
 149:.\Generated_Source\PSoC4/cyfitter_cfg.c **** 	uint32 i, j = 0u;
 155              		.loc 1 149 0
 156 000a 0023     		mov	r3, #0
 157 000c 3B61     		str	r3, [r7, #16]
 150:.\Generated_Source\PSoC4/cyfitter_cfg.c **** 	for (i = 0u; i < CY_CFG_BASE_ADDR_COUNT; i++)
 158              		.loc 1 150 0
 159 000e 0023     		mov	r3, #0
 160 0010 7B61     		str	r3, [r7, #20]
 161 0012 2EE0     		b	.L5
 162              	.L8:
 163              	.LBB2:
 151:.\Generated_Source\PSoC4/cyfitter_cfg.c **** 	{
 152:.\Generated_Source\PSoC4/cyfitter_cfg.c **** 		uint32 baseAddr = addr_table[i];
 164              		.loc 1 152 0
 165 0014 7B69     		ldr	r3, [r7, #20]
 166 0016 9B00     		lsl	r3, r3, #2
 167 0018 7A68     		ldr	r2, [r7, #4]
 168 001a D318     		add	r3, r2, r3
 169 001c 1B68     		ldr	r3, [r3]
 170 001e BB60     		str	r3, [r7, #8]
 153:.\Generated_Source\PSoC4/cyfitter_cfg.c **** 		uint8 count = (uint8)baseAddr;
 171              		.loc 1 153 0
 172 0020 3B1C     		mov	r3, r7
 173 0022 0F33     		add	r3, r3, #15
 174 0024 BA68     		ldr	r2, [r7, #8]
 175 0026 1A70     		strb	r2, [r3]
 154:.\Generated_Source\PSoC4/cyfitter_cfg.c **** 		baseAddr &= 0xFFFFFF00u;
 176              		.loc 1 154 0
 177 0028 BB68     		ldr	r3, [r7, #8]
 178 002a FF22     		mov	r2, #255
 179 002c 9343     		bic	r3, r2
 180 002e BB60     		str	r3, [r7, #8]
 155:.\Generated_Source\PSoC4/cyfitter_cfg.c **** 		while (count != 0u)
 181              		.loc 1 155 0
 182 0030 17E0     		b	.L6
 183              	.L7:
 156:.\Generated_Source\PSoC4/cyfitter_cfg.c **** 		{
 157:.\Generated_Source\PSoC4/cyfitter_cfg.c **** 			CY_SET_XTND_REG8((void CYFAR *)(baseAddr + data_table[j].offset), data_table[j].value);
 184              		.loc 1 157 0
 185 0032 3B69     		ldr	r3, [r7, #16]
ARM GAS  C:\Users\Milo\AppData\Local\Temp\ccJAA3Rs.s 			page 7


 186 0034 5B00     		lsl	r3, r3, #1
 187 0036 3A68     		ldr	r2, [r7]
 188 0038 D318     		add	r3, r2, r3
 189 003a 1B78     		ldrb	r3, [r3]
 190 003c 1A1C     		mov	r2, r3
 191 003e BB68     		ldr	r3, [r7, #8]
 192 0040 D318     		add	r3, r2, r3
 193 0042 3A69     		ldr	r2, [r7, #16]
 194 0044 5200     		lsl	r2, r2, #1
 195 0046 3968     		ldr	r1, [r7]
 196 0048 8A18     		add	r2, r1, r2
 197 004a 5278     		ldrb	r2, [r2, #1]
 198 004c 1A70     		strb	r2, [r3]
 158:.\Generated_Source\PSoC4/cyfitter_cfg.c **** 			j++;
 199              		.loc 1 158 0
 200 004e 3B69     		ldr	r3, [r7, #16]
 201 0050 0133     		add	r3, r3, #1
 202 0052 3B61     		str	r3, [r7, #16]
 159:.\Generated_Source\PSoC4/cyfitter_cfg.c **** 			count--;
 203              		.loc 1 159 0
 204 0054 3B1C     		mov	r3, r7
 205 0056 0F33     		add	r3, r3, #15
 206 0058 3A1C     		mov	r2, r7
 207 005a 0F32     		add	r2, r2, #15
 208 005c 1278     		ldrb	r2, [r2]
 209 005e 013A     		sub	r2, r2, #1
 210 0060 1A70     		strb	r2, [r3]
 211              	.L6:
 155:.\Generated_Source\PSoC4/cyfitter_cfg.c **** 		while (count != 0u)
 212              		.loc 1 155 0 discriminator 1
 213 0062 3B1C     		mov	r3, r7
 214 0064 0F33     		add	r3, r3, #15
 215 0066 1B78     		ldrb	r3, [r3]
 216 0068 002B     		cmp	r3, #0
 217 006a E2D1     		bne	.L7
 218              	.LBE2:
 150:.\Generated_Source\PSoC4/cyfitter_cfg.c **** 	for (i = 0u; i < CY_CFG_BASE_ADDR_COUNT; i++)
 219              		.loc 1 150 0
 220 006c 7B69     		ldr	r3, [r7, #20]
 221 006e 0133     		add	r3, r3, #1
 222 0070 7B61     		str	r3, [r7, #20]
 223              	.L5:
 150:.\Generated_Source\PSoC4/cyfitter_cfg.c **** 	for (i = 0u; i < CY_CFG_BASE_ADDR_COUNT; i++)
 224              		.loc 1 150 0 is_stmt 0 discriminator 1
 225 0072 7B69     		ldr	r3, [r7, #20]
 226 0074 072B     		cmp	r3, #7
 227 0076 CDD9     		bls	.L8
 160:.\Generated_Source\PSoC4/cyfitter_cfg.c **** 		}
 161:.\Generated_Source\PSoC4/cyfitter_cfg.c **** 	}
 162:.\Generated_Source\PSoC4/cyfitter_cfg.c **** }
 228              		.loc 1 162 0 is_stmt 1
 229 0078 BD46     		mov	sp, r7
 230 007a 06B0     		add	sp, sp, #24
 231              		@ sp needed for prologue
 232 007c 80BD     		pop	{r7, pc}
 233              		.cfi_endproc
 234              	.LFE3:
ARM GAS  C:\Users\Milo\AppData\Local\Temp\ccJAA3Rs.s 			page 8


 235              		.size	cfg_write_bytes32, .-cfg_write_bytes32
 236 007e C046     		.section	.psocinit,"ax",%progbits
 237              		.align	2
 238              		.code	16
 239              		.thumb_func
 240              		.type	SetIMOBGTrims, %function
 241              	SetIMOBGTrims:
 242              	.LFB4:
 163:.\Generated_Source\PSoC4/cyfitter_cfg.c **** 
 164:.\Generated_Source\PSoC4/cyfitter_cfg.c **** /*******************************************************************************
 165:.\Generated_Source\PSoC4/cyfitter_cfg.c **** * Function Name: SetIMOBGTrims
 166:.\Generated_Source\PSoC4/cyfitter_cfg.c **** ********************************************************************************
 167:.\Generated_Source\PSoC4/cyfitter_cfg.c **** *
 168:.\Generated_Source\PSoC4/cyfitter_cfg.c **** * Summary:
 169:.\Generated_Source\PSoC4/cyfitter_cfg.c **** *   Performs the configuration of the bandgap trim for the IMO based on the given
 170:.\Generated_Source\PSoC4/cyfitter_cfg.c **** *   expected frequency of the IMO. 
 171:.\Generated_Source\PSoC4/cyfitter_cfg.c **** *
 172:.\Generated_Source\PSoC4/cyfitter_cfg.c **** * Parameters:
 173:.\Generated_Source\PSoC4/cyfitter_cfg.c **** *   imoFreq: Frequency for operation of the IMO.
 174:.\Generated_Source\PSoC4/cyfitter_cfg.c **** *
 175:.\Generated_Source\PSoC4/cyfitter_cfg.c **** * Return:
 176:.\Generated_Source\PSoC4/cyfitter_cfg.c **** *   void
 177:.\Generated_Source\PSoC4/cyfitter_cfg.c **** *
 178:.\Generated_Source\PSoC4/cyfitter_cfg.c **** *******************************************************************************/
 179:.\Generated_Source\PSoC4/cyfitter_cfg.c **** static void SetIMOBGTrims(uint8 imoFreq);
 180:.\Generated_Source\PSoC4/cyfitter_cfg.c **** CY_CFG_SECTION
 181:.\Generated_Source\PSoC4/cyfitter_cfg.c **** static void SetIMOBGTrims(uint8 imoFreq)
 182:.\Generated_Source\PSoC4/cyfitter_cfg.c **** {
 243              		.loc 1 182 0
 244              		.cfi_startproc
 245 0000 80B5     		push	{r7, lr}
 246              	.LCFI12:
 247              		.cfi_def_cfa_offset 8
 248              		.cfi_offset 7, -8
 249              		.cfi_offset 14, -4
 250 0002 84B0     		sub	sp, sp, #16
 251              	.LCFI13:
 252              		.cfi_def_cfa_offset 24
 253 0004 00AF     		add	r7, sp, #0
 254              	.LCFI14:
 255              		.cfi_def_cfa_register 7
 256 0006 021C     		mov	r2, r0
 257 0008 FB1D     		add	r3, r7, #7
 258 000a 1A70     		strb	r2, [r3]
 183:.\Generated_Source\PSoC4/cyfitter_cfg.c **** 	CYPACKED typedef struct {
 184:.\Generated_Source\PSoC4/cyfitter_cfg.c **** 		uint8 freq;
 185:.\Generated_Source\PSoC4/cyfitter_cfg.c **** 		uint8 absolute;
 186:.\Generated_Source\PSoC4/cyfitter_cfg.c **** 		uint8 tmpco;
 187:.\Generated_Source\PSoC4/cyfitter_cfg.c **** 	} CYPACKED_ATTR imo_trim_entry_t;
 188:.\Generated_Source\PSoC4/cyfitter_cfg.c **** 
 189:.\Generated_Source\PSoC4/cyfitter_cfg.c **** 	CYPACKED typedef struct {
 190:.\Generated_Source\PSoC4/cyfitter_cfg.c **** 		imo_trim_entry_t entries[4];
 191:.\Generated_Source\PSoC4/cyfitter_cfg.c **** 	} CYPACKED_ATTR imo_trim_table_t;
 192:.\Generated_Source\PSoC4/cyfitter_cfg.c **** 
 193:.\Generated_Source\PSoC4/cyfitter_cfg.c **** 	static const imo_trim_table_t *imo_trim_table = (const imo_trim_table_t *)CYREG_SFLASH_IMO_MAXF0;
 194:.\Generated_Source\PSoC4/cyfitter_cfg.c **** 	static const uint32 IMO_TRIM_FREQ_TABLE_ENTRIES = sizeof(imo_trim_table->entries)/sizeof(imo_trim_
 195:.\Generated_Source\PSoC4/cyfitter_cfg.c **** 
ARM GAS  C:\Users\Milo\AppData\Local\Temp\ccJAA3Rs.s 			page 9


 196:.\Generated_Source\PSoC4/cyfitter_cfg.c **** 	int32 imoTrimIndex;
 197:.\Generated_Source\PSoC4/cyfitter_cfg.c **** 	uint8 setAbs;
 198:.\Generated_Source\PSoC4/cyfitter_cfg.c **** 	uint8 setTmpCo;
 199:.\Generated_Source\PSoC4/cyfitter_cfg.c **** 
 200:.\Generated_Source\PSoC4/cyfitter_cfg.c **** 	/* Traverse the SFLASH IMO frequency-dependent bandgap trim table to
 201:.\Generated_Source\PSoC4/cyfitter_cfg.c **** 	 * locate the appropriate value to trim the IMO bandgap based on freq. */
 202:.\Generated_Source\PSoC4/cyfitter_cfg.c **** 	setAbs = CY_GET_REG8((const void *)CYREG_SFLASH_IMO_ABS4);
 259              		.loc 1 202 0
 260 000c 224A     		ldr	r2, .L13
 261 000e 3B1C     		mov	r3, r7
 262 0010 0B33     		add	r3, r3, #11
 263 0012 1278     		ldrb	r2, [r2]
 264 0014 1A70     		strb	r2, [r3]
 203:.\Generated_Source\PSoC4/cyfitter_cfg.c **** 	setTmpCo = CY_GET_REG8((const void *)CYREG_SFLASH_IMO_TMPCO4);
 265              		.loc 1 203 0
 266 0016 214A     		ldr	r2, .L13+4
 267 0018 3B1C     		mov	r3, r7
 268 001a 0A33     		add	r3, r3, #10
 269 001c 1278     		ldrb	r2, [r2]
 270 001e 1A70     		strb	r2, [r3]
 204:.\Generated_Source\PSoC4/cyfitter_cfg.c **** 	for (imoTrimIndex = ((int32)IMO_TRIM_FREQ_TABLE_ENTRIES)-1;
 271              		.loc 1 204 0
 272 0020 1F4B     		ldr	r3, .L13+8
 273 0022 1B68     		ldr	r3, [r3]
 274 0024 013B     		sub	r3, r3, #1
 275 0026 FB60     		str	r3, [r7, #12]
 276 0028 1AE0     		b	.L10
 277              	.L12:
 205:.\Generated_Source\PSoC4/cyfitter_cfg.c **** 	     (imoTrimIndex >= 0) && (imoFreq <= imo_trim_table->entries[imoTrimIndex].freq);
 206:.\Generated_Source\PSoC4/cyfitter_cfg.c **** 	     imoTrimIndex--)
 207:.\Generated_Source\PSoC4/cyfitter_cfg.c **** 	{
 208:.\Generated_Source\PSoC4/cyfitter_cfg.c **** 		setAbs = imo_trim_table->entries[imoTrimIndex].absolute;
 278              		.loc 1 208 0
 279 002a 1E4B     		ldr	r3, .L13+12
 280 002c 1868     		ldr	r0, [r3]
 281 002e 391C     		mov	r1, r7
 282 0030 0B31     		add	r1, r1, #11
 283 0032 FA68     		ldr	r2, [r7, #12]
 284 0034 131C     		mov	r3, r2
 285 0036 5B00     		lsl	r3, r3, #1
 286 0038 9B18     		add	r3, r3, r2
 287 003a C318     		add	r3, r0, r3
 288 003c 0133     		add	r3, r3, #1
 289 003e 1B78     		ldrb	r3, [r3]
 290 0040 0B70     		strb	r3, [r1]
 209:.\Generated_Source\PSoC4/cyfitter_cfg.c **** 		setTmpCo = imo_trim_table->entries[imoTrimIndex].tmpco;
 291              		.loc 1 209 0
 292 0042 184B     		ldr	r3, .L13+12
 293 0044 1868     		ldr	r0, [r3]
 294 0046 391C     		mov	r1, r7
 295 0048 0A31     		add	r1, r1, #10
 296 004a FA68     		ldr	r2, [r7, #12]
 297 004c 131C     		mov	r3, r2
 298 004e 5B00     		lsl	r3, r3, #1
 299 0050 9B18     		add	r3, r3, r2
 300 0052 C318     		add	r3, r0, r3
 301 0054 0233     		add	r3, r3, #2
ARM GAS  C:\Users\Milo\AppData\Local\Temp\ccJAA3Rs.s 			page 10


 302 0056 1B78     		ldrb	r3, [r3]
 303 0058 0B70     		strb	r3, [r1]
 206:.\Generated_Source\PSoC4/cyfitter_cfg.c **** 	     imoTrimIndex--)
 304              		.loc 1 206 0
 305 005a FB68     		ldr	r3, [r7, #12]
 306 005c 013B     		sub	r3, r3, #1
 307 005e FB60     		str	r3, [r7, #12]
 308              	.L10:
 204:.\Generated_Source\PSoC4/cyfitter_cfg.c **** 	for (imoTrimIndex = ((int32)IMO_TRIM_FREQ_TABLE_ENTRIES)-1;
 309              		.loc 1 204 0 discriminator 1
 310 0060 FB68     		ldr	r3, [r7, #12]
 311 0062 002B     		cmp	r3, #0
 312 0064 0ADB     		blt	.L11
 205:.\Generated_Source\PSoC4/cyfitter_cfg.c **** 	     (imoTrimIndex >= 0) && (imoFreq <= imo_trim_table->entries[imoTrimIndex].freq);
 313              		.loc 1 205 0
 314 0066 0F4B     		ldr	r3, .L13+12
 315 0068 1968     		ldr	r1, [r3]
 316 006a FA68     		ldr	r2, [r7, #12]
 317 006c 131C     		mov	r3, r2
 318 006e 5B00     		lsl	r3, r3, #1
 319 0070 9B18     		add	r3, r3, r2
 320 0072 5B5C     		ldrb	r3, [r3, r1]
 321 0074 FA1D     		add	r2, r7, #7
 322 0076 1278     		ldrb	r2, [r2]
 323 0078 9A42     		cmp	r2, r3
 324 007a D6D9     		bls	.L12
 325              	.L11:
 210:.\Generated_Source\PSoC4/cyfitter_cfg.c **** 	}
 211:.\Generated_Source\PSoC4/cyfitter_cfg.c **** 
 212:.\Generated_Source\PSoC4/cyfitter_cfg.c **** 	CY_SET_REG32((void *)CYREG_PWR_BG_TRIM4, setAbs);
 326              		.loc 1 212 0
 327 007c 0A4B     		ldr	r3, .L13+16
 328 007e 3A1C     		mov	r2, r7
 329 0080 0B32     		add	r2, r2, #11
 330 0082 1278     		ldrb	r2, [r2]
 331 0084 1A60     		str	r2, [r3]
 213:.\Generated_Source\PSoC4/cyfitter_cfg.c **** 	CY_SET_REG32((void *)CYREG_PWR_BG_TRIM5, setTmpCo);
 332              		.loc 1 213 0
 333 0086 094B     		ldr	r3, .L13+20
 334 0088 3A1C     		mov	r2, r7
 335 008a 0A32     		add	r2, r2, #10
 336 008c 1278     		ldrb	r2, [r2]
 337 008e 1A60     		str	r2, [r3]
 214:.\Generated_Source\PSoC4/cyfitter_cfg.c **** }
 338              		.loc 1 214 0
 339 0090 BD46     		mov	sp, r7
 340 0092 04B0     		add	sp, sp, #16
 341              		@ sp needed for prologue
 342 0094 80BD     		pop	{r7, pc}
 343              	.L14:
 344 0096 C046     		.align	2
 345              	.L13:
 346 0098 CCF1FF0F 		.word	268431820
 347 009c CDF1FF0F 		.word	268431821
 348 00a0 84020000 		.word	IMO_TRIM_FREQ_TABLE_ENTRIES.4642
 349 00a4 00000000 		.word	imo_trim_table.4641
 350 00a8 1CFF0B40 		.word	1074528028
ARM GAS  C:\Users\Milo\AppData\Local\Temp\ccJAA3Rs.s 			page 11


 351 00ac 20FF0B40 		.word	1074528032
 352              		.cfi_endproc
 353              	.LFE4:
 354              		.size	SetIMOBGTrims, .-SetIMOBGTrims
 355              		.align	2
 356              		.code	16
 357              		.thumb_func
 358              		.type	ClockSetup, %function
 359              	ClockSetup:
 360              	.LFB5:
 215:.\Generated_Source\PSoC4/cyfitter_cfg.c **** 
 216:.\Generated_Source\PSoC4/cyfitter_cfg.c **** 
 217:.\Generated_Source\PSoC4/cyfitter_cfg.c **** 
 218:.\Generated_Source\PSoC4/cyfitter_cfg.c **** /*******************************************************************************
 219:.\Generated_Source\PSoC4/cyfitter_cfg.c **** * Function Name: ClockSetup
 220:.\Generated_Source\PSoC4/cyfitter_cfg.c **** ********************************************************************************
 221:.\Generated_Source\PSoC4/cyfitter_cfg.c **** *
 222:.\Generated_Source\PSoC4/cyfitter_cfg.c **** * Summary:
 223:.\Generated_Source\PSoC4/cyfitter_cfg.c **** *   Performs the initialization of all of the clocks in the device based on the
 224:.\Generated_Source\PSoC4/cyfitter_cfg.c **** *   settings in the Clock tab of the DWR.  This includes enabling the requested
 225:.\Generated_Source\PSoC4/cyfitter_cfg.c **** *   clocks and setting the necessary dividers to produce the desired frequency. 
 226:.\Generated_Source\PSoC4/cyfitter_cfg.c **** *
 227:.\Generated_Source\PSoC4/cyfitter_cfg.c **** * Parameters:
 228:.\Generated_Source\PSoC4/cyfitter_cfg.c **** *   void
 229:.\Generated_Source\PSoC4/cyfitter_cfg.c **** *
 230:.\Generated_Source\PSoC4/cyfitter_cfg.c **** * Return:
 231:.\Generated_Source\PSoC4/cyfitter_cfg.c **** *   void
 232:.\Generated_Source\PSoC4/cyfitter_cfg.c **** *
 233:.\Generated_Source\PSoC4/cyfitter_cfg.c **** *******************************************************************************/
 234:.\Generated_Source\PSoC4/cyfitter_cfg.c **** static void ClockSetup(void);
 235:.\Generated_Source\PSoC4/cyfitter_cfg.c **** CY_CFG_SECTION
 236:.\Generated_Source\PSoC4/cyfitter_cfg.c **** static void ClockSetup(void)
 237:.\Generated_Source\PSoC4/cyfitter_cfg.c **** {
 361              		.loc 1 237 0
 362              		.cfi_startproc
 363 00b0 80B5     		push	{r7, lr}
 364              	.LCFI15:
 365              		.cfi_def_cfa_offset 8
 366              		.cfi_offset 7, -8
 367              		.cfi_offset 14, -4
 368 00b2 00AF     		add	r7, sp, #0
 369              	.LCFI16:
 370              		.cfi_def_cfa_register 7
 238:.\Generated_Source\PSoC4/cyfitter_cfg.c **** 	/* Enable HALF_EN before trimming for the flash accelerator. */
 239:.\Generated_Source\PSoC4/cyfitter_cfg.c **** 	CY_SET_REG32((void CYXDATA *)(CYREG_CLK_SELECT), (CY_GET_REG32((void *)CYREG_CLK_SELECT) | 0x00040
 371              		.loc 1 239 0
 372 00b4 1C4B     		ldr	r3, .L16
 373 00b6 1C4A     		ldr	r2, .L16
 374 00b8 1268     		ldr	r2, [r2]
 375 00ba 8021     		mov	r1, #128
 376 00bc C902     		lsl	r1, r1, #11
 377 00be 0A43     		orr	r2, r1
 378 00c0 1A60     		str	r2, [r3]
 240:.\Generated_Source\PSoC4/cyfitter_cfg.c **** 
 241:.\Generated_Source\PSoC4/cyfitter_cfg.c **** 	/* Trim IMO BG based on desired frequency. */
 242:.\Generated_Source\PSoC4/cyfitter_cfg.c **** 	SetIMOBGTrims(24u);
 379              		.loc 1 242 0
ARM GAS  C:\Users\Milo\AppData\Local\Temp\ccJAA3Rs.s 			page 12


 380 00c2 1820     		mov	r0, #24
 381 00c4 FFF79CFF 		bl	SetIMOBGTrims
 243:.\Generated_Source\PSoC4/cyfitter_cfg.c **** 
 244:.\Generated_Source\PSoC4/cyfitter_cfg.c **** 	/* Going less than or equal to 24MHz, so update the clock speed then adjust trim value. */
 245:.\Generated_Source\PSoC4/cyfitter_cfg.c **** 	CY_SET_REG32((void CYXDATA *)(CYREG_CLK_IMO_TRIM2), (25u));
 382              		.loc 1 245 0
 383 00c8 184B     		ldr	r3, .L16+4
 384 00ca 1922     		mov	r2, #25
 385 00cc 1A60     		str	r2, [r3]
 246:.\Generated_Source\PSoC4/cyfitter_cfg.c **** 	CyDelayCycles(5u);
 386              		.loc 1 246 0
 387 00ce 0520     		mov	r0, #5
 388 00d0 FFF7FEFF 		bl	CyDelayCycles
 247:.\Generated_Source\PSoC4/cyfitter_cfg.c **** 	CY_SET_REG32((void CYXDATA *)(CYREG_CLK_IMO_TRIM1), (CY_GET_REG8((void *)CYREG_SFLASH_IMO_TRIM21))
 389              		.loc 1 247 0
 390 00d4 164B     		ldr	r3, .L16+8
 391 00d6 174A     		ldr	r2, .L16+12
 392 00d8 1278     		ldrb	r2, [r2]
 393 00da D2B2     		uxtb	r2, r2
 394 00dc 1A60     		str	r2, [r3]
 248:.\Generated_Source\PSoC4/cyfitter_cfg.c **** 	CyDelayUs(5u);
 395              		.loc 1 248 0
 396 00de 0520     		mov	r0, #5
 397 00e0 FFF7FEFF 		bl	CyDelayUs
 249:.\Generated_Source\PSoC4/cyfitter_cfg.c **** 
 250:.\Generated_Source\PSoC4/cyfitter_cfg.c **** 	/* Disable HALF_EN since it is not required at this IMO frequency. */
 251:.\Generated_Source\PSoC4/cyfitter_cfg.c **** 	CY_SET_REG32((void CYXDATA *)(CYREG_CLK_SELECT), (CY_GET_REG32((void *)CYREG_CLK_SELECT) & 0xFFFBF
 398              		.loc 1 251 0
 399 00e4 104B     		ldr	r3, .L16
 400 00e6 104A     		ldr	r2, .L16
 401 00e8 1168     		ldr	r1, [r2]
 402 00ea 134A     		ldr	r2, .L16+16
 403 00ec 0A40     		and	r2, r1
 404 00ee 1A60     		str	r2, [r3]
 252:.\Generated_Source\PSoC4/cyfitter_cfg.c **** 
 253:.\Generated_Source\PSoC4/cyfitter_cfg.c **** 	/* CYDEV_CLK_SELECT00 Starting address: CYDEV_CLK_SELECT00 */
 254:.\Generated_Source\PSoC4/cyfitter_cfg.c **** 	CY_SET_XTND_REG32((void CYFAR *)(CYREG_CLK_SELECT02), 0x00000030u);
 405              		.loc 1 254 0
 406 00f0 124B     		ldr	r3, .L16+20
 407 00f2 3022     		mov	r2, #48
 408 00f4 1A60     		str	r2, [r3]
 255:.\Generated_Source\PSoC4/cyfitter_cfg.c **** 	CY_SET_XTND_REG32((void CYFAR *)(CYREG_CLK_SELECT03), 0x00000020u);
 409              		.loc 1 255 0
 410 00f6 124B     		ldr	r3, .L16+24
 411 00f8 2022     		mov	r2, #32
 412 00fa 1A60     		str	r2, [r3]
 256:.\Generated_Source\PSoC4/cyfitter_cfg.c **** 	CY_SET_XTND_REG32((void CYFAR *)(CYREG_CLK_SELECT12), 0x00000010u);
 413              		.loc 1 256 0
 414 00fc 114B     		ldr	r3, .L16+28
 415 00fe 1022     		mov	r2, #16
 416 0100 1A60     		str	r2, [r3]
 257:.\Generated_Source\PSoC4/cyfitter_cfg.c **** 
 258:.\Generated_Source\PSoC4/cyfitter_cfg.c **** 	/* CYDEV_CLK_IMO_CONFIG Starting address: CYDEV_CLK_IMO_CONFIG */
 259:.\Generated_Source\PSoC4/cyfitter_cfg.c **** 	CY_SET_XTND_REG32((void CYFAR *)(CYREG_CLK_IMO_CONFIG), 0x80000000u);
 417              		.loc 1 259 0
 418 0102 114B     		ldr	r3, .L16+32
 419 0104 8022     		mov	r2, #128
ARM GAS  C:\Users\Milo\AppData\Local\Temp\ccJAA3Rs.s 			page 13


 420 0106 1206     		lsl	r2, r2, #24
 421 0108 1A60     		str	r2, [r3]
 260:.\Generated_Source\PSoC4/cyfitter_cfg.c **** 
 261:.\Generated_Source\PSoC4/cyfitter_cfg.c **** 	/* CYDEV_CLK_ILO_CONFIG Starting address: CYDEV_CLK_ILO_CONFIG */
 262:.\Generated_Source\PSoC4/cyfitter_cfg.c **** 	CY_SET_XTND_REG32((void CYFAR *)(CYREG_CLK_ILO_CONFIG), 0x80000000u);
 422              		.loc 1 262 0
 423 010a 104B     		ldr	r3, .L16+36
 424 010c 8022     		mov	r2, #128
 425 010e 1206     		lsl	r2, r2, #24
 426 0110 1A60     		str	r2, [r3]
 263:.\Generated_Source\PSoC4/cyfitter_cfg.c **** 
 264:.\Generated_Source\PSoC4/cyfitter_cfg.c **** 	/* CYDEV_CLK_DIVIDER_A00 Starting address: CYDEV_CLK_DIVIDER_A00 */
 265:.\Generated_Source\PSoC4/cyfitter_cfg.c **** 	CY_SET_XTND_REG32((void CYFAR *)(CYREG_CLK_DIVIDER_A00), 0x8000000Bu);
 427              		.loc 1 265 0
 428 0112 0F4B     		ldr	r3, .L16+40
 429 0114 0F4A     		ldr	r2, .L16+44
 430 0116 1A60     		str	r2, [r3]
 266:.\Generated_Source\PSoC4/cyfitter_cfg.c **** 
 267:.\Generated_Source\PSoC4/cyfitter_cfg.c **** 	/* CYDEV_CLK_DIVIDER_B00 Starting address: CYDEV_CLK_DIVIDER_B00 */
 268:.\Generated_Source\PSoC4/cyfitter_cfg.c **** 	CY_SET_XTND_REG32((void CYFAR *)(CYREG_CLK_DIVIDER_B00), 0x8000001Du);
 431              		.loc 1 268 0
 432 0118 0F4B     		ldr	r3, .L16+48
 433 011a 104A     		ldr	r2, .L16+52
 434 011c 1A60     		str	r2, [r3]
 269:.\Generated_Source\PSoC4/cyfitter_cfg.c **** 
 270:.\Generated_Source\PSoC4/cyfitter_cfg.c **** 	/* CYDEV_CLK_DIVIDER_C00 Starting address: CYDEV_CLK_DIVIDER_C00 */
 271:.\Generated_Source\PSoC4/cyfitter_cfg.c **** 	CY_SET_XTND_REG32((void CYFAR *)(CYREG_CLK_DIVIDER_C00), 0x800000CFu);
 435              		.loc 1 271 0
 436 011e 104B     		ldr	r3, .L16+56
 437 0120 104A     		ldr	r2, .L16+60
 438 0122 1A60     		str	r2, [r3]
 272:.\Generated_Source\PSoC4/cyfitter_cfg.c **** 
 273:.\Generated_Source\PSoC4/cyfitter_cfg.c **** }
 439              		.loc 1 273 0
 440 0124 BD46     		mov	sp, r7
 441              		@ sp needed for prologue
 442 0126 80BD     		pop	{r7, pc}
 443              	.L17:
 444              		.align	2
 445              	.L16:
 446 0128 00010B40 		.word	1074462976
 447 012c 2CFF0B40 		.word	1074528044
 448 0130 28FF0B40 		.word	1074528040
 449 0134 E5F1FF0F 		.word	268431845
 450 0138 FFFFFBFF 		.word	-262145
 451 013c 08020240 		.word	1073873416
 452 0140 0C020240 		.word	1073873420
 453 0144 30020240 		.word	1073873456
 454 0148 08010B40 		.word	1074462984
 455 014c 04010B40 		.word	1074462980
 456 0150 00000240 		.word	1073872896
 457 0154 0B000080 		.word	-2147483637
 458 0158 40000240 		.word	1073872960
 459 015c 1D000080 		.word	-2147483619
 460 0160 80000240 		.word	1073873024
 461 0164 CF000080 		.word	-2147483441
 462              		.cfi_endproc
ARM GAS  C:\Users\Milo\AppData\Local\Temp\ccJAA3Rs.s 			page 14


 463              	.LFE5:
 464              		.size	ClockSetup, .-ClockSetup
 465              		.section	.text.AnalogSetDefault,"ax",%progbits
 466              		.align	2
 467              		.code	16
 468              		.thumb_func
 469              		.type	AnalogSetDefault, %function
 470              	AnalogSetDefault:
 471              	.LFB6:
 274:.\Generated_Source\PSoC4/cyfitter_cfg.c **** 
 275:.\Generated_Source\PSoC4/cyfitter_cfg.c **** 
 276:.\Generated_Source\PSoC4/cyfitter_cfg.c **** /* Analog API Functions */
 277:.\Generated_Source\PSoC4/cyfitter_cfg.c **** 
 278:.\Generated_Source\PSoC4/cyfitter_cfg.c **** 
 279:.\Generated_Source\PSoC4/cyfitter_cfg.c **** /*******************************************************************************
 280:.\Generated_Source\PSoC4/cyfitter_cfg.c **** * Function Name: AnalogSetDefault
 281:.\Generated_Source\PSoC4/cyfitter_cfg.c **** ********************************************************************************
 282:.\Generated_Source\PSoC4/cyfitter_cfg.c **** *
 283:.\Generated_Source\PSoC4/cyfitter_cfg.c **** * Summary:
 284:.\Generated_Source\PSoC4/cyfitter_cfg.c **** *  Sets up the analog portions of the chip to default values based on chip
 285:.\Generated_Source\PSoC4/cyfitter_cfg.c **** *  configuration options from the project.
 286:.\Generated_Source\PSoC4/cyfitter_cfg.c **** *
 287:.\Generated_Source\PSoC4/cyfitter_cfg.c **** * Parameters:
 288:.\Generated_Source\PSoC4/cyfitter_cfg.c **** *  void
 289:.\Generated_Source\PSoC4/cyfitter_cfg.c **** *
 290:.\Generated_Source\PSoC4/cyfitter_cfg.c **** * Return:
 291:.\Generated_Source\PSoC4/cyfitter_cfg.c **** *  void
 292:.\Generated_Source\PSoC4/cyfitter_cfg.c **** *
 293:.\Generated_Source\PSoC4/cyfitter_cfg.c **** *******************************************************************************/
 294:.\Generated_Source\PSoC4/cyfitter_cfg.c **** static void AnalogSetDefault(void);
 295:.\Generated_Source\PSoC4/cyfitter_cfg.c **** static void AnalogSetDefault(void)
 296:.\Generated_Source\PSoC4/cyfitter_cfg.c **** {
 472              		.loc 1 296 0
 473              		.cfi_startproc
 474 0000 80B5     		push	{r7, lr}
 475              	.LCFI17:
 476              		.cfi_def_cfa_offset 8
 477              		.cfi_offset 7, -8
 478              		.cfi_offset 14, -4
 479 0002 00AF     		add	r7, sp, #0
 480              	.LCFI18:
 481              		.cfi_def_cfa_register 7
 297:.\Generated_Source\PSoC4/cyfitter_cfg.c **** }
 482              		.loc 1 297 0
 483 0004 BD46     		mov	sp, r7
 484              		@ sp needed for prologue
 485 0006 80BD     		pop	{r7, pc}
 486              		.cfi_endproc
 487              	.LFE6:
 488              		.size	AnalogSetDefault, .-AnalogSetDefault
 489              		.section	.psocinit
 490              		.align	2
 491              		.global	cyfitter_cfg
 492              		.code	16
 493              		.thumb_func
 494              		.type	cyfitter_cfg, %function
 495              	cyfitter_cfg:
ARM GAS  C:\Users\Milo\AppData\Local\Temp\ccJAA3Rs.s 			page 15


 496              	.LFB7:
 298:.\Generated_Source\PSoC4/cyfitter_cfg.c **** 
 299:.\Generated_Source\PSoC4/cyfitter_cfg.c **** #define CY_AMUX_UNUSED CYREG_CM0_ROM_DWT
 300:.\Generated_Source\PSoC4/cyfitter_cfg.c **** 
 301:.\Generated_Source\PSoC4/cyfitter_cfg.c **** 
 302:.\Generated_Source\PSoC4/cyfitter_cfg.c **** /*******************************************************************************
 303:.\Generated_Source\PSoC4/cyfitter_cfg.c **** * Function Name: cyfitter_cfg
 304:.\Generated_Source\PSoC4/cyfitter_cfg.c **** ********************************************************************************
 305:.\Generated_Source\PSoC4/cyfitter_cfg.c **** * Summary:
 306:.\Generated_Source\PSoC4/cyfitter_cfg.c **** *  This function is called by the start-up code for the selected device. It
 307:.\Generated_Source\PSoC4/cyfitter_cfg.c **** *  performs all of the necessary device configuration based on the design
 308:.\Generated_Source\PSoC4/cyfitter_cfg.c **** *  settings.  This includes settings from the Design Wide Resources (DWR) such
 309:.\Generated_Source\PSoC4/cyfitter_cfg.c **** *  as Clocks and Pins as well as any component configuration that is necessary.
 310:.\Generated_Source\PSoC4/cyfitter_cfg.c **** *
 311:.\Generated_Source\PSoC4/cyfitter_cfg.c **** * Parameters:  
 312:.\Generated_Source\PSoC4/cyfitter_cfg.c **** *   void
 313:.\Generated_Source\PSoC4/cyfitter_cfg.c **** *
 314:.\Generated_Source\PSoC4/cyfitter_cfg.c **** * Return:
 315:.\Generated_Source\PSoC4/cyfitter_cfg.c **** *   void
 316:.\Generated_Source\PSoC4/cyfitter_cfg.c **** *
 317:.\Generated_Source\PSoC4/cyfitter_cfg.c **** *******************************************************************************/
 318:.\Generated_Source\PSoC4/cyfitter_cfg.c **** CY_CFG_SECTION
 319:.\Generated_Source\PSoC4/cyfitter_cfg.c **** void cyfitter_cfg(void)
 320:.\Generated_Source\PSoC4/cyfitter_cfg.c **** {
 497              		.loc 1 320 0
 498              		.cfi_startproc
 499 0168 80B5     		push	{r7, lr}
 500              	.LCFI19:
 501              		.cfi_def_cfa_offset 8
 502              		.cfi_offset 7, -8
 503              		.cfi_offset 14, -4
 504 016a 86B0     		sub	sp, sp, #24
 505              	.LCFI20:
 506              		.cfi_def_cfa_offset 32
 507 016c 00AF     		add	r7, sp, #0
 508              	.LCFI21:
 509              		.cfi_def_cfa_register 7
 321:.\Generated_Source\PSoC4/cyfitter_cfg.c **** 	/* Disable interrupts by default. Let user enable if/when they want. */
 322:.\Generated_Source\PSoC4/cyfitter_cfg.c **** 	CyGlobalIntDisable;
 510              		.loc 1 322 0
 511              	@ 322 ".\Generated_Source\PSoC4\cyfitter_cfg.c" 1
 512 016e 72B6     		CPSID   i
 513              	@ 0 "" 2
 514              		.code	16
 515              	.LBB3:
 323:.\Generated_Source\PSoC4/cyfitter_cfg.c **** 
 324:.\Generated_Source\PSoC4/cyfitter_cfg.c **** 	{
 325:.\Generated_Source\PSoC4/cyfitter_cfg.c **** 		static const uint32 CYCODE cy_cfg_addr_table[] = {
 326:.\Generated_Source\PSoC4/cyfitter_cfg.c **** 			0x400F0001u, /* Base address: 0x400F0000 Count: 1 */
 327:.\Generated_Source\PSoC4/cyfitter_cfg.c **** 			0x400F3010u, /* Base address: 0x400F3000 Count: 16 */
 328:.\Generated_Source\PSoC4/cyfitter_cfg.c **** 			0x400F3136u, /* Base address: 0x400F3100 Count: 54 */
 329:.\Generated_Source\PSoC4/cyfitter_cfg.c **** 			0x400F3248u, /* Base address: 0x400F3200 Count: 72 */
 330:.\Generated_Source\PSoC4/cyfitter_cfg.c **** 			0x400F3344u, /* Base address: 0x400F3300 Count: 68 */
 331:.\Generated_Source\PSoC4/cyfitter_cfg.c **** 			0x400F4202u, /* Base address: 0x400F4200 Count: 2 */
 332:.\Generated_Source\PSoC4/cyfitter_cfg.c **** 			0x400F430Au, /* Base address: 0x400F4300 Count: 10 */
 333:.\Generated_Source\PSoC4/cyfitter_cfg.c **** 			0x400F6002u, /* Base address: 0x400F6000 Count: 2 */
 334:.\Generated_Source\PSoC4/cyfitter_cfg.c **** 		};
ARM GAS  C:\Users\Milo\AppData\Local\Temp\ccJAA3Rs.s 			page 16


 335:.\Generated_Source\PSoC4/cyfitter_cfg.c **** 
 336:.\Generated_Source\PSoC4/cyfitter_cfg.c **** 		static const cy_cfg_addrvalue_t CYCODE cy_cfg_data_table[] = {
 337:.\Generated_Source\PSoC4/cyfitter_cfg.c **** 			{0x81u, 0x0Fu},
 338:.\Generated_Source\PSoC4/cyfitter_cfg.c **** 			{0x00u, 0x01u},
 339:.\Generated_Source\PSoC4/cyfitter_cfg.c **** 			{0x02u, 0x02u},
 340:.\Generated_Source\PSoC4/cyfitter_cfg.c **** 			{0x10u, 0x04u},
 341:.\Generated_Source\PSoC4/cyfitter_cfg.c **** 			{0x17u, 0x01u},
 342:.\Generated_Source\PSoC4/cyfitter_cfg.c **** 			{0x18u, 0x06u},
 343:.\Generated_Source\PSoC4/cyfitter_cfg.c **** 			{0x19u, 0x01u},
 344:.\Generated_Source\PSoC4/cyfitter_cfg.c **** 			{0x1Au, 0x01u},
 345:.\Generated_Source\PSoC4/cyfitter_cfg.c **** 			{0x23u, 0x01u},
 346:.\Generated_Source\PSoC4/cyfitter_cfg.c **** 			{0x2Cu, 0x04u},
 347:.\Generated_Source\PSoC4/cyfitter_cfg.c **** 			{0x30u, 0x07u},
 348:.\Generated_Source\PSoC4/cyfitter_cfg.c **** 			{0x37u, 0x01u},
 349:.\Generated_Source\PSoC4/cyfitter_cfg.c **** 			{0x3Au, 0x02u},
 350:.\Generated_Source\PSoC4/cyfitter_cfg.c **** 			{0x3Fu, 0x40u},
 351:.\Generated_Source\PSoC4/cyfitter_cfg.c **** 			{0x58u, 0x04u},
 352:.\Generated_Source\PSoC4/cyfitter_cfg.c **** 			{0x59u, 0x04u},
 353:.\Generated_Source\PSoC4/cyfitter_cfg.c **** 			{0x5Fu, 0x01u},
 354:.\Generated_Source\PSoC4/cyfitter_cfg.c **** 			{0x03u, 0x40u},
 355:.\Generated_Source\PSoC4/cyfitter_cfg.c **** 			{0x04u, 0x80u},
 356:.\Generated_Source\PSoC4/cyfitter_cfg.c **** 			{0x05u, 0x04u},
 357:.\Generated_Source\PSoC4/cyfitter_cfg.c **** 			{0x06u, 0x84u},
 358:.\Generated_Source\PSoC4/cyfitter_cfg.c **** 			{0x08u, 0x10u},
 359:.\Generated_Source\PSoC4/cyfitter_cfg.c **** 			{0x0Au, 0x40u},
 360:.\Generated_Source\PSoC4/cyfitter_cfg.c **** 			{0x0Cu, 0x10u},
 361:.\Generated_Source\PSoC4/cyfitter_cfg.c **** 			{0x0Eu, 0x92u},
 362:.\Generated_Source\PSoC4/cyfitter_cfg.c **** 			{0x10u, 0x02u},
 363:.\Generated_Source\PSoC4/cyfitter_cfg.c **** 			{0x16u, 0x20u},
 364:.\Generated_Source\PSoC4/cyfitter_cfg.c **** 			{0x17u, 0x19u},
 365:.\Generated_Source\PSoC4/cyfitter_cfg.c **** 			{0x18u, 0x80u},
 366:.\Generated_Source\PSoC4/cyfitter_cfg.c **** 			{0x19u, 0x02u},
 367:.\Generated_Source\PSoC4/cyfitter_cfg.c **** 			{0x1Au, 0x40u},
 368:.\Generated_Source\PSoC4/cyfitter_cfg.c **** 			{0x1Bu, 0x01u},
 369:.\Generated_Source\PSoC4/cyfitter_cfg.c **** 			{0x1Eu, 0x80u},
 370:.\Generated_Source\PSoC4/cyfitter_cfg.c **** 			{0x22u, 0x40u},
 371:.\Generated_Source\PSoC4/cyfitter_cfg.c **** 			{0x26u, 0x80u},
 372:.\Generated_Source\PSoC4/cyfitter_cfg.c **** 			{0x27u, 0x08u},
 373:.\Generated_Source\PSoC4/cyfitter_cfg.c **** 			{0x29u, 0x02u},
 374:.\Generated_Source\PSoC4/cyfitter_cfg.c **** 			{0x2Bu, 0x40u},
 375:.\Generated_Source\PSoC4/cyfitter_cfg.c **** 			{0x2Du, 0x02u},
 376:.\Generated_Source\PSoC4/cyfitter_cfg.c **** 			{0x2Eu, 0x20u},
 377:.\Generated_Source\PSoC4/cyfitter_cfg.c **** 			{0x2Fu, 0x01u},
 378:.\Generated_Source\PSoC4/cyfitter_cfg.c **** 			{0x30u, 0x10u},
 379:.\Generated_Source\PSoC4/cyfitter_cfg.c **** 			{0x31u, 0x14u},
 380:.\Generated_Source\PSoC4/cyfitter_cfg.c **** 			{0x35u, 0x14u},
 381:.\Generated_Source\PSoC4/cyfitter_cfg.c **** 			{0x37u, 0x01u},
 382:.\Generated_Source\PSoC4/cyfitter_cfg.c **** 			{0x3Cu, 0x80u},
 383:.\Generated_Source\PSoC4/cyfitter_cfg.c **** 			{0x3Du, 0x01u},
 384:.\Generated_Source\PSoC4/cyfitter_cfg.c **** 			{0x3Eu, 0x14u},
 385:.\Generated_Source\PSoC4/cyfitter_cfg.c **** 			{0x44u, 0x98u},
 386:.\Generated_Source\PSoC4/cyfitter_cfg.c **** 			{0x47u, 0x40u},
 387:.\Generated_Source\PSoC4/cyfitter_cfg.c **** 			{0x4Du, 0x08u},
 388:.\Generated_Source\PSoC4/cyfitter_cfg.c **** 			{0x4Fu, 0x80u},
 389:.\Generated_Source\PSoC4/cyfitter_cfg.c **** 			{0x54u, 0x82u},
 390:.\Generated_Source\PSoC4/cyfitter_cfg.c **** 			{0x56u, 0x54u},
 391:.\Generated_Source\PSoC4/cyfitter_cfg.c **** 			{0x62u, 0x80u},
ARM GAS  C:\Users\Milo\AppData\Local\Temp\ccJAA3Rs.s 			page 17


 392:.\Generated_Source\PSoC4/cyfitter_cfg.c **** 			{0x63u, 0x01u},
 393:.\Generated_Source\PSoC4/cyfitter_cfg.c **** 			{0x67u, 0x03u},
 394:.\Generated_Source\PSoC4/cyfitter_cfg.c **** 			{0x6Cu, 0x20u},
 395:.\Generated_Source\PSoC4/cyfitter_cfg.c **** 			{0x6Du, 0x41u},
 396:.\Generated_Source\PSoC4/cyfitter_cfg.c **** 			{0x6Eu, 0x16u},
 397:.\Generated_Source\PSoC4/cyfitter_cfg.c **** 			{0x6Fu, 0x11u},
 398:.\Generated_Source\PSoC4/cyfitter_cfg.c **** 			{0x74u, 0x40u},
 399:.\Generated_Source\PSoC4/cyfitter_cfg.c **** 			{0xC0u, 0xF8u},
 400:.\Generated_Source\PSoC4/cyfitter_cfg.c **** 			{0xC2u, 0xFAu},
 401:.\Generated_Source\PSoC4/cyfitter_cfg.c **** 			{0xC4u, 0x71u},
 402:.\Generated_Source\PSoC4/cyfitter_cfg.c **** 			{0xCAu, 0xB1u},
 403:.\Generated_Source\PSoC4/cyfitter_cfg.c **** 			{0xCCu, 0xE6u},
 404:.\Generated_Source\PSoC4/cyfitter_cfg.c **** 			{0xCEu, 0xF0u},
 405:.\Generated_Source\PSoC4/cyfitter_cfg.c **** 			{0xD0u, 0xF0u},
 406:.\Generated_Source\PSoC4/cyfitter_cfg.c **** 			{0xD2u, 0x10u},
 407:.\Generated_Source\PSoC4/cyfitter_cfg.c **** 			{0xD8u, 0x10u},
 408:.\Generated_Source\PSoC4/cyfitter_cfg.c **** 			{0x00u, 0x1Au},
 409:.\Generated_Source\PSoC4/cyfitter_cfg.c **** 			{0x01u, 0x02u},
 410:.\Generated_Source\PSoC4/cyfitter_cfg.c **** 			{0x03u, 0x08u},
 411:.\Generated_Source\PSoC4/cyfitter_cfg.c **** 			{0x04u, 0x13u},
 412:.\Generated_Source\PSoC4/cyfitter_cfg.c **** 			{0x05u, 0x1Du},
 413:.\Generated_Source\PSoC4/cyfitter_cfg.c **** 			{0x06u, 0x04u},
 414:.\Generated_Source\PSoC4/cyfitter_cfg.c **** 			{0x08u, 0x01u},
 415:.\Generated_Source\PSoC4/cyfitter_cfg.c **** 			{0x09u, 0x1Du},
 416:.\Generated_Source\PSoC4/cyfitter_cfg.c **** 			{0x0Au, 0x18u},
 417:.\Generated_Source\PSoC4/cyfitter_cfg.c **** 			{0x0Cu, 0x18u},
 418:.\Generated_Source\PSoC4/cyfitter_cfg.c **** 			{0x0Du, 0x1Du},
 419:.\Generated_Source\PSoC4/cyfitter_cfg.c **** 			{0x0Eu, 0x02u},
 420:.\Generated_Source\PSoC4/cyfitter_cfg.c **** 			{0x10u, 0x02u},
 421:.\Generated_Source\PSoC4/cyfitter_cfg.c **** 			{0x11u, 0x0Du},
 422:.\Generated_Source\PSoC4/cyfitter_cfg.c **** 			{0x13u, 0x10u},
 423:.\Generated_Source\PSoC4/cyfitter_cfg.c **** 			{0x14u, 0x02u},
 424:.\Generated_Source\PSoC4/cyfitter_cfg.c **** 			{0x16u, 0x18u},
 425:.\Generated_Source\PSoC4/cyfitter_cfg.c **** 			{0x19u, 0x02u},
 426:.\Generated_Source\PSoC4/cyfitter_cfg.c **** 			{0x1Bu, 0x04u},
 427:.\Generated_Source\PSoC4/cyfitter_cfg.c **** 			{0x1Cu, 0x1Cu},
 428:.\Generated_Source\PSoC4/cyfitter_cfg.c **** 			{0x1Du, 0x02u},
 429:.\Generated_Source\PSoC4/cyfitter_cfg.c **** 			{0x1Eu, 0x03u},
 430:.\Generated_Source\PSoC4/cyfitter_cfg.c **** 			{0x1Fu, 0x0Du},
 431:.\Generated_Source\PSoC4/cyfitter_cfg.c **** 			{0x20u, 0x1Au},
 432:.\Generated_Source\PSoC4/cyfitter_cfg.c **** 			{0x23u, 0x10u},
 433:.\Generated_Source\PSoC4/cyfitter_cfg.c **** 			{0x24u, 0x18u},
 434:.\Generated_Source\PSoC4/cyfitter_cfg.c **** 			{0x28u, 0x18u},
 435:.\Generated_Source\PSoC4/cyfitter_cfg.c **** 			{0x29u, 0x01u},
 436:.\Generated_Source\PSoC4/cyfitter_cfg.c **** 			{0x2Au, 0x02u},
 437:.\Generated_Source\PSoC4/cyfitter_cfg.c **** 			{0x2Bu, 0x02u},
 438:.\Generated_Source\PSoC4/cyfitter_cfg.c **** 			{0x2Du, 0x1Du},
 439:.\Generated_Source\PSoC4/cyfitter_cfg.c **** 			{0x31u, 0x0Fu},
 440:.\Generated_Source\PSoC4/cyfitter_cfg.c **** 			{0x32u, 0x13u},
 441:.\Generated_Source\PSoC4/cyfitter_cfg.c **** 			{0x34u, 0x0Fu},
 442:.\Generated_Source\PSoC4/cyfitter_cfg.c **** 			{0x35u, 0x10u},
 443:.\Generated_Source\PSoC4/cyfitter_cfg.c **** 			{0x3Au, 0x20u},
 444:.\Generated_Source\PSoC4/cyfitter_cfg.c **** 			{0x3Bu, 0x02u},
 445:.\Generated_Source\PSoC4/cyfitter_cfg.c **** 			{0x3Fu, 0x10u},
 446:.\Generated_Source\PSoC4/cyfitter_cfg.c **** 			{0x54u, 0x40u},
 447:.\Generated_Source\PSoC4/cyfitter_cfg.c **** 			{0x58u, 0x04u},
 448:.\Generated_Source\PSoC4/cyfitter_cfg.c **** 			{0x59u, 0x04u},
ARM GAS  C:\Users\Milo\AppData\Local\Temp\ccJAA3Rs.s 			page 18


 449:.\Generated_Source\PSoC4/cyfitter_cfg.c **** 			{0x5Bu, 0x04u},
 450:.\Generated_Source\PSoC4/cyfitter_cfg.c **** 			{0x5Fu, 0x01u},
 451:.\Generated_Source\PSoC4/cyfitter_cfg.c **** 			{0x80u, 0x08u},
 452:.\Generated_Source\PSoC4/cyfitter_cfg.c **** 			{0x82u, 0x06u},
 453:.\Generated_Source\PSoC4/cyfitter_cfg.c **** 			{0x84u, 0x08u},
 454:.\Generated_Source\PSoC4/cyfitter_cfg.c **** 			{0x86u, 0x06u},
 455:.\Generated_Source\PSoC4/cyfitter_cfg.c **** 			{0x8Au, 0x04u},
 456:.\Generated_Source\PSoC4/cyfitter_cfg.c **** 			{0x8Eu, 0x01u},
 457:.\Generated_Source\PSoC4/cyfitter_cfg.c **** 			{0x90u, 0x01u},
 458:.\Generated_Source\PSoC4/cyfitter_cfg.c **** 			{0x91u, 0x0Eu},
 459:.\Generated_Source\PSoC4/cyfitter_cfg.c **** 			{0x94u, 0x01u},
 460:.\Generated_Source\PSoC4/cyfitter_cfg.c **** 			{0x95u, 0x03u},
 461:.\Generated_Source\PSoC4/cyfitter_cfg.c **** 			{0x97u, 0x04u},
 462:.\Generated_Source\PSoC4/cyfitter_cfg.c **** 			{0x98u, 0x0Au},
 463:.\Generated_Source\PSoC4/cyfitter_cfg.c **** 			{0x99u, 0x05u},
 464:.\Generated_Source\PSoC4/cyfitter_cfg.c **** 			{0x9Bu, 0x0Au},
 465:.\Generated_Source\PSoC4/cyfitter_cfg.c **** 			{0xA0u, 0x01u},
 466:.\Generated_Source\PSoC4/cyfitter_cfg.c **** 			{0xA4u, 0x01u},
 467:.\Generated_Source\PSoC4/cyfitter_cfg.c **** 			{0xADu, 0x04u},
 468:.\Generated_Source\PSoC4/cyfitter_cfg.c **** 			{0xAFu, 0x09u},
 469:.\Generated_Source\PSoC4/cyfitter_cfg.c **** 			{0xB0u, 0x01u},
 470:.\Generated_Source\PSoC4/cyfitter_cfg.c **** 			{0xB1u, 0x0Fu},
 471:.\Generated_Source\PSoC4/cyfitter_cfg.c **** 			{0xB2u, 0x06u},
 472:.\Generated_Source\PSoC4/cyfitter_cfg.c **** 			{0xB6u, 0x08u},
 473:.\Generated_Source\PSoC4/cyfitter_cfg.c **** 			{0xB9u, 0x02u},
 474:.\Generated_Source\PSoC4/cyfitter_cfg.c **** 			{0xBEu, 0x41u},
 475:.\Generated_Source\PSoC4/cyfitter_cfg.c **** 			{0xD4u, 0x09u},
 476:.\Generated_Source\PSoC4/cyfitter_cfg.c **** 			{0xD8u, 0x04u},
 477:.\Generated_Source\PSoC4/cyfitter_cfg.c **** 			{0xD9u, 0x04u},
 478:.\Generated_Source\PSoC4/cyfitter_cfg.c **** 			{0xDBu, 0x04u},
 479:.\Generated_Source\PSoC4/cyfitter_cfg.c **** 			{0xDFu, 0x01u},
 480:.\Generated_Source\PSoC4/cyfitter_cfg.c **** 			{0x00u, 0x08u},
 481:.\Generated_Source\PSoC4/cyfitter_cfg.c **** 			{0x01u, 0x42u},
 482:.\Generated_Source\PSoC4/cyfitter_cfg.c **** 			{0x03u, 0x09u},
 483:.\Generated_Source\PSoC4/cyfitter_cfg.c **** 			{0x05u, 0x14u},
 484:.\Generated_Source\PSoC4/cyfitter_cfg.c **** 			{0x06u, 0x80u},
 485:.\Generated_Source\PSoC4/cyfitter_cfg.c **** 			{0x07u, 0x01u},
 486:.\Generated_Source\PSoC4/cyfitter_cfg.c **** 			{0x0Au, 0x50u},
 487:.\Generated_Source\PSoC4/cyfitter_cfg.c **** 			{0x0Bu, 0x08u},
 488:.\Generated_Source\PSoC4/cyfitter_cfg.c **** 			{0x0Cu, 0x02u},
 489:.\Generated_Source\PSoC4/cyfitter_cfg.c **** 			{0x0Du, 0x01u},
 490:.\Generated_Source\PSoC4/cyfitter_cfg.c **** 			{0x0Eu, 0x10u},
 491:.\Generated_Source\PSoC4/cyfitter_cfg.c **** 			{0x0Fu, 0x02u},
 492:.\Generated_Source\PSoC4/cyfitter_cfg.c **** 			{0x10u, 0x20u},
 493:.\Generated_Source\PSoC4/cyfitter_cfg.c **** 			{0x11u, 0x01u},
 494:.\Generated_Source\PSoC4/cyfitter_cfg.c **** 			{0x15u, 0x01u},
 495:.\Generated_Source\PSoC4/cyfitter_cfg.c **** 			{0x17u, 0x18u},
 496:.\Generated_Source\PSoC4/cyfitter_cfg.c **** 			{0x18u, 0x40u},
 497:.\Generated_Source\PSoC4/cyfitter_cfg.c **** 			{0x19u, 0x41u},
 498:.\Generated_Source\PSoC4/cyfitter_cfg.c **** 			{0x1Bu, 0x08u},
 499:.\Generated_Source\PSoC4/cyfitter_cfg.c **** 			{0x1Cu, 0x08u},
 500:.\Generated_Source\PSoC4/cyfitter_cfg.c **** 			{0x1Du, 0x14u},
 501:.\Generated_Source\PSoC4/cyfitter_cfg.c **** 			{0x1Fu, 0x04u},
 502:.\Generated_Source\PSoC4/cyfitter_cfg.c **** 			{0x21u, 0x02u},
 503:.\Generated_Source\PSoC4/cyfitter_cfg.c **** 			{0x25u, 0x20u},
 504:.\Generated_Source\PSoC4/cyfitter_cfg.c **** 			{0x27u, 0x40u},
 505:.\Generated_Source\PSoC4/cyfitter_cfg.c **** 			{0x2Bu, 0x01u},
ARM GAS  C:\Users\Milo\AppData\Local\Temp\ccJAA3Rs.s 			page 19


 506:.\Generated_Source\PSoC4/cyfitter_cfg.c **** 			{0x2Cu, 0x80u},
 507:.\Generated_Source\PSoC4/cyfitter_cfg.c **** 			{0x2Fu, 0x05u},
 508:.\Generated_Source\PSoC4/cyfitter_cfg.c **** 			{0x31u, 0x16u},
 509:.\Generated_Source\PSoC4/cyfitter_cfg.c **** 			{0x35u, 0x10u},
 510:.\Generated_Source\PSoC4/cyfitter_cfg.c **** 			{0x37u, 0x41u},
 511:.\Generated_Source\PSoC4/cyfitter_cfg.c **** 			{0x39u, 0x01u},
 512:.\Generated_Source\PSoC4/cyfitter_cfg.c **** 			{0x3Bu, 0x02u},
 513:.\Generated_Source\PSoC4/cyfitter_cfg.c **** 			{0x3Cu, 0x80u},
 514:.\Generated_Source\PSoC4/cyfitter_cfg.c **** 			{0x3Eu, 0xD4u},
 515:.\Generated_Source\PSoC4/cyfitter_cfg.c **** 			{0x3Fu, 0x02u},
 516:.\Generated_Source\PSoC4/cyfitter_cfg.c **** 			{0x40u, 0xC0u},
 517:.\Generated_Source\PSoC4/cyfitter_cfg.c **** 			{0x45u, 0x20u},
 518:.\Generated_Source\PSoC4/cyfitter_cfg.c **** 			{0x46u, 0x08u},
 519:.\Generated_Source\PSoC4/cyfitter_cfg.c **** 			{0x59u, 0x29u},
 520:.\Generated_Source\PSoC4/cyfitter_cfg.c **** 			{0x5Au, 0x80u},
 521:.\Generated_Source\PSoC4/cyfitter_cfg.c **** 			{0x61u, 0x40u},
 522:.\Generated_Source\PSoC4/cyfitter_cfg.c **** 			{0x66u, 0x58u},
 523:.\Generated_Source\PSoC4/cyfitter_cfg.c **** 			{0x85u, 0x21u},
 524:.\Generated_Source\PSoC4/cyfitter_cfg.c **** 			{0x8Bu, 0x08u},
 525:.\Generated_Source\PSoC4/cyfitter_cfg.c **** 			{0x91u, 0x41u},
 526:.\Generated_Source\PSoC4/cyfitter_cfg.c **** 			{0x92u, 0x94u},
 527:.\Generated_Source\PSoC4/cyfitter_cfg.c **** 			{0x99u, 0x0Au},
 528:.\Generated_Source\PSoC4/cyfitter_cfg.c **** 			{0x9Au, 0x50u},
 529:.\Generated_Source\PSoC4/cyfitter_cfg.c **** 			{0x9Bu, 0x18u},
 530:.\Generated_Source\PSoC4/cyfitter_cfg.c **** 			{0x9Cu, 0x80u},
 531:.\Generated_Source\PSoC4/cyfitter_cfg.c **** 			{0x9Du, 0x14u},
 532:.\Generated_Source\PSoC4/cyfitter_cfg.c **** 			{0x9Eu, 0x80u},
 533:.\Generated_Source\PSoC4/cyfitter_cfg.c **** 			{0xA0u, 0xE2u},
 534:.\Generated_Source\PSoC4/cyfitter_cfg.c **** 			{0xA3u, 0x01u},
 535:.\Generated_Source\PSoC4/cyfitter_cfg.c **** 			{0xAEu, 0x40u},
 536:.\Generated_Source\PSoC4/cyfitter_cfg.c **** 			{0xB4u, 0x08u},
 537:.\Generated_Source\PSoC4/cyfitter_cfg.c **** 			{0xB5u, 0x04u},
 538:.\Generated_Source\PSoC4/cyfitter_cfg.c **** 			{0xB7u, 0x40u},
 539:.\Generated_Source\PSoC4/cyfitter_cfg.c **** 			{0xC0u, 0xFFu},
 540:.\Generated_Source\PSoC4/cyfitter_cfg.c **** 			{0xC2u, 0xBEu},
 541:.\Generated_Source\PSoC4/cyfitter_cfg.c **** 			{0xC4u, 0x7Cu},
 542:.\Generated_Source\PSoC4/cyfitter_cfg.c **** 			{0xCAu, 0xB8u},
 543:.\Generated_Source\PSoC4/cyfitter_cfg.c **** 			{0xCCu, 0xB7u},
 544:.\Generated_Source\PSoC4/cyfitter_cfg.c **** 			{0xCEu, 0xF0u},
 545:.\Generated_Source\PSoC4/cyfitter_cfg.c **** 			{0xD6u, 0x0Fu},
 546:.\Generated_Source\PSoC4/cyfitter_cfg.c **** 			{0xD8u, 0x78u},
 547:.\Generated_Source\PSoC4/cyfitter_cfg.c **** 			{0xECu, 0x02u},
 548:.\Generated_Source\PSoC4/cyfitter_cfg.c **** 			{0x08u, 0x20u},
 549:.\Generated_Source\PSoC4/cyfitter_cfg.c **** 			{0xC2u, 0x02u},
 550:.\Generated_Source\PSoC4/cyfitter_cfg.c **** 			{0x5Eu, 0x80u},
 551:.\Generated_Source\PSoC4/cyfitter_cfg.c **** 			{0x64u, 0x10u},
 552:.\Generated_Source\PSoC4/cyfitter_cfg.c **** 			{0x8Au, 0x40u},
 553:.\Generated_Source\PSoC4/cyfitter_cfg.c **** 			{0x98u, 0x10u},
 554:.\Generated_Source\PSoC4/cyfitter_cfg.c **** 			{0xACu, 0x10u},
 555:.\Generated_Source\PSoC4/cyfitter_cfg.c **** 			{0xB4u, 0x20u},
 556:.\Generated_Source\PSoC4/cyfitter_cfg.c **** 			{0xD6u, 0x04u},
 557:.\Generated_Source\PSoC4/cyfitter_cfg.c **** 			{0xD8u, 0x01u},
 558:.\Generated_Source\PSoC4/cyfitter_cfg.c **** 			{0xE0u, 0x04u},
 559:.\Generated_Source\PSoC4/cyfitter_cfg.c **** 			{0xEAu, 0x02u},
 560:.\Generated_Source\PSoC4/cyfitter_cfg.c **** 			{0x10u, 0x01u},
 561:.\Generated_Source\PSoC4/cyfitter_cfg.c **** 			{0x11u, 0x01u},
 562:.\Generated_Source\PSoC4/cyfitter_cfg.c **** 		};
ARM GAS  C:\Users\Milo\AppData\Local\Temp\ccJAA3Rs.s 			page 20


 563:.\Generated_Source\PSoC4/cyfitter_cfg.c **** 
 564:.\Generated_Source\PSoC4/cyfitter_cfg.c **** 
 565:.\Generated_Source\PSoC4/cyfitter_cfg.c **** 
 566:.\Generated_Source\PSoC4/cyfitter_cfg.c **** 		CYPACKED typedef struct {
 567:.\Generated_Source\PSoC4/cyfitter_cfg.c **** 			void CYFAR *address;
 568:.\Generated_Source\PSoC4/cyfitter_cfg.c **** 			uint16 size;
 569:.\Generated_Source\PSoC4/cyfitter_cfg.c **** 		} CYPACKED_ATTR cfg_memset_t;
 570:.\Generated_Source\PSoC4/cyfitter_cfg.c **** 
 571:.\Generated_Source\PSoC4/cyfitter_cfg.c **** 
 572:.\Generated_Source\PSoC4/cyfitter_cfg.c **** 		CYPACKED typedef struct {
 573:.\Generated_Source\PSoC4/cyfitter_cfg.c **** 			void CYFAR *dest;
 574:.\Generated_Source\PSoC4/cyfitter_cfg.c **** 			const void CYCODE *src;
 575:.\Generated_Source\PSoC4/cyfitter_cfg.c **** 			uint16 size;
 576:.\Generated_Source\PSoC4/cyfitter_cfg.c **** 		} CYPACKED_ATTR cfg_memcpy_t;
 577:.\Generated_Source\PSoC4/cyfitter_cfg.c **** 
 578:.\Generated_Source\PSoC4/cyfitter_cfg.c **** 		static const cfg_memset_t CYCODE cfg_memset_list [] = {
 579:.\Generated_Source\PSoC4/cyfitter_cfg.c **** 			/* address, size */
 580:.\Generated_Source\PSoC4/cyfitter_cfg.c **** 			{(void CYFAR *)(CYDEV_UDB_P0_U0_BASE), 128u},
 581:.\Generated_Source\PSoC4/cyfitter_cfg.c **** 			{(void CYFAR *)(CYDEV_UDB_P0_ROUTE_BASE), 768u},
 582:.\Generated_Source\PSoC4/cyfitter_cfg.c **** 			{(void CYFAR *)(CYDEV_UDB_DSI0_BASE), 1024u},
 583:.\Generated_Source\PSoC4/cyfitter_cfg.c **** 		};
 584:.\Generated_Source\PSoC4/cyfitter_cfg.c **** 
 585:.\Generated_Source\PSoC4/cyfitter_cfg.c **** 		/* UDB_0_1_1_CONFIG Address: CYDEV_UDB_P0_U1_BASE Size (bytes): 128 */
 586:.\Generated_Source\PSoC4/cyfitter_cfg.c **** 		static const uint8 CYCODE BS_UDB_0_1_1_CONFIG_VAL[] = {
 587:.\Generated_Source\PSoC4/cyfitter_cfg.c **** 			0x04u, 0x40u, 0x00u, 0x00u, 0x07u, 0x40u, 0x38u, 0x00u, 0x60u, 0x00u, 0x00u, 0x40u, 0x56u, 0x40u
 588:.\Generated_Source\PSoC4/cyfitter_cfg.c **** 			0x01u, 0x40u, 0x00u, 0x00u, 0x00u, 0x03u, 0x04u, 0x3Cu, 0x0Au, 0x15u, 0x10u, 0x6Au, 0x04u, 0x00u
 589:.\Generated_Source\PSoC4/cyfitter_cfg.c **** 			0x04u, 0x79u, 0x00u, 0x06u, 0x04u, 0x00u, 0x00u, 0x00u, 0x04u, 0x10u, 0x00u, 0x60u, 0x00u, 0x02u
 590:.\Generated_Source\PSoC4/cyfitter_cfg.c **** 			0x7Fu, 0x00u, 0x00u, 0x00u, 0x00u, 0x70u, 0x00u, 0x0Fu, 0x02u, 0x00u, 0x00u, 0xA0u, 0x00u, 0x00u
 591:.\Generated_Source\PSoC4/cyfitter_cfg.c **** 			0x35u, 0x01u, 0x40u, 0x00u, 0x02u, 0x0Eu, 0xFDu, 0xCBu, 0x3Du, 0xFFu, 0xFFu, 0xFFu, 0x22u, 0x00u
 592:.\Generated_Source\PSoC4/cyfitter_cfg.c **** 			0x04u, 0x00u, 0x00u, 0x00u, 0x00u, 0x00u, 0x02u, 0x20u, 0x04u, 0x04u, 0x04u, 0x04u, 0x00u, 0x00u
 593:.\Generated_Source\PSoC4/cyfitter_cfg.c **** 			0x00u, 0x00u, 0xC0u, 0x00u, 0x40u, 0x01u, 0x10u, 0x11u, 0xC0u, 0x01u, 0x00u, 0x11u, 0x40u, 0x01u
 594:.\Generated_Source\PSoC4/cyfitter_cfg.c **** 			0x00u, 0x00u, 0x00u, 0x00u, 0x00u, 0x00u, 0x00u, 0x00u, 0x00u, 0x00u, 0x00u, 0x00u, 0x00u, 0x00u
 595:.\Generated_Source\PSoC4/cyfitter_cfg.c **** 
 596:.\Generated_Source\PSoC4/cyfitter_cfg.c **** 		static const cfg_memcpy_t CYCODE cfg_memcpy_list [] = {
 597:.\Generated_Source\PSoC4/cyfitter_cfg.c **** 			/* dest, src, size */
 598:.\Generated_Source\PSoC4/cyfitter_cfg.c **** 			{(void CYFAR *)(CYDEV_UDB_P0_U1_BASE), BS_UDB_0_1_1_CONFIG_VAL, 128u},
 599:.\Generated_Source\PSoC4/cyfitter_cfg.c **** 		};
 600:.\Generated_Source\PSoC4/cyfitter_cfg.c **** 
 601:.\Generated_Source\PSoC4/cyfitter_cfg.c **** 		uint8 CYDATA i;
 602:.\Generated_Source\PSoC4/cyfitter_cfg.c **** 
 603:.\Generated_Source\PSoC4/cyfitter_cfg.c **** 		/* Zero out critical memory blocks before beginning configuration */
 604:.\Generated_Source\PSoC4/cyfitter_cfg.c **** 		for (i = 0u; i < (sizeof(cfg_memset_list)/sizeof(cfg_memset_list[0])); i++)
 516              		.loc 1 604 0
 517 0170 3B1C     		mov	r3, r7
 518 0172 1733     		add	r3, r3, #23
 519 0174 0022     		mov	r2, #0
 520 0176 1A70     		strb	r2, [r3]
 521 0178 26E0     		b	.L20
 522              	.L21:
 523              	.LBB4:
 605:.\Generated_Source\PSoC4/cyfitter_cfg.c **** 		{
 606:.\Generated_Source\PSoC4/cyfitter_cfg.c **** 			const cfg_memset_t CYCODE * CYDATA ms = &cfg_memset_list[i];
 524              		.loc 1 606 0 discriminator 2
 525 017a 3B1C     		mov	r3, r7
 526 017c 1733     		add	r3, r3, #23
 527 017e 1A78     		ldrb	r2, [r3]
 528 0180 131C     		mov	r3, r2
ARM GAS  C:\Users\Milo\AppData\Local\Temp\ccJAA3Rs.s 			page 21


 529 0182 5B00     		lsl	r3, r3, #1
 530 0184 9B18     		add	r3, r3, r2
 531 0186 5B00     		lsl	r3, r3, #1
 532 0188 604A     		ldr	r2, .L24
 533 018a 9B18     		add	r3, r3, r2
 534 018c 3B61     		str	r3, [r7, #16]
 607:.\Generated_Source\PSoC4/cyfitter_cfg.c **** 			CYMEMZERO(ms->address, (uint32)(ms->size));
 535              		.loc 1 607 0 discriminator 2
 536 018e 3B69     		ldr	r3, [r7, #16]
 537 0190 1A78     		ldrb	r2, [r3]
 538 0192 5978     		ldrb	r1, [r3, #1]
 539 0194 0902     		lsl	r1, r1, #8
 540 0196 0A43     		orr	r2, r1
 541 0198 9978     		ldrb	r1, [r3, #2]
 542 019a 0904     		lsl	r1, r1, #16
 543 019c 0A43     		orr	r2, r1
 544 019e DB78     		ldrb	r3, [r3, #3]
 545 01a0 1B06     		lsl	r3, r3, #24
 546 01a2 1343     		orr	r3, r2
 547 01a4 1A1C     		mov	r2, r3
 548 01a6 3B69     		ldr	r3, [r7, #16]
 549 01a8 1979     		ldrb	r1, [r3, #4]
 550 01aa 5B79     		ldrb	r3, [r3, #5]
 551 01ac 1B02     		lsl	r3, r3, #8
 552 01ae 0B43     		orr	r3, r1
 553 01b0 9BB2     		uxth	r3, r3
 554 01b2 101C     		mov	r0, r2
 555 01b4 191C     		mov	r1, r3
 556 01b6 FFF7FEFF 		bl	CYMEMZERO
 557              	.LBE4:
 604:.\Generated_Source\PSoC4/cyfitter_cfg.c **** 		for (i = 0u; i < (sizeof(cfg_memset_list)/sizeof(cfg_memset_list[0])); i++)
 558              		.loc 1 604 0 discriminator 2
 559 01ba 3B1C     		mov	r3, r7
 560 01bc 1733     		add	r3, r3, #23
 561 01be 3A1C     		mov	r2, r7
 562 01c0 1732     		add	r2, r2, #23
 563 01c2 1278     		ldrb	r2, [r2]
 564 01c4 0132     		add	r2, r2, #1
 565 01c6 1A70     		strb	r2, [r3]
 566              	.L20:
 604:.\Generated_Source\PSoC4/cyfitter_cfg.c **** 		for (i = 0u; i < (sizeof(cfg_memset_list)/sizeof(cfg_memset_list[0])); i++)
 567              		.loc 1 604 0 is_stmt 0 discriminator 1
 568 01c8 3B1C     		mov	r3, r7
 569 01ca 1733     		add	r3, r3, #23
 570 01cc 1B78     		ldrb	r3, [r3]
 571 01ce 022B     		cmp	r3, #2
 572 01d0 D3D9     		bls	.L21
 608:.\Generated_Source\PSoC4/cyfitter_cfg.c **** 		}
 609:.\Generated_Source\PSoC4/cyfitter_cfg.c **** 
 610:.\Generated_Source\PSoC4/cyfitter_cfg.c **** 		/* Copy device configuration data into registers */
 611:.\Generated_Source\PSoC4/cyfitter_cfg.c **** 		for (i = 0u; i < (sizeof(cfg_memcpy_list)/sizeof(cfg_memcpy_list[0])); i++)
 573              		.loc 1 611 0 is_stmt 1
 574 01d2 3B1C     		mov	r3, r7
 575 01d4 1733     		add	r3, r3, #23
 576 01d6 0022     		mov	r2, #0
 577 01d8 1A70     		strb	r2, [r3]
 578 01da 38E0     		b	.L22
ARM GAS  C:\Users\Milo\AppData\Local\Temp\ccJAA3Rs.s 			page 22


 579              	.L23:
 580              	.LBB5:
 612:.\Generated_Source\PSoC4/cyfitter_cfg.c **** 		{
 613:.\Generated_Source\PSoC4/cyfitter_cfg.c **** 			const cfg_memcpy_t CYCODE * CYDATA mc = &cfg_memcpy_list[i];
 581              		.loc 1 613 0 discriminator 2
 582 01dc 3B1C     		mov	r3, r7
 583 01de 1733     		add	r3, r3, #23
 584 01e0 1A78     		ldrb	r2, [r3]
 585 01e2 131C     		mov	r3, r2
 586 01e4 9B00     		lsl	r3, r3, #2
 587 01e6 9B18     		add	r3, r3, r2
 588 01e8 5B00     		lsl	r3, r3, #1
 589 01ea 494A     		ldr	r2, .L24+4
 590 01ec 9B18     		add	r3, r3, r2
 591 01ee FB60     		str	r3, [r7, #12]
 614:.\Generated_Source\PSoC4/cyfitter_cfg.c **** 			void * CYDATA destPtr = mc->dest;
 592              		.loc 1 614 0 discriminator 2
 593 01f0 FB68     		ldr	r3, [r7, #12]
 594 01f2 1A78     		ldrb	r2, [r3]
 595 01f4 5978     		ldrb	r1, [r3, #1]
 596 01f6 0902     		lsl	r1, r1, #8
 597 01f8 0A43     		orr	r2, r1
 598 01fa 9978     		ldrb	r1, [r3, #2]
 599 01fc 0904     		lsl	r1, r1, #16
 600 01fe 0A43     		orr	r2, r1
 601 0200 DB78     		ldrb	r3, [r3, #3]
 602 0202 1B06     		lsl	r3, r3, #24
 603 0204 1343     		orr	r3, r2
 604 0206 BB60     		str	r3, [r7, #8]
 615:.\Generated_Source\PSoC4/cyfitter_cfg.c **** 			const void CYCODE * CYDATA srcPtr = mc->src;
 605              		.loc 1 615 0 discriminator 2
 606 0208 FB68     		ldr	r3, [r7, #12]
 607 020a 1A79     		ldrb	r2, [r3, #4]
 608 020c 5979     		ldrb	r1, [r3, #5]
 609 020e 0902     		lsl	r1, r1, #8
 610 0210 0A43     		orr	r2, r1
 611 0212 9979     		ldrb	r1, [r3, #6]
 612 0214 0904     		lsl	r1, r1, #16
 613 0216 0A43     		orr	r2, r1
 614 0218 DB79     		ldrb	r3, [r3, #7]
 615 021a 1B06     		lsl	r3, r3, #24
 616 021c 1343     		orr	r3, r2
 617 021e 7B60     		str	r3, [r7, #4]
 616:.\Generated_Source\PSoC4/cyfitter_cfg.c **** 			uint16 CYDATA numBytes = mc->size;
 618              		.loc 1 616 0 discriminator 2
 619 0220 BA1C     		add	r2, r7, #2
 620 0222 FB68     		ldr	r3, [r7, #12]
 621 0224 197A     		ldrb	r1, [r3, #8]
 622 0226 5B7A     		ldrb	r3, [r3, #9]
 623 0228 1B02     		lsl	r3, r3, #8
 624 022a 0B43     		orr	r3, r1
 625 022c 1380     		strh	r3, [r2]
 617:.\Generated_Source\PSoC4/cyfitter_cfg.c **** 			CYCONFIGCPYCODE(destPtr, srcPtr, numBytes);
 626              		.loc 1 617 0 discriminator 2
 627 022e BB1C     		add	r3, r7, #2
 628 0230 1B88     		ldrh	r3, [r3]
 629 0232 B968     		ldr	r1, [r7, #8]
ARM GAS  C:\Users\Milo\AppData\Local\Temp\ccJAA3Rs.s 			page 23


 630 0234 7A68     		ldr	r2, [r7, #4]
 631 0236 081C     		mov	r0, r1
 632 0238 111C     		mov	r1, r2
 633 023a 1A1C     		mov	r2, r3
 634 023c FFF7FEFF 		bl	CYCONFIGCPYCODE
 635              	.LBE5:
 611:.\Generated_Source\PSoC4/cyfitter_cfg.c **** 		for (i = 0u; i < (sizeof(cfg_memcpy_list)/sizeof(cfg_memcpy_list[0])); i++)
 636              		.loc 1 611 0 discriminator 2
 637 0240 3B1C     		mov	r3, r7
 638 0242 1733     		add	r3, r3, #23
 639 0244 3A1C     		mov	r2, r7
 640 0246 1732     		add	r2, r2, #23
 641 0248 1278     		ldrb	r2, [r2]
 642 024a 0132     		add	r2, r2, #1
 643 024c 1A70     		strb	r2, [r3]
 644              	.L22:
 611:.\Generated_Source\PSoC4/cyfitter_cfg.c **** 		for (i = 0u; i < (sizeof(cfg_memcpy_list)/sizeof(cfg_memcpy_list[0])); i++)
 645              		.loc 1 611 0 is_stmt 0 discriminator 1
 646 024e 3B1C     		mov	r3, r7
 647 0250 1733     		add	r3, r3, #23
 648 0252 1B78     		ldrb	r3, [r3]
 649 0254 002B     		cmp	r3, #0
 650 0256 C1D0     		beq	.L23
 618:.\Generated_Source\PSoC4/cyfitter_cfg.c **** 		}
 619:.\Generated_Source\PSoC4/cyfitter_cfg.c **** 
 620:.\Generated_Source\PSoC4/cyfitter_cfg.c **** 		cfg_write_bytes32(cy_cfg_addr_table, cy_cfg_data_table);
 651              		.loc 1 620 0 is_stmt 1
 652 0258 2E4A     		ldr	r2, .L24+8
 653 025a 2F4B     		ldr	r3, .L24+12
 654 025c 101C     		mov	r0, r2
 655 025e 191C     		mov	r1, r3
 656 0260 FFF7FEFF 		bl	cfg_write_bytes32
 621:.\Generated_Source\PSoC4/cyfitter_cfg.c **** 
 622:.\Generated_Source\PSoC4/cyfitter_cfg.c **** 		/* Perform normal device configuration. Order is not critical for these items. */
 623:.\Generated_Source\PSoC4/cyfitter_cfg.c **** 		CY_SET_XTND_REG16((void CYFAR *)(CYREG_UDB_BCTL0_DRV), 0x0100u);
 657              		.loc 1 623 0
 658 0264 2D4B     		ldr	r3, .L24+16
 659 0266 8022     		mov	r2, #128
 660 0268 5200     		lsl	r2, r2, #1
 661 026a 1A80     		strh	r2, [r3]
 624:.\Generated_Source\PSoC4/cyfitter_cfg.c **** 		CY_SET_XTND_REG8((void CYFAR *)(CYREG_UDB_BCTL0_DRV + 0x2u), 0x01u);
 662              		.loc 1 624 0
 663 026c 2C4B     		ldr	r3, .L24+20
 664 026e 0122     		mov	r2, #1
 665 0270 1A70     		strb	r2, [r3]
 625:.\Generated_Source\PSoC4/cyfitter_cfg.c **** 
 626:.\Generated_Source\PSoC4/cyfitter_cfg.c **** 		/* HSIOM Starting address: CYDEV_HSIOM_BASE */
 627:.\Generated_Source\PSoC4/cyfitter_cfg.c **** 		CY_SET_XTND_REG32((void CYFAR *)(CYDEV_HSIOM_BASE), 0x00EE0000u);
 666              		.loc 1 627 0
 667 0272 2C4B     		ldr	r3, .L24+24
 668 0274 EE22     		mov	r2, #238
 669 0276 1204     		lsl	r2, r2, #16
 670 0278 1A60     		str	r2, [r3]
 628:.\Generated_Source\PSoC4/cyfitter_cfg.c **** 		CY_SET_XTND_REG32((void CYFAR *)(CYREG_HSIOM_PORT_SEL3), 0x0300EE03u);
 671              		.loc 1 628 0
 672 027a 2B4B     		ldr	r3, .L24+28
 673 027c 2B4A     		ldr	r2, .L24+32
ARM GAS  C:\Users\Milo\AppData\Local\Temp\ccJAA3Rs.s 			page 24


 674 027e 1A60     		str	r2, [r3]
 629:.\Generated_Source\PSoC4/cyfitter_cfg.c **** 		CY_SET_XTND_REG32((void CYFAR *)(CYREG_HSIOM_PORT_SEL4), 0x00000099u);
 675              		.loc 1 629 0
 676 0280 2B4B     		ldr	r3, .L24+36
 677 0282 9922     		mov	r2, #153
 678 0284 1A60     		str	r2, [r3]
 630:.\Generated_Source\PSoC4/cyfitter_cfg.c **** 
 631:.\Generated_Source\PSoC4/cyfitter_cfg.c **** 		/* IOPINS0_0 Starting address: CYDEV_PRT0_DR */
 632:.\Generated_Source\PSoC4/cyfitter_cfg.c **** 		CY_SET_XTND_REG32((void CYFAR *)(CYREG_PRT0_DR), 0x00000030u);
 679              		.loc 1 632 0
 680 0286 2B4B     		ldr	r3, .L24+40
 681 0288 3022     		mov	r2, #48
 682 028a 1A60     		str	r2, [r3]
 633:.\Generated_Source\PSoC4/cyfitter_cfg.c **** 		CY_SET_XTND_REG32((void CYFAR *)(CYREG_PRT0_PC), 0x00024000u);
 683              		.loc 1 633 0
 684 028c 2A4B     		ldr	r3, .L24+44
 685 028e 9022     		mov	r2, #144
 686 0290 9202     		lsl	r2, r2, #10
 687 0292 1A60     		str	r2, [r3]
 634:.\Generated_Source\PSoC4/cyfitter_cfg.c **** 
 635:.\Generated_Source\PSoC4/cyfitter_cfg.c **** 		/* IOPINS0_2 Starting address: CYDEV_PRT2_DR */
 636:.\Generated_Source\PSoC4/cyfitter_cfg.c **** 		CY_SET_XTND_REG32((void CYFAR *)(CYREG_PRT2_PC), 0x00040000u);
 688              		.loc 1 636 0
 689 0294 294B     		ldr	r3, .L24+48
 690 0296 8022     		mov	r2, #128
 691 0298 D202     		lsl	r2, r2, #11
 692 029a 1A60     		str	r2, [r3]
 637:.\Generated_Source\PSoC4/cyfitter_cfg.c **** 
 638:.\Generated_Source\PSoC4/cyfitter_cfg.c **** 		/* IOPINS0_3 Starting address: CYDEV_PRT3_DR */
 639:.\Generated_Source\PSoC4/cyfitter_cfg.c **** 		CY_SET_XTND_REG32((void CYFAR *)(CYREG_PRT3_DR), 0x00000041u);
 693              		.loc 1 639 0
 694 029c 284B     		ldr	r3, .L24+52
 695 029e 4122     		mov	r2, #65
 696 02a0 1A60     		str	r2, [r3]
 640:.\Generated_Source\PSoC4/cyfitter_cfg.c **** 		CY_SET_XTND_REG32((void CYFAR *)(CYREG_PRT3_PC), 0x00186D86u);
 697              		.loc 1 640 0
 698 02a2 284B     		ldr	r3, .L24+56
 699 02a4 284A     		ldr	r2, .L24+60
 700 02a6 1A60     		str	r2, [r3]
 641:.\Generated_Source\PSoC4/cyfitter_cfg.c **** 
 642:.\Generated_Source\PSoC4/cyfitter_cfg.c **** 		/* IOPINS0_4 Starting address: CYDEV_PRT4_DR */
 643:.\Generated_Source\PSoC4/cyfitter_cfg.c **** 		CY_SET_XTND_REG32((void CYFAR *)(CYREG_PRT4_DR), 0x00000002u);
 701              		.loc 1 643 0
 702 02a8 284B     		ldr	r3, .L24+64
 703 02aa 0222     		mov	r2, #2
 704 02ac 1A60     		str	r2, [r3]
 644:.\Generated_Source\PSoC4/cyfitter_cfg.c **** 		CY_SET_XTND_REG32((void CYFAR *)(CYREG_PRT4_PC), 0x00000031u);
 705              		.loc 1 644 0
 706 02ae 284B     		ldr	r3, .L24+68
 707 02b0 3122     		mov	r2, #49
 708 02b2 1A60     		str	r2, [r3]
 645:.\Generated_Source\PSoC4/cyfitter_cfg.c **** 		CY_SET_XTND_REG32((void CYFAR *)(CYREG_PRT4_PC2), 0x00000002u);
 709              		.loc 1 645 0
 710 02b4 274B     		ldr	r3, .L24+72
 711 02b6 0222     		mov	r2, #2
 712 02b8 1A60     		str	r2, [r3]
 646:.\Generated_Source\PSoC4/cyfitter_cfg.c **** 
ARM GAS  C:\Users\Milo\AppData\Local\Temp\ccJAA3Rs.s 			page 25


 647:.\Generated_Source\PSoC4/cyfitter_cfg.c **** 		/* UDB_PA_0 Starting address: CYDEV_UDB_PA0_BASE */
 648:.\Generated_Source\PSoC4/cyfitter_cfg.c **** 		CY_SET_XTND_REG32((void CYFAR *)(CYDEV_UDB_PA0_BASE), 0x00990000u);
 713              		.loc 1 648 0
 714 02ba 274B     		ldr	r3, .L24+76
 715 02bc 9922     		mov	r2, #153
 716 02be 1204     		lsl	r2, r2, #16
 717 02c0 1A60     		str	r2, [r3]
 649:.\Generated_Source\PSoC4/cyfitter_cfg.c **** 
 650:.\Generated_Source\PSoC4/cyfitter_cfg.c **** 		/* UDB_PA_2 Starting address: CYDEV_UDB_PA2_BASE */
 651:.\Generated_Source\PSoC4/cyfitter_cfg.c **** 		CY_SET_XTND_REG32((void CYFAR *)(CYDEV_UDB_PA2_BASE), 0x00990004u);
 718              		.loc 1 651 0
 719 02c2 264B     		ldr	r3, .L24+80
 720 02c4 264A     		ldr	r2, .L24+84
 721 02c6 1A60     		str	r2, [r3]
 652:.\Generated_Source\PSoC4/cyfitter_cfg.c **** 		CY_SET_XTND_REG32((void CYFAR *)(CYREG_UDB_PA2_CFG4), 0x20000000u);
 722              		.loc 1 652 0
 723 02c8 264B     		ldr	r3, .L24+88
 724 02ca 8022     		mov	r2, #128
 725 02cc 9205     		lsl	r2, r2, #22
 726 02ce 1A60     		str	r2, [r3]
 653:.\Generated_Source\PSoC4/cyfitter_cfg.c **** 
 654:.\Generated_Source\PSoC4/cyfitter_cfg.c **** 		/* UDB_PA_3 Starting address: CYDEV_UDB_PA3_BASE */
 655:.\Generated_Source\PSoC4/cyfitter_cfg.c **** 		CY_SET_XTND_REG32((void CYFAR *)(CYDEV_UDB_PA3_BASE), 0x00990000u);
 727              		.loc 1 655 0
 728 02d0 254B     		ldr	r3, .L24+92
 729 02d2 9922     		mov	r2, #153
 730 02d4 1204     		lsl	r2, r2, #16
 731 02d6 1A60     		str	r2, [r3]
 656:.\Generated_Source\PSoC4/cyfitter_cfg.c **** 		CY_SET_XTND_REG32((void CYFAR *)(CYREG_UDB_PA3_CFG8), 0x30030000u);
 732              		.loc 1 656 0
 733 02d8 244B     		ldr	r3, .L24+96
 734 02da 254A     		ldr	r2, .L24+100
 735 02dc 1A60     		str	r2, [r3]
 657:.\Generated_Source\PSoC4/cyfitter_cfg.c **** 
 658:.\Generated_Source\PSoC4/cyfitter_cfg.c **** 		/* Enable digital routing */
 659:.\Generated_Source\PSoC4/cyfitter_cfg.c **** 		CY_SET_XTND_REG8((void *)CYREG_UDB_UDBIF_BANK_CTL, CY_GET_XTND_REG8((void *)CYREG_UDB_UDBIF_BANK_
 736              		.loc 1 659 0
 737 02de 254B     		ldr	r3, .L24+104
 738 02e0 244A     		ldr	r2, .L24+104
 739 02e2 1278     		ldrb	r2, [r2]
 740 02e4 D2B2     		uxtb	r2, r2
 741 02e6 0221     		mov	r1, #2
 742 02e8 0A43     		orr	r2, r1
 743 02ea D2B2     		uxtb	r2, r2
 744 02ec 1A70     		strb	r2, [r3]
 660:.\Generated_Source\PSoC4/cyfitter_cfg.c **** 
 661:.\Generated_Source\PSoC4/cyfitter_cfg.c **** 		/* Enable UDB array */
 662:.\Generated_Source\PSoC4/cyfitter_cfg.c **** 		CY_SET_XTND_REG8((void *)CYREG_UDB_UDBIF_BANK_CTL, CY_GET_XTND_REG8((void *)CYREG_UDB_UDBIF_BANK_
 745              		.loc 1 662 0
 746 02ee 214B     		ldr	r3, .L24+104
 747 02f0 204A     		ldr	r2, .L24+104
 748 02f2 1278     		ldrb	r2, [r2]
 749 02f4 D2B2     		uxtb	r2, r2
 750 02f6 0621     		mov	r1, #6
 751 02f8 0A43     		orr	r2, r1
 752 02fa D2B2     		uxtb	r2, r2
 753 02fc 1A70     		strb	r2, [r3]
ARM GAS  C:\Users\Milo\AppData\Local\Temp\ccJAA3Rs.s 			page 26


 754              	.LBE3:
 663:.\Generated_Source\PSoC4/cyfitter_cfg.c **** 	}
 664:.\Generated_Source\PSoC4/cyfitter_cfg.c **** 
 665:.\Generated_Source\PSoC4/cyfitter_cfg.c **** 	/* Setup clocks based on selections from Clock DWR */
 666:.\Generated_Source\PSoC4/cyfitter_cfg.c **** 	ClockSetup();
 755              		.loc 1 666 0
 756 02fe FFF7D7FE 		bl	ClockSetup
 667:.\Generated_Source\PSoC4/cyfitter_cfg.c **** 
 668:.\Generated_Source\PSoC4/cyfitter_cfg.c **** 	/* Perform basic analog initialization to defaults */
 669:.\Generated_Source\PSoC4/cyfitter_cfg.c **** 	AnalogSetDefault();
 757              		.loc 1 669 0
 758 0302 FFF7FEFF 		bl	AnalogSetDefault
 670:.\Generated_Source\PSoC4/cyfitter_cfg.c **** 
 671:.\Generated_Source\PSoC4/cyfitter_cfg.c **** }
 759              		.loc 1 671 0
 760 0306 BD46     		mov	sp, r7
 761 0308 06B0     		add	sp, sp, #24
 762              		@ sp needed for prologue
 763 030a 80BD     		pop	{r7, pc}
 764              	.L25:
 765              		.align	2
 766              	.L24:
 767 030c 00000000 		.word	cfg_memset_list.4673
 768 0310 14000000 		.word	cfg_memcpy_list.4675
 769 0314 20000000 		.word	cy_cfg_addr_table.4662
 770 0318 40000000 		.word	cy_cfg_data_table.4663
 771 031c 00600F40 		.word	1074749440
 772 0320 02600F40 		.word	1074749442
 773 0324 00000140 		.word	1073807360
 774 0328 0C000140 		.word	1073807372
 775 032c 03EE0003 		.word	50392579
 776 0330 10000140 		.word	1073807376
 777 0334 00000440 		.word	1074003968
 778 0338 08000440 		.word	1074003976
 779 033c 08020440 		.word	1074004488
 780 0340 00030440 		.word	1074004736
 781 0344 08030440 		.word	1074004744
 782 0348 866D1800 		.word	1600902
 783 034c 00040440 		.word	1074004992
 784 0350 08040440 		.word	1074005000
 785 0354 18040440 		.word	1074005016
 786 0358 00500F40 		.word	1074745344
 787 035c 20500F40 		.word	1074745376
 788 0360 04009900 		.word	10027012
 789 0364 24500F40 		.word	1074745380
 790 0368 30500F40 		.word	1074745392
 791 036c 38500F40 		.word	1074745400
 792 0370 00000330 		.word	805502976
 793 0374 00700F40 		.word	1074753536
 794              		.cfi_endproc
 795              	.LFE7:
 796              		.size	cyfitter_cfg, .-cyfitter_cfg
 797              		.section	.rodata
 798              		.align	2
 799              		.type	cfg_memset_list.4673, %object
 800              		.size	cfg_memset_list.4673, 18
 801              	cfg_memset_list.4673:
ARM GAS  C:\Users\Milo\AppData\Local\Temp\ccJAA3Rs.s 			page 27


 802 0000 00300F40 		.word	1074737152
 803 0004 8000     		.short	128
 804 0006 00310F40 		.4byte	1074737408
 805 000a 0003     		.short	768
 806 000c 00400F40 		.word	1074741248
 807 0010 0004     		.short	1024
 808 0012 0000     		.align	2
 809              		.type	cfg_memcpy_list.4675, %object
 810              		.size	cfg_memcpy_list.4675, 10
 811              	cfg_memcpy_list.4675:
 812 0014 80300F40 		.word	1074737280
 813 0018 04020000 		.word	BS_UDB_0_1_1_CONFIG_VAL.4674
 814 001c 8000     		.short	128
 815 001e 0000     		.align	2
 816              		.type	cy_cfg_addr_table.4662, %object
 817              		.size	cy_cfg_addr_table.4662, 32
 818              	cy_cfg_addr_table.4662:
 819 0020 01000F40 		.word	1074724865
 820 0024 10300F40 		.word	1074737168
 821 0028 36310F40 		.word	1074737462
 822 002c 48320F40 		.word	1074737736
 823 0030 44330F40 		.word	1074737988
 824 0034 02420F40 		.word	1074741762
 825 0038 0A430F40 		.word	1074742026
 826 003c 02600F40 		.word	1074749442
 827              		.align	2
 828              		.type	cy_cfg_data_table.4663, %object
 829              		.size	cy_cfg_data_table.4663, 450
 830              	cy_cfg_data_table.4663:
 831 0040 81       		.byte	-127
 832 0041 0F       		.byte	15
 833 0042 00       		.byte	0
 834 0043 01       		.byte	1
 835 0044 02       		.byte	2
 836 0045 02       		.byte	2
 837 0046 10       		.byte	16
 838 0047 04       		.byte	4
 839 0048 17       		.byte	23
 840 0049 01       		.byte	1
 841 004a 18       		.byte	24
 842 004b 06       		.byte	6
 843 004c 19       		.byte	25
 844 004d 01       		.byte	1
 845 004e 1A       		.byte	26
 846 004f 01       		.byte	1
 847 0050 23       		.byte	35
 848 0051 01       		.byte	1
 849 0052 2C       		.byte	44
 850 0053 04       		.byte	4
 851 0054 30       		.byte	48
 852 0055 07       		.byte	7
 853 0056 37       		.byte	55
 854 0057 01       		.byte	1
 855 0058 3A       		.byte	58
 856 0059 02       		.byte	2
 857 005a 3F       		.byte	63
 858 005b 40       		.byte	64
ARM GAS  C:\Users\Milo\AppData\Local\Temp\ccJAA3Rs.s 			page 28


 859 005c 58       		.byte	88
 860 005d 04       		.byte	4
 861 005e 59       		.byte	89
 862 005f 04       		.byte	4
 863 0060 5F       		.byte	95
 864 0061 01       		.byte	1
 865 0062 03       		.byte	3
 866 0063 40       		.byte	64
 867 0064 04       		.byte	4
 868 0065 80       		.byte	-128
 869 0066 05       		.byte	5
 870 0067 04       		.byte	4
 871 0068 06       		.byte	6
 872 0069 84       		.byte	-124
 873 006a 08       		.byte	8
 874 006b 10       		.byte	16
 875 006c 0A       		.byte	10
 876 006d 40       		.byte	64
 877 006e 0C       		.byte	12
 878 006f 10       		.byte	16
 879 0070 0E       		.byte	14
 880 0071 92       		.byte	-110
 881 0072 10       		.byte	16
 882 0073 02       		.byte	2
 883 0074 16       		.byte	22
 884 0075 20       		.byte	32
 885 0076 17       		.byte	23
 886 0077 19       		.byte	25
 887 0078 18       		.byte	24
 888 0079 80       		.byte	-128
 889 007a 19       		.byte	25
 890 007b 02       		.byte	2
 891 007c 1A       		.byte	26
 892 007d 40       		.byte	64
 893 007e 1B       		.byte	27
 894 007f 01       		.byte	1
 895 0080 1E       		.byte	30
 896 0081 80       		.byte	-128
 897 0082 22       		.byte	34
 898 0083 40       		.byte	64
 899 0084 26       		.byte	38
 900 0085 80       		.byte	-128
 901 0086 27       		.byte	39
 902 0087 08       		.byte	8
 903 0088 29       		.byte	41
 904 0089 02       		.byte	2
 905 008a 2B       		.byte	43
 906 008b 40       		.byte	64
 907 008c 2D       		.byte	45
 908 008d 02       		.byte	2
 909 008e 2E       		.byte	46
 910 008f 20       		.byte	32
 911 0090 2F       		.byte	47
 912 0091 01       		.byte	1
 913 0092 30       		.byte	48
 914 0093 10       		.byte	16
 915 0094 31       		.byte	49
ARM GAS  C:\Users\Milo\AppData\Local\Temp\ccJAA3Rs.s 			page 29


 916 0095 14       		.byte	20
 917 0096 35       		.byte	53
 918 0097 14       		.byte	20
 919 0098 37       		.byte	55
 920 0099 01       		.byte	1
 921 009a 3C       		.byte	60
 922 009b 80       		.byte	-128
 923 009c 3D       		.byte	61
 924 009d 01       		.byte	1
 925 009e 3E       		.byte	62
 926 009f 14       		.byte	20
 927 00a0 44       		.byte	68
 928 00a1 98       		.byte	-104
 929 00a2 47       		.byte	71
 930 00a3 40       		.byte	64
 931 00a4 4D       		.byte	77
 932 00a5 08       		.byte	8
 933 00a6 4F       		.byte	79
 934 00a7 80       		.byte	-128
 935 00a8 54       		.byte	84
 936 00a9 82       		.byte	-126
 937 00aa 56       		.byte	86
 938 00ab 54       		.byte	84
 939 00ac 62       		.byte	98
 940 00ad 80       		.byte	-128
 941 00ae 63       		.byte	99
 942 00af 01       		.byte	1
 943 00b0 67       		.byte	103
 944 00b1 03       		.byte	3
 945 00b2 6C       		.byte	108
 946 00b3 20       		.byte	32
 947 00b4 6D       		.byte	109
 948 00b5 41       		.byte	65
 949 00b6 6E       		.byte	110
 950 00b7 16       		.byte	22
 951 00b8 6F       		.byte	111
 952 00b9 11       		.byte	17
 953 00ba 74       		.byte	116
 954 00bb 40       		.byte	64
 955 00bc C0       		.byte	-64
 956 00bd F8       		.byte	-8
 957 00be C2       		.byte	-62
 958 00bf FA       		.byte	-6
 959 00c0 C4       		.byte	-60
 960 00c1 71       		.byte	113
 961 00c2 CA       		.byte	-54
 962 00c3 B1       		.byte	-79
 963 00c4 CC       		.byte	-52
 964 00c5 E6       		.byte	-26
 965 00c6 CE       		.byte	-50
 966 00c7 F0       		.byte	-16
 967 00c8 D0       		.byte	-48
 968 00c9 F0       		.byte	-16
 969 00ca D2       		.byte	-46
 970 00cb 10       		.byte	16
 971 00cc D8       		.byte	-40
 972 00cd 10       		.byte	16
ARM GAS  C:\Users\Milo\AppData\Local\Temp\ccJAA3Rs.s 			page 30


 973 00ce 00       		.byte	0
 974 00cf 1A       		.byte	26
 975 00d0 01       		.byte	1
 976 00d1 02       		.byte	2
 977 00d2 03       		.byte	3
 978 00d3 08       		.byte	8
 979 00d4 04       		.byte	4
 980 00d5 13       		.byte	19
 981 00d6 05       		.byte	5
 982 00d7 1D       		.byte	29
 983 00d8 06       		.byte	6
 984 00d9 04       		.byte	4
 985 00da 08       		.byte	8
 986 00db 01       		.byte	1
 987 00dc 09       		.byte	9
 988 00dd 1D       		.byte	29
 989 00de 0A       		.byte	10
 990 00df 18       		.byte	24
 991 00e0 0C       		.byte	12
 992 00e1 18       		.byte	24
 993 00e2 0D       		.byte	13
 994 00e3 1D       		.byte	29
 995 00e4 0E       		.byte	14
 996 00e5 02       		.byte	2
 997 00e6 10       		.byte	16
 998 00e7 02       		.byte	2
 999 00e8 11       		.byte	17
 1000 00e9 0D       		.byte	13
 1001 00ea 13       		.byte	19
 1002 00eb 10       		.byte	16
 1003 00ec 14       		.byte	20
 1004 00ed 02       		.byte	2
 1005 00ee 16       		.byte	22
 1006 00ef 18       		.byte	24
 1007 00f0 19       		.byte	25
 1008 00f1 02       		.byte	2
 1009 00f2 1B       		.byte	27
 1010 00f3 04       		.byte	4
 1011 00f4 1C       		.byte	28
 1012 00f5 1C       		.byte	28
 1013 00f6 1D       		.byte	29
 1014 00f7 02       		.byte	2
 1015 00f8 1E       		.byte	30
 1016 00f9 03       		.byte	3
 1017 00fa 1F       		.byte	31
 1018 00fb 0D       		.byte	13
 1019 00fc 20       		.byte	32
 1020 00fd 1A       		.byte	26
 1021 00fe 23       		.byte	35
 1022 00ff 10       		.byte	16
 1023 0100 24       		.byte	36
 1024 0101 18       		.byte	24
 1025 0102 28       		.byte	40
 1026 0103 18       		.byte	24
 1027 0104 29       		.byte	41
 1028 0105 01       		.byte	1
 1029 0106 2A       		.byte	42
ARM GAS  C:\Users\Milo\AppData\Local\Temp\ccJAA3Rs.s 			page 31


 1030 0107 02       		.byte	2
 1031 0108 2B       		.byte	43
 1032 0109 02       		.byte	2
 1033 010a 2D       		.byte	45
 1034 010b 1D       		.byte	29
 1035 010c 31       		.byte	49
 1036 010d 0F       		.byte	15
 1037 010e 32       		.byte	50
 1038 010f 13       		.byte	19
 1039 0110 34       		.byte	52
 1040 0111 0F       		.byte	15
 1041 0112 35       		.byte	53
 1042 0113 10       		.byte	16
 1043 0114 3A       		.byte	58
 1044 0115 20       		.byte	32
 1045 0116 3B       		.byte	59
 1046 0117 02       		.byte	2
 1047 0118 3F       		.byte	63
 1048 0119 10       		.byte	16
 1049 011a 54       		.byte	84
 1050 011b 40       		.byte	64
 1051 011c 58       		.byte	88
 1052 011d 04       		.byte	4
 1053 011e 59       		.byte	89
 1054 011f 04       		.byte	4
 1055 0120 5B       		.byte	91
 1056 0121 04       		.byte	4
 1057 0122 5F       		.byte	95
 1058 0123 01       		.byte	1
 1059 0124 80       		.byte	-128
 1060 0125 08       		.byte	8
 1061 0126 82       		.byte	-126
 1062 0127 06       		.byte	6
 1063 0128 84       		.byte	-124
 1064 0129 08       		.byte	8
 1065 012a 86       		.byte	-122
 1066 012b 06       		.byte	6
 1067 012c 8A       		.byte	-118
 1068 012d 04       		.byte	4
 1069 012e 8E       		.byte	-114
 1070 012f 01       		.byte	1
 1071 0130 90       		.byte	-112
 1072 0131 01       		.byte	1
 1073 0132 91       		.byte	-111
 1074 0133 0E       		.byte	14
 1075 0134 94       		.byte	-108
 1076 0135 01       		.byte	1
 1077 0136 95       		.byte	-107
 1078 0137 03       		.byte	3
 1079 0138 97       		.byte	-105
 1080 0139 04       		.byte	4
 1081 013a 98       		.byte	-104
 1082 013b 0A       		.byte	10
 1083 013c 99       		.byte	-103
 1084 013d 05       		.byte	5
 1085 013e 9B       		.byte	-101
 1086 013f 0A       		.byte	10
ARM GAS  C:\Users\Milo\AppData\Local\Temp\ccJAA3Rs.s 			page 32


 1087 0140 A0       		.byte	-96
 1088 0141 01       		.byte	1
 1089 0142 A4       		.byte	-92
 1090 0143 01       		.byte	1
 1091 0144 AD       		.byte	-83
 1092 0145 04       		.byte	4
 1093 0146 AF       		.byte	-81
 1094 0147 09       		.byte	9
 1095 0148 B0       		.byte	-80
 1096 0149 01       		.byte	1
 1097 014a B1       		.byte	-79
 1098 014b 0F       		.byte	15
 1099 014c B2       		.byte	-78
 1100 014d 06       		.byte	6
 1101 014e B6       		.byte	-74
 1102 014f 08       		.byte	8
 1103 0150 B9       		.byte	-71
 1104 0151 02       		.byte	2
 1105 0152 BE       		.byte	-66
 1106 0153 41       		.byte	65
 1107 0154 D4       		.byte	-44
 1108 0155 09       		.byte	9
 1109 0156 D8       		.byte	-40
 1110 0157 04       		.byte	4
 1111 0158 D9       		.byte	-39
 1112 0159 04       		.byte	4
 1113 015a DB       		.byte	-37
 1114 015b 04       		.byte	4
 1115 015c DF       		.byte	-33
 1116 015d 01       		.byte	1
 1117 015e 00       		.byte	0
 1118 015f 08       		.byte	8
 1119 0160 01       		.byte	1
 1120 0161 42       		.byte	66
 1121 0162 03       		.byte	3
 1122 0163 09       		.byte	9
 1123 0164 05       		.byte	5
 1124 0165 14       		.byte	20
 1125 0166 06       		.byte	6
 1126 0167 80       		.byte	-128
 1127 0168 07       		.byte	7
 1128 0169 01       		.byte	1
 1129 016a 0A       		.byte	10
 1130 016b 50       		.byte	80
 1131 016c 0B       		.byte	11
 1132 016d 08       		.byte	8
 1133 016e 0C       		.byte	12
 1134 016f 02       		.byte	2
 1135 0170 0D       		.byte	13
 1136 0171 01       		.byte	1
 1137 0172 0E       		.byte	14
 1138 0173 10       		.byte	16
 1139 0174 0F       		.byte	15
 1140 0175 02       		.byte	2
 1141 0176 10       		.byte	16
 1142 0177 20       		.byte	32
 1143 0178 11       		.byte	17
ARM GAS  C:\Users\Milo\AppData\Local\Temp\ccJAA3Rs.s 			page 33


 1144 0179 01       		.byte	1
 1145 017a 15       		.byte	21
 1146 017b 01       		.byte	1
 1147 017c 17       		.byte	23
 1148 017d 18       		.byte	24
 1149 017e 18       		.byte	24
 1150 017f 40       		.byte	64
 1151 0180 19       		.byte	25
 1152 0181 41       		.byte	65
 1153 0182 1B       		.byte	27
 1154 0183 08       		.byte	8
 1155 0184 1C       		.byte	28
 1156 0185 08       		.byte	8
 1157 0186 1D       		.byte	29
 1158 0187 14       		.byte	20
 1159 0188 1F       		.byte	31
 1160 0189 04       		.byte	4
 1161 018a 21       		.byte	33
 1162 018b 02       		.byte	2
 1163 018c 25       		.byte	37
 1164 018d 20       		.byte	32
 1165 018e 27       		.byte	39
 1166 018f 40       		.byte	64
 1167 0190 2B       		.byte	43
 1168 0191 01       		.byte	1
 1169 0192 2C       		.byte	44
 1170 0193 80       		.byte	-128
 1171 0194 2F       		.byte	47
 1172 0195 05       		.byte	5
 1173 0196 31       		.byte	49
 1174 0197 16       		.byte	22
 1175 0198 35       		.byte	53
 1176 0199 10       		.byte	16
 1177 019a 37       		.byte	55
 1178 019b 41       		.byte	65
 1179 019c 39       		.byte	57
 1180 019d 01       		.byte	1
 1181 019e 3B       		.byte	59
 1182 019f 02       		.byte	2
 1183 01a0 3C       		.byte	60
 1184 01a1 80       		.byte	-128
 1185 01a2 3E       		.byte	62
 1186 01a3 D4       		.byte	-44
 1187 01a4 3F       		.byte	63
 1188 01a5 02       		.byte	2
 1189 01a6 40       		.byte	64
 1190 01a7 C0       		.byte	-64
 1191 01a8 45       		.byte	69
 1192 01a9 20       		.byte	32
 1193 01aa 46       		.byte	70
 1194 01ab 08       		.byte	8
 1195 01ac 59       		.byte	89
 1196 01ad 29       		.byte	41
 1197 01ae 5A       		.byte	90
 1198 01af 80       		.byte	-128
 1199 01b0 61       		.byte	97
 1200 01b1 40       		.byte	64
ARM GAS  C:\Users\Milo\AppData\Local\Temp\ccJAA3Rs.s 			page 34


 1201 01b2 66       		.byte	102
 1202 01b3 58       		.byte	88
 1203 01b4 85       		.byte	-123
 1204 01b5 21       		.byte	33
 1205 01b6 8B       		.byte	-117
 1206 01b7 08       		.byte	8
 1207 01b8 91       		.byte	-111
 1208 01b9 41       		.byte	65
 1209 01ba 92       		.byte	-110
 1210 01bb 94       		.byte	-108
 1211 01bc 99       		.byte	-103
 1212 01bd 0A       		.byte	10
 1213 01be 9A       		.byte	-102
 1214 01bf 50       		.byte	80
 1215 01c0 9B       		.byte	-101
 1216 01c1 18       		.byte	24
 1217 01c2 9C       		.byte	-100
 1218 01c3 80       		.byte	-128
 1219 01c4 9D       		.byte	-99
 1220 01c5 14       		.byte	20
 1221 01c6 9E       		.byte	-98
 1222 01c7 80       		.byte	-128
 1223 01c8 A0       		.byte	-96
 1224 01c9 E2       		.byte	-30
 1225 01ca A3       		.byte	-93
 1226 01cb 01       		.byte	1
 1227 01cc AE       		.byte	-82
 1228 01cd 40       		.byte	64
 1229 01ce B4       		.byte	-76
 1230 01cf 08       		.byte	8
 1231 01d0 B5       		.byte	-75
 1232 01d1 04       		.byte	4
 1233 01d2 B7       		.byte	-73
 1234 01d3 40       		.byte	64
 1235 01d4 C0       		.byte	-64
 1236 01d5 FF       		.byte	-1
 1237 01d6 C2       		.byte	-62
 1238 01d7 BE       		.byte	-66
 1239 01d8 C4       		.byte	-60
 1240 01d9 7C       		.byte	124
 1241 01da CA       		.byte	-54
 1242 01db B8       		.byte	-72
 1243 01dc CC       		.byte	-52
 1244 01dd B7       		.byte	-73
 1245 01de CE       		.byte	-50
 1246 01df F0       		.byte	-16
 1247 01e0 D6       		.byte	-42
 1248 01e1 0F       		.byte	15
 1249 01e2 D8       		.byte	-40
 1250 01e3 78       		.byte	120
 1251 01e4 EC       		.byte	-20
 1252 01e5 02       		.byte	2
 1253 01e6 08       		.byte	8
 1254 01e7 20       		.byte	32
 1255 01e8 C2       		.byte	-62
 1256 01e9 02       		.byte	2
 1257 01ea 5E       		.byte	94
ARM GAS  C:\Users\Milo\AppData\Local\Temp\ccJAA3Rs.s 			page 35


 1258 01eb 80       		.byte	-128
 1259 01ec 64       		.byte	100
 1260 01ed 10       		.byte	16
 1261 01ee 8A       		.byte	-118
 1262 01ef 40       		.byte	64
 1263 01f0 98       		.byte	-104
 1264 01f1 10       		.byte	16
 1265 01f2 AC       		.byte	-84
 1266 01f3 10       		.byte	16
 1267 01f4 B4       		.byte	-76
 1268 01f5 20       		.byte	32
 1269 01f6 D6       		.byte	-42
 1270 01f7 04       		.byte	4
 1271 01f8 D8       		.byte	-40
 1272 01f9 01       		.byte	1
 1273 01fa E0       		.byte	-32
 1274 01fb 04       		.byte	4
 1275 01fc EA       		.byte	-22
 1276 01fd 02       		.byte	2
 1277 01fe 10       		.byte	16
 1278 01ff 01       		.byte	1
 1279 0200 11       		.byte	17
 1280 0201 01       		.byte	1
 1281 0202 0000     		.align	2
 1282              		.type	BS_UDB_0_1_1_CONFIG_VAL.4674, %object
 1283              		.size	BS_UDB_0_1_1_CONFIG_VAL.4674, 128
 1284              	BS_UDB_0_1_1_CONFIG_VAL.4674:
 1285 0204 04       		.byte	4
 1286 0205 40       		.byte	64
 1287 0206 00       		.byte	0
 1288 0207 00       		.byte	0
 1289 0208 07       		.byte	7
 1290 0209 40       		.byte	64
 1291 020a 38       		.byte	56
 1292 020b 00       		.byte	0
 1293 020c 60       		.byte	96
 1294 020d 00       		.byte	0
 1295 020e 00       		.byte	0
 1296 020f 40       		.byte	64
 1297 0210 56       		.byte	86
 1298 0211 40       		.byte	64
 1299 0212 09       		.byte	9
 1300 0213 00       		.byte	0
 1301 0214 01       		.byte	1
 1302 0215 40       		.byte	64
 1303 0216 00       		.byte	0
 1304 0217 00       		.byte	0
 1305 0218 00       		.byte	0
 1306 0219 03       		.byte	3
 1307 021a 04       		.byte	4
 1308 021b 3C       		.byte	60
 1309 021c 0A       		.byte	10
 1310 021d 15       		.byte	21
 1311 021e 10       		.byte	16
 1312 021f 6A       		.byte	106
 1313 0220 04       		.byte	4
 1314 0221 00       		.byte	0
ARM GAS  C:\Users\Milo\AppData\Local\Temp\ccJAA3Rs.s 			page 36


 1315 0222 00       		.byte	0
 1316 0223 00       		.byte	0
 1317 0224 04       		.byte	4
 1318 0225 79       		.byte	121
 1319 0226 00       		.byte	0
 1320 0227 06       		.byte	6
 1321 0228 04       		.byte	4
 1322 0229 00       		.byte	0
 1323 022a 00       		.byte	0
 1324 022b 00       		.byte	0
 1325 022c 04       		.byte	4
 1326 022d 10       		.byte	16
 1327 022e 00       		.byte	0
 1328 022f 60       		.byte	96
 1329 0230 00       		.byte	0
 1330 0231 02       		.byte	2
 1331 0232 00       		.byte	0
 1332 0233 0D       		.byte	13
 1333 0234 7F       		.byte	127
 1334 0235 00       		.byte	0
 1335 0236 00       		.byte	0
 1336 0237 00       		.byte	0
 1337 0238 00       		.byte	0
 1338 0239 70       		.byte	112
 1339 023a 00       		.byte	0
 1340 023b 0F       		.byte	15
 1341 023c 02       		.byte	2
 1342 023d 00       		.byte	0
 1343 023e 00       		.byte	0
 1344 023f A0       		.byte	-96
 1345 0240 00       		.byte	0
 1346 0241 00       		.byte	0
 1347 0242 00       		.byte	0
 1348 0243 00       		.byte	0
 1349 0244 35       		.byte	53
 1350 0245 01       		.byte	1
 1351 0246 40       		.byte	64
 1352 0247 00       		.byte	0
 1353 0248 02       		.byte	2
 1354 0249 0E       		.byte	14
 1355 024a FD       		.byte	-3
 1356 024b CB       		.byte	-53
 1357 024c 3D       		.byte	61
 1358 024d FF       		.byte	-1
 1359 024e FF       		.byte	-1
 1360 024f FF       		.byte	-1
 1361 0250 22       		.byte	34
 1362 0251 00       		.byte	0
 1363 0252 F0       		.byte	-16
 1364 0253 08       		.byte	8
 1365 0254 04       		.byte	4
 1366 0255 00       		.byte	0
 1367 0256 00       		.byte	0
 1368 0257 00       		.byte	0
 1369 0258 00       		.byte	0
 1370 0259 00       		.byte	0
 1371 025a 02       		.byte	2
ARM GAS  C:\Users\Milo\AppData\Local\Temp\ccJAA3Rs.s 			page 37


 1372 025b 20       		.byte	32
 1373 025c 04       		.byte	4
 1374 025d 04       		.byte	4
 1375 025e 04       		.byte	4
 1376 025f 04       		.byte	4
 1377 0260 00       		.byte	0
 1378 0261 00       		.byte	0
 1379 0262 00       		.byte	0
 1380 0263 01       		.byte	1
 1381 0264 00       		.byte	0
 1382 0265 00       		.byte	0
 1383 0266 C0       		.byte	-64
 1384 0267 00       		.byte	0
 1385 0268 40       		.byte	64
 1386 0269 01       		.byte	1
 1387 026a 10       		.byte	16
 1388 026b 11       		.byte	17
 1389 026c C0       		.byte	-64
 1390 026d 01       		.byte	1
 1391 026e 00       		.byte	0
 1392 026f 11       		.byte	17
 1393 0270 40       		.byte	64
 1394 0271 01       		.byte	1
 1395 0272 40       		.byte	64
 1396 0273 01       		.byte	1
 1397 0274 00       		.byte	0
 1398 0275 00       		.byte	0
 1399 0276 00       		.byte	0
 1400 0277 00       		.byte	0
 1401 0278 00       		.byte	0
 1402 0279 00       		.byte	0
 1403 027a 00       		.byte	0
 1404 027b 00       		.byte	0
 1405 027c 00       		.byte	0
 1406 027d 00       		.byte	0
 1407 027e 00       		.byte	0
 1408 027f 00       		.byte	0
 1409 0280 00       		.byte	0
 1410 0281 00       		.byte	0
 1411 0282 00       		.byte	0
 1412 0283 00       		.byte	0
 1413              		.align	2
 1414              		.type	IMO_TRIM_FREQ_TABLE_ENTRIES.4642, %object
 1415              		.size	IMO_TRIM_FREQ_TABLE_ENTRIES.4642, 4
 1416              	IMO_TRIM_FREQ_TABLE_ENTRIES.4642:
 1417 0284 04000000 		.word	4
 1418              		.data
 1419              		.align	2
 1420              		.type	imo_trim_table.4641, %object
 1421              		.size	imo_trim_table.4641, 4
 1422              	imo_trim_table.4641:
 1423 0000 C0F1FF0F 		.word	268431808
 1424              		.text
 1425              	.Letext0:
 1426              		.file 2 "c:\\program files (x86)\\cypress\\psoc creator\\3.0\\psoc creator\\import\\gnu_cs\\arm\\4
 1427              		.file 3 "./Generated_Source/PSoC4/cytypes.h"