ARM GAS  C:\Users\Milo\AppData\Local\Temp\cc4HBKCM.s 			page 1


   1              		.cpu cortex-m0
   2              		.fpu softvfp
   3              		.eabi_attribute 20, 1
   4              		.eabi_attribute 21, 1
   5              		.eabi_attribute 23, 3
   6              		.eabi_attribute 24, 1
   7              		.eabi_attribute 25, 1
   8              		.eabi_attribute 26, 1
   9              		.eabi_attribute 30, 6
  10              		.eabi_attribute 34, 0
  11              		.eabi_attribute 18, 4
  12              		.code	16
  13              		.file	"main.c"
  14              		.text
  15              	.Ltext0:
  16              		.cfi_sections	.debug_frame
  17              		.global	ADDRESS
  18              		.section	.rodata
  19              		.align	2
  20              		.type	ADDRESS, %object
  21              		.size	ADDRESS, 4
  22              	ADDRESS:
  23 0000 0E000000 		.word	14
  24              		.section	.text.main,"ax",%progbits
  25              		.align	2
  26              		.global	main
  27              		.code	16
  28              		.thumb_func
  29              		.type	main, %function
  30              	main:
  31              	.LFB33:
  32              		.file 1 ".\\main.c"
   1:.\main.c      **** /* ========================================
   2:.\main.c      ****  *
   3:.\main.c      ****  * Copyright YOUR COMPANY, THE YEAR
   4:.\main.c      ****  * All Rights Reserved
   5:.\main.c      ****  * UNPUBLISHED, LICENSED SOFTWARE.
   6:.\main.c      ****  *
   7:.\main.c      ****  * CONFIDENTIAL AND PROPRIETARY INFORMATION
   8:.\main.c      ****  * WHICH IS THE PROPERTY OF your company.
   9:.\main.c      ****  *
  10:.\main.c      ****  * ========================================
  11:.\main.c      **** */
  12:.\main.c      **** #include <project.h>
  13:.\main.c      **** #include <stdio.h>
  14:.\main.c      **** 
  15:.\main.c      **** uint8 i2c_write(uint8 subAddr, uint8 *buffer, uint8 buff_size);
  16:.\main.c      **** uint8 i2c_read(uint8 subAddr, uint8 *buffer, uint8 buff_size);
  17:.\main.c      **** void configure();
  18:.\main.c      **** 
  19:.\main.c      **** 
  20:.\main.c      **** const int ADDRESS = 0x0E;
  21:.\main.c      **** int main()
  22:.\main.c      **** {
  33              		.loc 1 22 0
  34              		.cfi_startproc
  35 0000 80B5     		push	{r7, lr}
ARM GAS  C:\Users\Milo\AppData\Local\Temp\cc4HBKCM.s 			page 2


  36              	.LCFI0:
  37              		.cfi_def_cfa_offset 8
  38              		.cfi_offset 7, -8
  39              		.cfi_offset 14, -4
  40 0002 00AF     		add	r7, sp, #0
  41              	.LCFI1:
  42              		.cfi_def_cfa_register 7
  23:.\main.c      ****     /* Place your initialization/startup code here (e.g. MyInst_Start()) */
  24:.\main.c      **** 	I2C_1_Start();
  43              		.loc 1 24 0
  44 0004 FFF7FEFF 		bl	I2C_1_Start
  25:.\main.c      **** 	UART_1_Start();
  45              		.loc 1 25 0
  46 0008 FFF7FEFF 		bl	UART_1_Start
  26:.\main.c      ****     CyGlobalIntEnable;  /* Uncomment this line to enable global interrupts. */
  47              		.loc 1 26 0
  48              	@ 26 ".\main.c" 1
  49 000c 62B6     		CPSIE   i
  50              	@ 0 "" 2
  27:.\main.c      **** 	configure();
  51              		.loc 1 27 0
  52              		.code	16
  53 000e FFF7FEFF 		bl	configure
  54              	.L2:
  28:.\main.c      ****     for(;;)
  29:.\main.c      ****     {
  30:.\main.c      ****     
  31:.\main.c      **** 		
  32:.\main.c      ****     }
  55              		.loc 1 32 0 discriminator 1
  56 0012 FEE7     		b	.L2
  57              		.cfi_endproc
  58              	.LFE33:
  59              		.size	main, .-main
  60              		.section	.rodata
  61              		.align	2
  62              	.LC1:
  63 0004 583A2025 		.ascii	"X: %d \012\000"
  63      64200A00 
  64              		.section	.text.i2c_write,"ax",%progbits
  65              		.align	2
  66              		.global	i2c_write
  67              		.code	16
  68              		.thumb_func
  69              		.type	i2c_write, %function
  70              	i2c_write:
  71              	.LFB34:
  33:.\main.c      **** }
  34:.\main.c      **** uint8 i2c_write(uint8 subAddr, uint8 *buffer, uint8 buff_size) {
  72              		.loc 1 34 0
  73              		.cfi_startproc
  74 0000 80B5     		push	{r7, lr}
  75              	.LCFI2:
  76              		.cfi_def_cfa_offset 8
  77              		.cfi_offset 7, -8
  78              		.cfi_offset 14, -4
  79 0002 86B0     		sub	sp, sp, #24
ARM GAS  C:\Users\Milo\AppData\Local\Temp\cc4HBKCM.s 			page 3


  80              	.LCFI3:
  81              		.cfi_def_cfa_offset 32
  82 0004 00AF     		add	r7, sp, #0
  83              	.LCFI4:
  84              		.cfi_def_cfa_register 7
  85 0006 3960     		str	r1, [r7]
  86 0008 FB1D     		add	r3, r7, #7
  87 000a 011C     		add	r1, r0, #0
  88 000c 1970     		strb	r1, [r3]
  89 000e BB1D     		add	r3, r7, #6
  90 0010 1A70     		strb	r2, [r3]
  35:.\main.c      **** 
  36:.\main.c      **** 	int i;
  37:.\main.c      **** 	uint8 status;
  38:.\main.c      **** 	char array[10];
  39:.\main.c      **** 	I2C_1_I2CMasterClearStatus();
  91              		.loc 1 39 0
  92 0012 FFF7FEFF 		bl	I2C_1_I2CMasterClearStatus
  40:.\main.c      **** 
  41:.\main.c      **** 	
  42:.\main.c      **** 	//Set subaddr
  43:.\main.c      **** 	status = I2C_1_I2CMasterSendStart(ADDRESS, 0);
  93              		.loc 1 43 0
  94 0016 3F4B     		ldr	r3, .L12
  95 0018 1B68     		ldr	r3, [r3]
  96 001a 181C     		mov	r0, r3
  97 001c 0021     		mov	r1, #0
  98 001e FFF7FEFF 		bl	I2C_1_I2CMasterSendStart
  99 0022 021C     		mov	r2, r0
 100 0024 3B1C     		mov	r3, r7
 101 0026 1333     		add	r3, r3, #19
 102 0028 1A70     		strb	r2, [r3]
  44:.\main.c      **** 	if (status != I2C_1_I2C_MSTR_NO_ERROR) {
 103              		.loc 1 44 0
 104 002a 3B1C     		mov	r3, r7
 105 002c 1333     		add	r3, r3, #19
 106 002e 1B78     		ldrb	r3, [r3]
 107 0030 002B     		cmp	r3, #0
 108 0032 15D0     		beq	.L4
  45:.\main.c      **** 		i= sprintf(array, "X: %d \n",status);
 109              		.loc 1 45 0
 110 0034 3B1C     		mov	r3, r7
 111 0036 1333     		add	r3, r3, #19
 112 0038 1B78     		ldrb	r3, [r3]
 113 003a 391C     		mov	r1, r7
 114 003c 0831     		add	r1, r1, #8
 115 003e 364A     		ldr	r2, .L12+4
 116 0040 081C     		mov	r0, r1
 117 0042 111C     		mov	r1, r2
 118 0044 1A1C     		mov	r2, r3
 119 0046 FFF7FEFF 		bl	sprintf
 120 004a 031C     		mov	r3, r0
 121 004c 7B61     		str	r3, [r7, #20]
  46:.\main.c      **** 		UART_1_UartPutString(array);;
 122              		.loc 1 46 0
 123 004e 3B1C     		mov	r3, r7
 124 0050 0833     		add	r3, r3, #8
ARM GAS  C:\Users\Milo\AppData\Local\Temp\cc4HBKCM.s 			page 4


 125 0052 181C     		mov	r0, r3
 126 0054 FFF7FEFF 		bl	UART_1_UartPutString
  47:.\main.c      **** 		return status;
 127              		.loc 1 47 0
 128 0058 3B1C     		mov	r3, r7
 129 005a 1333     		add	r3, r3, #19
 130 005c 1B78     		ldrb	r3, [r3]
 131 005e 54E0     		b	.L11
 132              	.L4:
  48:.\main.c      **** 	}
  49:.\main.c      ****    
  50:.\main.c      ****      
  51:.\main.c      **** 	status = I2C_1_I2CMasterWriteByte(subAddr);
 133              		.loc 1 51 0
 134 0060 FB1D     		add	r3, r7, #7
 135 0062 1B78     		ldrb	r3, [r3]
 136 0064 181C     		mov	r0, r3
 137 0066 FFF7FEFF 		bl	I2C_1_I2CMasterWriteByte
 138 006a 021C     		mov	r2, r0
 139 006c 3B1C     		mov	r3, r7
 140 006e 1333     		add	r3, r3, #19
 141 0070 1A70     		strb	r2, [r3]
  52:.\main.c      **** 	if (status != I2C_1_I2C_MSTR_NO_ERROR) {
 142              		.loc 1 52 0
 143 0072 3B1C     		mov	r3, r7
 144 0074 1333     		add	r3, r3, #19
 145 0076 1B78     		ldrb	r3, [r3]
 146 0078 002B     		cmp	r3, #0
 147 007a 15D0     		beq	.L6
  53:.\main.c      **** 		i= sprintf(array, "X: %d \n",status);
 148              		.loc 1 53 0
 149 007c 3B1C     		mov	r3, r7
 150 007e 1333     		add	r3, r3, #19
 151 0080 1B78     		ldrb	r3, [r3]
 152 0082 391C     		mov	r1, r7
 153 0084 0831     		add	r1, r1, #8
 154 0086 244A     		ldr	r2, .L12+4
 155 0088 081C     		mov	r0, r1
 156 008a 111C     		mov	r1, r2
 157 008c 1A1C     		mov	r2, r3
 158 008e FFF7FEFF 		bl	sprintf
 159 0092 031C     		mov	r3, r0
 160 0094 7B61     		str	r3, [r7, #20]
  54:.\main.c      **** 		UART_1_UartPutString(array);
 161              		.loc 1 54 0
 162 0096 3B1C     		mov	r3, r7
 163 0098 0833     		add	r3, r3, #8
 164 009a 181C     		mov	r0, r3
 165 009c FFF7FEFF 		bl	UART_1_UartPutString
  55:.\main.c      **** 		return status;
 166              		.loc 1 55 0
 167 00a0 3B1C     		mov	r3, r7
 168 00a2 1333     		add	r3, r3, #19
 169 00a4 1B78     		ldrb	r3, [r3]
 170 00a6 30E0     		b	.L11
 171              	.L6:
  56:.\main.c      **** 	}
ARM GAS  C:\Users\Milo\AppData\Local\Temp\cc4HBKCM.s 			page 5


  57:.\main.c      ****                
  58:.\main.c      **** 	for (i=0;i<buff_size;i++) {
 172              		.loc 1 58 0
 173 00a8 0023     		mov	r3, #0
 174 00aa 7B61     		str	r3, [r7, #20]
 175 00ac 16E0     		b	.L7
 176              	.L9:
  59:.\main.c      **** 		status = I2C_1_I2CMasterWriteByte(buffer[i]);
 177              		.loc 1 59 0
 178 00ae 7B69     		ldr	r3, [r7, #20]
 179 00b0 3A68     		ldr	r2, [r7]
 180 00b2 D318     		add	r3, r2, r3
 181 00b4 1B78     		ldrb	r3, [r3]
 182 00b6 181C     		mov	r0, r3
 183 00b8 FFF7FEFF 		bl	I2C_1_I2CMasterWriteByte
 184 00bc 021C     		mov	r2, r0
 185 00be 3B1C     		mov	r3, r7
 186 00c0 1333     		add	r3, r3, #19
 187 00c2 1A70     		strb	r2, [r3]
  60:.\main.c      **** 		if (status != I2C_1_I2C_MSTR_NO_ERROR) {
 188              		.loc 1 60 0
 189 00c4 3B1C     		mov	r3, r7
 190 00c6 1333     		add	r3, r3, #19
 191 00c8 1B78     		ldrb	r3, [r3]
 192 00ca 002B     		cmp	r3, #0
 193 00cc 03D0     		beq	.L8
  61:.\main.c      **** 			return status;
 194              		.loc 1 61 0
 195 00ce 3B1C     		mov	r3, r7
 196 00d0 1333     		add	r3, r3, #19
 197 00d2 1B78     		ldrb	r3, [r3]
 198 00d4 19E0     		b	.L11
 199              	.L8:
  58:.\main.c      **** 	for (i=0;i<buff_size;i++) {
 200              		.loc 1 58 0
 201 00d6 7B69     		ldr	r3, [r7, #20]
 202 00d8 0133     		add	r3, r3, #1
 203 00da 7B61     		str	r3, [r7, #20]
 204              	.L7:
  58:.\main.c      **** 	for (i=0;i<buff_size;i++) {
 205              		.loc 1 58 0 is_stmt 0 discriminator 1
 206 00dc BB1D     		add	r3, r7, #6
 207 00de 1A78     		ldrb	r2, [r3]
 208 00e0 7B69     		ldr	r3, [r7, #20]
 209 00e2 9A42     		cmp	r2, r3
 210 00e4 E3DC     		bgt	.L9
  62:.\main.c      **** 			i= sprintf(array, "X: %d \n",status);
  63:.\main.c      **** 			UART_1_UartPutString(array);
  64:.\main.c      **** 		}
  65:.\main.c      **** 	}
  66:.\main.c      ****                   
  67:.\main.c      **** 		status = I2C_1_I2CMasterSendStop();
 211              		.loc 1 67 0 is_stmt 1
 212 00e6 FFF7FEFF 		bl	I2C_1_I2CMasterSendStop
 213 00ea 021C     		mov	r2, r0
 214 00ec 3B1C     		mov	r3, r7
 215 00ee 1333     		add	r3, r3, #19
ARM GAS  C:\Users\Milo\AppData\Local\Temp\cc4HBKCM.s 			page 6


 216 00f0 1A70     		strb	r2, [r3]
  68:.\main.c      **** 	if (status != I2C_1_I2C_MSTR_NO_ERROR) {
 217              		.loc 1 68 0
 218 00f2 3B1C     		mov	r3, r7
 219 00f4 1333     		add	r3, r3, #19
 220 00f6 1B78     		ldrb	r3, [r3]
 221 00f8 002B     		cmp	r3, #0
 222 00fa 03D0     		beq	.L10
  69:.\main.c      **** 		return status;
 223              		.loc 1 69 0
 224 00fc 3B1C     		mov	r3, r7
 225 00fe 1333     		add	r3, r3, #19
 226 0100 1B78     		ldrb	r3, [r3]
 227 0102 02E0     		b	.L11
 228              	.L10:
  70:.\main.c      **** 		i= sprintf(array, "X: %d \n",status);
  71:.\main.c      **** 		UART_1_UartPutString(array);
  72:.\main.c      **** 	}   
  73:.\main.c      **** 	return status;
 229              		.loc 1 73 0
 230 0104 3B1C     		mov	r3, r7
 231 0106 1333     		add	r3, r3, #19
 232 0108 1B78     		ldrb	r3, [r3]
 233              	.L11:
  74:.\main.c      **** }
 234              		.loc 1 74 0
 235 010a 181C     		mov	r0, r3
 236 010c BD46     		mov	sp, r7
 237 010e 06B0     		add	sp, sp, #24
 238              		@ sp needed for prologue
 239 0110 80BD     		pop	{r7, pc}
 240              	.L13:
 241 0112 C046     		.align	2
 242              	.L12:
 243 0114 00000000 		.word	ADDRESS
 244 0118 04000000 		.word	.LC1
 245              		.cfi_endproc
 246              	.LFE34:
 247              		.size	i2c_write, .-i2c_write
 248              		.section	.text.i2c_read,"ax",%progbits
 249              		.align	2
 250              		.global	i2c_read
 251              		.code	16
 252              		.thumb_func
 253              		.type	i2c_read, %function
 254              	i2c_read:
 255              	.LFB35:
  75:.\main.c      **** uint8 i2c_read(uint8 subAddr, uint8 *buffer, uint8 buff_size) {
 256              		.loc 1 75 0
 257              		.cfi_startproc
 258 0000 90B5     		push	{r4, r7, lr}
 259              	.LCFI5:
 260              		.cfi_def_cfa_offset 12
 261              		.cfi_offset 4, -12
 262              		.cfi_offset 7, -8
 263              		.cfi_offset 14, -4
 264 0002 89B0     		sub	sp, sp, #36
ARM GAS  C:\Users\Milo\AppData\Local\Temp\cc4HBKCM.s 			page 7


 265              	.LCFI6:
 266              		.cfi_def_cfa_offset 48
 267 0004 00AF     		add	r7, sp, #0
 268              	.LCFI7:
 269              		.cfi_def_cfa_register 7
 270 0006 3960     		str	r1, [r7]
 271 0008 FB1D     		add	r3, r7, #7
 272 000a 011C     		add	r1, r0, #0
 273 000c 1970     		strb	r1, [r3]
 274 000e BB1D     		add	r3, r7, #6
 275 0010 1A70     		strb	r2, [r3]
  76:.\main.c      **** 
  77:.\main.c      **** 	uint8 status;
  78:.\main.c      **** 	int i;
  79:.\main.c      **** 	char array[12];
  80:.\main.c      **** 	
  81:.\main.c      **** 	I2C_1_I2CMasterClearStatus();
 276              		.loc 1 81 0
 277 0012 FFF7FEFF 		bl	I2C_1_I2CMasterClearStatus
  82:.\main.c      ****     //UART_1_PutString("make it here?  \n"); 
  83:.\main.c      **** 	//Set subaddr
  84:.\main.c      **** 	status = I2C_1_I2CMasterSendStart(ADDRESS, 0);
 278              		.loc 1 84 0
 279 0016 414B     		ldr	r3, .L24
 280 0018 1B68     		ldr	r3, [r3]
 281 001a 181C     		mov	r0, r3
 282 001c 0021     		mov	r1, #0
 283 001e FFF7FEFF 		bl	I2C_1_I2CMasterSendStart
 284 0022 021C     		mov	r2, r0
 285 0024 3B1C     		mov	r3, r7
 286 0026 1B33     		add	r3, r3, #27
 287 0028 1A70     		strb	r2, [r3]
  85:.\main.c      **** 	if (status != I2C_1_I2C_MSTR_NO_ERROR) {
 288              		.loc 1 85 0
 289 002a 3B1C     		mov	r3, r7
 290 002c 1B33     		add	r3, r3, #27
 291 002e 1B78     		ldrb	r3, [r3]
 292 0030 002B     		cmp	r3, #0
 293 0032 15D0     		beq	.L15
  86:.\main.c      **** 		i= sprintf(array, "X: %d \n",status);
 294              		.loc 1 86 0
 295 0034 3B1C     		mov	r3, r7
 296 0036 1B33     		add	r3, r3, #27
 297 0038 1B78     		ldrb	r3, [r3]
 298 003a 391C     		mov	r1, r7
 299 003c 0C31     		add	r1, r1, #12
 300 003e 384A     		ldr	r2, .L24+4
 301 0040 081C     		mov	r0, r1
 302 0042 111C     		mov	r1, r2
 303 0044 1A1C     		mov	r2, r3
 304 0046 FFF7FEFF 		bl	sprintf
 305 004a 031C     		mov	r3, r0
 306 004c FB61     		str	r3, [r7, #28]
  87:.\main.c      **** 		UART_1_UartPutString(array);
 307              		.loc 1 87 0
 308 004e 3B1C     		mov	r3, r7
 309 0050 0C33     		add	r3, r3, #12
ARM GAS  C:\Users\Milo\AppData\Local\Temp\cc4HBKCM.s 			page 8


 310 0052 181C     		mov	r0, r3
 311 0054 FFF7FEFF 		bl	UART_1_UartPutString
  88:.\main.c      **** 		return status;
 312              		.loc 1 88 0
 313 0058 3B1C     		mov	r3, r7
 314 005a 1B33     		add	r3, r3, #27
 315 005c 1B78     		ldrb	r3, [r3]
 316 005e 58E0     		b	.L23
 317              	.L15:
  89:.\main.c      **** 	}
  90:.\main.c      ****         //UART_1_PutString("make it here?  \n");        
  91:.\main.c      **** 	buffer[0] = I2C_1_I2CMasterReadByte(0);
 318              		.loc 1 91 0
 319 0060 0020     		mov	r0, #0
 320 0062 FFF7FEFF 		bl	I2C_1_I2CMasterReadByte
 321 0066 031C     		mov	r3, r0
 322 0068 DAB2     		uxtb	r2, r3
 323 006a 3B68     		ldr	r3, [r7]
 324 006c 1A70     		strb	r2, [r3]
  92:.\main.c      ****                    
  93:.\main.c      **** 	status = I2C_1_I2CMasterWriteByte(subAddr);
 325              		.loc 1 93 0
 326 006e FB1D     		add	r3, r7, #7
 327 0070 1B78     		ldrb	r3, [r3]
 328 0072 181C     		mov	r0, r3
 329 0074 FFF7FEFF 		bl	I2C_1_I2CMasterWriteByte
 330 0078 021C     		mov	r2, r0
 331 007a 3B1C     		mov	r3, r7
 332 007c 1B33     		add	r3, r3, #27
 333 007e 1A70     		strb	r2, [r3]
  94:.\main.c      **** 	if (status != I2C_1_I2C_MSTR_NO_ERROR) {
 334              		.loc 1 94 0
 335 0080 3B1C     		mov	r3, r7
 336 0082 1B33     		add	r3, r3, #27
 337 0084 1B78     		ldrb	r3, [r3]
 338 0086 002B     		cmp	r3, #0
 339 0088 03D0     		beq	.L17
  95:.\main.c      **** 		return status;
 340              		.loc 1 95 0
 341 008a 3B1C     		mov	r3, r7
 342 008c 1B33     		add	r3, r3, #27
 343 008e 1B78     		ldrb	r3, [r3]
 344 0090 3FE0     		b	.L23
 345              	.L17:
  96:.\main.c      **** 	}
  97:.\main.c      ****                
  98:.\main.c      **** 	status = I2C_1_I2CMasterSendRestart(ADDRESS, 1);
 346              		.loc 1 98 0
 347 0092 224B     		ldr	r3, .L24
 348 0094 1B68     		ldr	r3, [r3]
 349 0096 181C     		mov	r0, r3
 350 0098 0121     		mov	r1, #1
 351 009a FFF7FEFF 		bl	I2C_1_I2CMasterSendRestart
 352 009e 021C     		mov	r2, r0
 353 00a0 3B1C     		mov	r3, r7
 354 00a2 1B33     		add	r3, r3, #27
 355 00a4 1A70     		strb	r2, [r3]
ARM GAS  C:\Users\Milo\AppData\Local\Temp\cc4HBKCM.s 			page 9


  99:.\main.c      **** 	if (status != I2C_1_I2C_MSTR_NO_ERROR) {
 356              		.loc 1 99 0
 357 00a6 3B1C     		mov	r3, r7
 358 00a8 1B33     		add	r3, r3, #27
 359 00aa 1B78     		ldrb	r3, [r3]
 360 00ac 002B     		cmp	r3, #0
 361 00ae 03D0     		beq	.L18
 100:.\main.c      **** 		return status;
 362              		.loc 1 100 0
 363 00b0 3B1C     		mov	r3, r7
 364 00b2 1B33     		add	r3, r3, #27
 365 00b4 1B78     		ldrb	r3, [r3]
 366 00b6 2CE0     		b	.L23
 367              	.L18:
 101:.\main.c      **** 	}               
 102:.\main.c      ****                
 103:.\main.c      **** 	for (i=0;i<buff_size;i++) {
 368              		.loc 1 103 0
 369 00b8 0023     		mov	r3, #0
 370 00ba FB61     		str	r3, [r7, #28]
 371 00bc 14E0     		b	.L19
 372              	.L21:
 104:.\main.c      **** 		buffer[i] = I2C_1_I2CMasterReadByte( (i<(buff_size-1) ) );
 373              		.loc 1 104 0 discriminator 2
 374 00be FB69     		ldr	r3, [r7, #28]
 375 00c0 3A68     		ldr	r2, [r7]
 376 00c2 D418     		add	r4, r2, r3
 377 00c4 BB1D     		add	r3, r7, #6
 378 00c6 1B78     		ldrb	r3, [r3]
 379 00c8 591E     		sub	r1, r3, #1
 380 00ca 0123     		mov	r3, #1
 381 00cc FA69     		ldr	r2, [r7, #28]
 382 00ce 9142     		cmp	r1, r2
 383 00d0 00DC     		bgt	.L20
 384 00d2 0023     		mov	r3, #0
 385              	.L20:
 386 00d4 DBB2     		uxtb	r3, r3
 387 00d6 181C     		mov	r0, r3
 388 00d8 FFF7FEFF 		bl	I2C_1_I2CMasterReadByte
 389 00dc 031C     		mov	r3, r0
 390 00de DBB2     		uxtb	r3, r3
 391 00e0 2370     		strb	r3, [r4]
 103:.\main.c      **** 	for (i=0;i<buff_size;i++) {
 392              		.loc 1 103 0 discriminator 2
 393 00e2 FB69     		ldr	r3, [r7, #28]
 394 00e4 0133     		add	r3, r3, #1
 395 00e6 FB61     		str	r3, [r7, #28]
 396              	.L19:
 103:.\main.c      **** 	for (i=0;i<buff_size;i++) {
 397              		.loc 1 103 0 is_stmt 0 discriminator 1
 398 00e8 BB1D     		add	r3, r7, #6
 399 00ea 1A78     		ldrb	r2, [r3]
 400 00ec FB69     		ldr	r3, [r7, #28]
 401 00ee 9A42     		cmp	r2, r3
 402 00f0 E5DC     		bgt	.L21
 105:.\main.c      **** 	}
 106:.\main.c      ****  
ARM GAS  C:\Users\Milo\AppData\Local\Temp\cc4HBKCM.s 			page 10


 107:.\main.c      **** 	status = I2C_1_I2CMasterSendStop();
 403              		.loc 1 107 0 is_stmt 1
 404 00f2 FFF7FEFF 		bl	I2C_1_I2CMasterSendStop
 405 00f6 021C     		mov	r2, r0
 406 00f8 3B1C     		mov	r3, r7
 407 00fa 1B33     		add	r3, r3, #27
 408 00fc 1A70     		strb	r2, [r3]
 108:.\main.c      **** 	if (status != I2C_1_I2C_MSTR_NO_ERROR) {
 409              		.loc 1 108 0
 410 00fe 3B1C     		mov	r3, r7
 411 0100 1B33     		add	r3, r3, #27
 412 0102 1B78     		ldrb	r3, [r3]
 413 0104 002B     		cmp	r3, #0
 414 0106 03D0     		beq	.L22
 109:.\main.c      ****         return status;
 415              		.loc 1 109 0
 416 0108 3B1C     		mov	r3, r7
 417 010a 1B33     		add	r3, r3, #27
 418 010c 1B78     		ldrb	r3, [r3]
 419 010e 00E0     		b	.L23
 420              	.L22:
 110:.\main.c      ****  	}  
 111:.\main.c      **** 	return 0;
 421              		.loc 1 111 0
 422 0110 0023     		mov	r3, #0
 423              	.L23:
 112:.\main.c      **** }
 424              		.loc 1 112 0
 425 0112 181C     		mov	r0, r3
 426 0114 BD46     		mov	sp, r7
 427 0116 09B0     		add	sp, sp, #36
 428              		@ sp needed for prologue
 429 0118 90BD     		pop	{r4, r7, pc}
 430              	.L25:
 431 011a C046     		.align	2
 432              	.L24:
 433 011c 00000000 		.word	ADDRESS
 434 0120 04000000 		.word	.LC1
 435              		.cfi_endproc
 436              	.LFE35:
 437              		.size	i2c_read, .-i2c_read
 438              		.section	.text.configure,"ax",%progbits
 439              		.align	2
 440              		.global	configure
 441              		.code	16
 442              		.thumb_func
 443              		.type	configure, %function
 444              	configure:
 445              	.LFB36:
 113:.\main.c      **** void configure()
 114:.\main.c      **** {
 446              		.loc 1 114 0
 447              		.cfi_startproc
 448 0000 80B5     		push	{r7, lr}
 449              	.LCFI8:
 450              		.cfi_def_cfa_offset 8
 451              		.cfi_offset 7, -8
ARM GAS  C:\Users\Milo\AppData\Local\Temp\cc4HBKCM.s 			page 11


 452              		.cfi_offset 14, -4
 453 0002 82B0     		sub	sp, sp, #8
 454              	.LCFI9:
 455              		.cfi_def_cfa_offset 16
 456 0004 00AF     		add	r7, sp, #0
 457              	.LCFI10:
 458              		.cfi_def_cfa_register 7
 115:.\main.c      **** 	uint8 array[2];
 116:.\main.c      **** 	array [0] = 0x80;
 459              		.loc 1 116 0
 460 0006 3B1D     		add	r3, r7, #4
 461 0008 8022     		mov	r2, #128
 462 000a 1A70     		strb	r2, [r3]
 117:.\main.c      **** 	i2c_write(0x11,array,1);
 463              		.loc 1 117 0
 464 000c 3B1D     		add	r3, r7, #4
 465 000e 1120     		mov	r0, #17
 466 0010 191C     		mov	r1, r3
 467 0012 0122     		mov	r2, #1
 468 0014 FFF7FEFF 		bl	i2c_write
 118:.\main.c      **** 	
 119:.\main.c      **** 	array [0] = 1;
 469              		.loc 1 119 0
 470 0018 3B1D     		add	r3, r7, #4
 471 001a 0122     		mov	r2, #1
 472 001c 1A70     		strb	r2, [r3]
 120:.\main.c      **** 	i2c_write(0x10,array,1);
 473              		.loc 1 120 0
 474 001e 3B1D     		add	r3, r7, #4
 475 0020 1020     		mov	r0, #16
 476 0022 191C     		mov	r1, r3
 477 0024 0122     		mov	r2, #1
 478 0026 FFF7FEFF 		bl	i2c_write
 121:.\main.c      **** }
 479              		.loc 1 121 0
 480 002a BD46     		mov	sp, r7
 481 002c 02B0     		add	sp, sp, #8
 482              		@ sp needed for prologue
 483 002e 80BD     		pop	{r7, pc}
 484              		.cfi_endproc
 485              	.LFE36:
 486              		.size	configure, .-configure
 487              		.text
 488              	.Letext0:
 489              		.file 2 "./Generated_Source/PSoC4/cytypes.h"
 490              		.section	.debug_info,"",%progbits
 491              	.Ldebug_info0:
 492 0000 03020000 		.4byte	0x203
 493 0004 0200     		.2byte	0x2
 494 0006 00000000 		.4byte	.Ldebug_abbrev0
 495 000a 04       		.byte	0x4
 496 000b 01       		.uleb128 0x1
 497 000c 7C000000 		.4byte	.LASF20
 498 0010 01       		.byte	0x1
 499 0011 82010000 		.4byte	.LASF21
 500 0015 1B000000 		.4byte	.LASF22
 501 0019 00000000 		.4byte	.Ldebug_ranges0+0
ARM GAS  C:\Users\Milo\AppData\Local\Temp\cc4HBKCM.s 			page 12


 502 001d 00000000 		.4byte	0
 503 0021 00000000 		.4byte	0
 504 0025 00000000 		.4byte	.Ldebug_line0
 505 0029 02       		.uleb128 0x2
 506 002a 01       		.byte	0x1
 507 002b 06       		.byte	0x6
 508 002c 5E010000 		.4byte	.LASF0
 509 0030 02       		.uleb128 0x2
 510 0031 01       		.byte	0x1
 511 0032 08       		.byte	0x8
 512 0033 0E010000 		.4byte	.LASF1
 513 0037 02       		.uleb128 0x2
 514 0038 02       		.byte	0x2
 515 0039 05       		.byte	0x5
 516 003a 34010000 		.4byte	.LASF2
 517 003e 02       		.uleb128 0x2
 518 003f 02       		.byte	0x2
 519 0040 07       		.byte	0x7
 520 0041 4B010000 		.4byte	.LASF3
 521 0045 02       		.uleb128 0x2
 522 0046 04       		.byte	0x4
 523 0047 05       		.byte	0x5
 524 0048 2B010000 		.4byte	.LASF4
 525 004c 02       		.uleb128 0x2
 526 004d 04       		.byte	0x4
 527 004e 07       		.byte	0x7
 528 004f CB000000 		.4byte	.LASF5
 529 0053 02       		.uleb128 0x2
 530 0054 08       		.byte	0x8
 531 0055 05       		.byte	0x5
 532 0056 00000000 		.4byte	.LASF6
 533 005a 02       		.uleb128 0x2
 534 005b 08       		.byte	0x8
 535 005c 07       		.byte	0x7
 536 005d E4000000 		.4byte	.LASF7
 537 0061 03       		.uleb128 0x3
 538 0062 04       		.byte	0x4
 539 0063 05       		.byte	0x5
 540 0064 696E7400 		.ascii	"int\000"
 541 0068 02       		.uleb128 0x2
 542 0069 04       		.byte	0x4
 543 006a 07       		.byte	0x7
 544 006b 0E000000 		.4byte	.LASF8
 545 006f 04       		.uleb128 0x4
 546 0070 C5000000 		.4byte	.LASF23
 547 0074 02       		.byte	0x2
 548 0075 5B       		.byte	0x5b
 549 0076 30000000 		.4byte	0x30
 550 007a 02       		.uleb128 0x2
 551 007b 04       		.byte	0x4
 552 007c 04       		.byte	0x4
 553 007d 74010000 		.4byte	.LASF9
 554 0081 02       		.uleb128 0x2
 555 0082 08       		.byte	0x8
 556 0083 04       		.byte	0x4
 557 0084 3E010000 		.4byte	.LASF10
 558 0088 02       		.uleb128 0x2
ARM GAS  C:\Users\Milo\AppData\Local\Temp\cc4HBKCM.s 			page 13


 559 0089 01       		.byte	0x1
 560 008a 08       		.byte	0x8
 561 008b 26010000 		.4byte	.LASF11
 562 008f 02       		.uleb128 0x2
 563 0090 04       		.byte	0x4
 564 0091 07       		.byte	0x7
 565 0092 92010000 		.4byte	.LASF12
 566 0096 05       		.uleb128 0x5
 567 0097 04       		.byte	0x4
 568 0098 6F000000 		.4byte	0x6f
 569 009c 06       		.uleb128 0x6
 570 009d 01       		.byte	0x1
 571 009e 6F000000 		.4byte	.LASF24
 572 00a2 01       		.byte	0x1
 573 00a3 15       		.byte	0x15
 574 00a4 61000000 		.4byte	0x61
 575 00a8 00000000 		.4byte	.LFB33
 576 00ac 14000000 		.4byte	.LFE33
 577 00b0 00000000 		.4byte	.LLST0
 578 00b4 01       		.byte	0x1
 579 00b5 07       		.uleb128 0x7
 580 00b6 01       		.byte	0x1
 581 00b7 1C010000 		.4byte	.LASF18
 582 00bb 01       		.byte	0x1
 583 00bc 22       		.byte	0x22
 584 00bd 01       		.byte	0x1
 585 00be 6F000000 		.4byte	0x6f
 586 00c2 00000000 		.4byte	.LFB34
 587 00c6 1C010000 		.4byte	.LFE34
 588 00ca 2C000000 		.4byte	.LLST1
 589 00ce 01       		.byte	0x1
 590 00cf 26010000 		.4byte	0x126
 591 00d3 08       		.uleb128 0x8
 592 00d4 7A010000 		.4byte	.LASF13
 593 00d8 01       		.byte	0x1
 594 00d9 22       		.byte	0x22
 595 00da 6F000000 		.4byte	0x6f
 596 00de 02       		.byte	0x2
 597 00df 91       		.byte	0x91
 598 00e0 67       		.sleb128 -25
 599 00e1 08       		.uleb128 0x8
 600 00e2 8B010000 		.4byte	.LASF14
 601 00e6 01       		.byte	0x1
 602 00e7 22       		.byte	0x22
 603 00e8 96000000 		.4byte	0x96
 604 00ec 02       		.byte	0x2
 605 00ed 91       		.byte	0x91
 606 00ee 60       		.sleb128 -32
 607 00ef 08       		.uleb128 0x8
 608 00f0 6A010000 		.4byte	.LASF15
 609 00f4 01       		.byte	0x1
 610 00f5 22       		.byte	0x22
 611 00f6 6F000000 		.4byte	0x6f
 612 00fa 02       		.byte	0x2
 613 00fb 91       		.byte	0x91
 614 00fc 66       		.sleb128 -26
 615 00fd 09       		.uleb128 0x9
ARM GAS  C:\Users\Milo\AppData\Local\Temp\cc4HBKCM.s 			page 14


 616 00fe 6900     		.ascii	"i\000"
 617 0100 01       		.byte	0x1
 618 0101 24       		.byte	0x24
 619 0102 61000000 		.4byte	0x61
 620 0106 02       		.byte	0x2
 621 0107 91       		.byte	0x91
 622 0108 74       		.sleb128 -12
 623 0109 0A       		.uleb128 0xa
 624 010a DD000000 		.4byte	.LASF16
 625 010e 01       		.byte	0x1
 626 010f 25       		.byte	0x25
 627 0110 6F000000 		.4byte	0x6f
 628 0114 02       		.byte	0x2
 629 0115 91       		.byte	0x91
 630 0116 73       		.sleb128 -13
 631 0117 0A       		.uleb128 0xa
 632 0118 45010000 		.4byte	.LASF17
 633 011c 01       		.byte	0x1
 634 011d 26       		.byte	0x26
 635 011e 26010000 		.4byte	0x126
 636 0122 02       		.byte	0x2
 637 0123 91       		.byte	0x91
 638 0124 68       		.sleb128 -24
 639 0125 00       		.byte	0
 640 0126 0B       		.uleb128 0xb
 641 0127 88000000 		.4byte	0x88
 642 012b 36010000 		.4byte	0x136
 643 012f 0C       		.uleb128 0xc
 644 0130 8F000000 		.4byte	0x8f
 645 0134 09       		.byte	0x9
 646 0135 00       		.byte	0
 647 0136 07       		.uleb128 0x7
 648 0137 01       		.byte	0x1
 649 0138 FB000000 		.4byte	.LASF19
 650 013c 01       		.byte	0x1
 651 013d 4B       		.byte	0x4b
 652 013e 01       		.byte	0x1
 653 013f 6F000000 		.4byte	0x6f
 654 0143 00000000 		.4byte	.LFB35
 655 0147 24010000 		.4byte	.LFE35
 656 014b 64000000 		.4byte	.LLST2
 657 014f 01       		.byte	0x1
 658 0150 A7010000 		.4byte	0x1a7
 659 0154 08       		.uleb128 0x8
 660 0155 7A010000 		.4byte	.LASF13
 661 0159 01       		.byte	0x1
 662 015a 4B       		.byte	0x4b
 663 015b 6F000000 		.4byte	0x6f
 664 015f 02       		.byte	0x2
 665 0160 91       		.byte	0x91
 666 0161 57       		.sleb128 -41
 667 0162 08       		.uleb128 0x8
 668 0163 8B010000 		.4byte	.LASF14
 669 0167 01       		.byte	0x1
 670 0168 4B       		.byte	0x4b
 671 0169 96000000 		.4byte	0x96
 672 016d 02       		.byte	0x2
ARM GAS  C:\Users\Milo\AppData\Local\Temp\cc4HBKCM.s 			page 15


 673 016e 91       		.byte	0x91
 674 016f 50       		.sleb128 -48
 675 0170 08       		.uleb128 0x8
 676 0171 6A010000 		.4byte	.LASF15
 677 0175 01       		.byte	0x1
 678 0176 4B       		.byte	0x4b
 679 0177 6F000000 		.4byte	0x6f
 680 017b 02       		.byte	0x2
 681 017c 91       		.byte	0x91
 682 017d 56       		.sleb128 -42
 683 017e 0A       		.uleb128 0xa
 684 017f DD000000 		.4byte	.LASF16
 685 0183 01       		.byte	0x1
 686 0184 4D       		.byte	0x4d
 687 0185 6F000000 		.4byte	0x6f
 688 0189 02       		.byte	0x2
 689 018a 91       		.byte	0x91
 690 018b 6B       		.sleb128 -21
 691 018c 09       		.uleb128 0x9
 692 018d 6900     		.ascii	"i\000"
 693 018f 01       		.byte	0x1
 694 0190 4E       		.byte	0x4e
 695 0191 61000000 		.4byte	0x61
 696 0195 02       		.byte	0x2
 697 0196 91       		.byte	0x91
 698 0197 6C       		.sleb128 -20
 699 0198 0A       		.uleb128 0xa
 700 0199 45010000 		.4byte	.LASF17
 701 019d 01       		.byte	0x1
 702 019e 4F       		.byte	0x4f
 703 019f A7010000 		.4byte	0x1a7
 704 01a3 02       		.byte	0x2
 705 01a4 91       		.byte	0x91
 706 01a5 5C       		.sleb128 -36
 707 01a6 00       		.byte	0
 708 01a7 0B       		.uleb128 0xb
 709 01a8 88000000 		.4byte	0x88
 710 01ac B7010000 		.4byte	0x1b7
 711 01b0 0C       		.uleb128 0xc
 712 01b1 8F000000 		.4byte	0x8f
 713 01b5 0B       		.byte	0xb
 714 01b6 00       		.byte	0
 715 01b7 0D       		.uleb128 0xd
 716 01b8 01       		.byte	0x1
 717 01b9 04010000 		.4byte	.LASF25
 718 01bd 01       		.byte	0x1
 719 01be 71       		.byte	0x71
 720 01bf 00000000 		.4byte	.LFB36
 721 01c3 30000000 		.4byte	.LFE36
 722 01c7 9C000000 		.4byte	.LLST3
 723 01cb 01       		.byte	0x1
 724 01cc DF010000 		.4byte	0x1df
 725 01d0 0A       		.uleb128 0xa
 726 01d1 45010000 		.4byte	.LASF17
 727 01d5 01       		.byte	0x1
 728 01d6 73       		.byte	0x73
 729 01d7 DF010000 		.4byte	0x1df
ARM GAS  C:\Users\Milo\AppData\Local\Temp\cc4HBKCM.s 			page 16


 730 01db 02       		.byte	0x2
 731 01dc 91       		.byte	0x91
 732 01dd 74       		.sleb128 -12
 733 01de 00       		.byte	0
 734 01df 0B       		.uleb128 0xb
 735 01e0 6F000000 		.4byte	0x6f
 736 01e4 EF010000 		.4byte	0x1ef
 737 01e8 0C       		.uleb128 0xc
 738 01e9 8F000000 		.4byte	0x8f
 739 01ed 01       		.byte	0x1
 740 01ee 00       		.byte	0
 741 01ef 0E       		.uleb128 0xe
 742 01f0 74000000 		.4byte	.LASF26
 743 01f4 01       		.byte	0x1
 744 01f5 14       		.byte	0x14
 745 01f6 01020000 		.4byte	0x201
 746 01fa 01       		.byte	0x1
 747 01fb 05       		.byte	0x5
 748 01fc 03       		.byte	0x3
 749 01fd 00000000 		.4byte	ADDRESS
 750 0201 0F       		.uleb128 0xf
 751 0202 61000000 		.4byte	0x61
 752 0206 00       		.byte	0
 753              		.section	.debug_abbrev,"",%progbits
 754              	.Ldebug_abbrev0:
 755 0000 01       		.uleb128 0x1
 756 0001 11       		.uleb128 0x11
 757 0002 01       		.byte	0x1
 758 0003 25       		.uleb128 0x25
 759 0004 0E       		.uleb128 0xe
 760 0005 13       		.uleb128 0x13
 761 0006 0B       		.uleb128 0xb
 762 0007 03       		.uleb128 0x3
 763 0008 0E       		.uleb128 0xe
 764 0009 1B       		.uleb128 0x1b
 765 000a 0E       		.uleb128 0xe
 766 000b 55       		.uleb128 0x55
 767 000c 06       		.uleb128 0x6
 768 000d 11       		.uleb128 0x11
 769 000e 01       		.uleb128 0x1
 770 000f 52       		.uleb128 0x52
 771 0010 01       		.uleb128 0x1
 772 0011 10       		.uleb128 0x10
 773 0012 06       		.uleb128 0x6
 774 0013 00       		.byte	0
 775 0014 00       		.byte	0
 776 0015 02       		.uleb128 0x2
 777 0016 24       		.uleb128 0x24
 778 0017 00       		.byte	0
 779 0018 0B       		.uleb128 0xb
 780 0019 0B       		.uleb128 0xb
 781 001a 3E       		.uleb128 0x3e
 782 001b 0B       		.uleb128 0xb
 783 001c 03       		.uleb128 0x3
 784 001d 0E       		.uleb128 0xe
 785 001e 00       		.byte	0
 786 001f 00       		.byte	0
ARM GAS  C:\Users\Milo\AppData\Local\Temp\cc4HBKCM.s 			page 17


 787 0020 03       		.uleb128 0x3
 788 0021 24       		.uleb128 0x24
 789 0022 00       		.byte	0
 790 0023 0B       		.uleb128 0xb
 791 0024 0B       		.uleb128 0xb
 792 0025 3E       		.uleb128 0x3e
 793 0026 0B       		.uleb128 0xb
 794 0027 03       		.uleb128 0x3
 795 0028 08       		.uleb128 0x8
 796 0029 00       		.byte	0
 797 002a 00       		.byte	0
 798 002b 04       		.uleb128 0x4
 799 002c 16       		.uleb128 0x16
 800 002d 00       		.byte	0
 801 002e 03       		.uleb128 0x3
 802 002f 0E       		.uleb128 0xe
 803 0030 3A       		.uleb128 0x3a
 804 0031 0B       		.uleb128 0xb
 805 0032 3B       		.uleb128 0x3b
 806 0033 0B       		.uleb128 0xb
 807 0034 49       		.uleb128 0x49
 808 0035 13       		.uleb128 0x13
 809 0036 00       		.byte	0
 810 0037 00       		.byte	0
 811 0038 05       		.uleb128 0x5
 812 0039 0F       		.uleb128 0xf
 813 003a 00       		.byte	0
 814 003b 0B       		.uleb128 0xb
 815 003c 0B       		.uleb128 0xb
 816 003d 49       		.uleb128 0x49
 817 003e 13       		.uleb128 0x13
 818 003f 00       		.byte	0
 819 0040 00       		.byte	0
 820 0041 06       		.uleb128 0x6
 821 0042 2E       		.uleb128 0x2e
 822 0043 00       		.byte	0
 823 0044 3F       		.uleb128 0x3f
 824 0045 0C       		.uleb128 0xc
 825 0046 03       		.uleb128 0x3
 826 0047 0E       		.uleb128 0xe
 827 0048 3A       		.uleb128 0x3a
 828 0049 0B       		.uleb128 0xb
 829 004a 3B       		.uleb128 0x3b
 830 004b 0B       		.uleb128 0xb
 831 004c 49       		.uleb128 0x49
 832 004d 13       		.uleb128 0x13
 833 004e 11       		.uleb128 0x11
 834 004f 01       		.uleb128 0x1
 835 0050 12       		.uleb128 0x12
 836 0051 01       		.uleb128 0x1
 837 0052 40       		.uleb128 0x40
 838 0053 06       		.uleb128 0x6
 839 0054 9642     		.uleb128 0x2116
 840 0056 0C       		.uleb128 0xc
 841 0057 00       		.byte	0
 842 0058 00       		.byte	0
 843 0059 07       		.uleb128 0x7
ARM GAS  C:\Users\Milo\AppData\Local\Temp\cc4HBKCM.s 			page 18


 844 005a 2E       		.uleb128 0x2e
 845 005b 01       		.byte	0x1
 846 005c 3F       		.uleb128 0x3f
 847 005d 0C       		.uleb128 0xc
 848 005e 03       		.uleb128 0x3
 849 005f 0E       		.uleb128 0xe
 850 0060 3A       		.uleb128 0x3a
 851 0061 0B       		.uleb128 0xb
 852 0062 3B       		.uleb128 0x3b
 853 0063 0B       		.uleb128 0xb
 854 0064 27       		.uleb128 0x27
 855 0065 0C       		.uleb128 0xc
 856 0066 49       		.uleb128 0x49
 857 0067 13       		.uleb128 0x13
 858 0068 11       		.uleb128 0x11
 859 0069 01       		.uleb128 0x1
 860 006a 12       		.uleb128 0x12
 861 006b 01       		.uleb128 0x1
 862 006c 40       		.uleb128 0x40
 863 006d 06       		.uleb128 0x6
 864 006e 9642     		.uleb128 0x2116
 865 0070 0C       		.uleb128 0xc
 866 0071 01       		.uleb128 0x1
 867 0072 13       		.uleb128 0x13
 868 0073 00       		.byte	0
 869 0074 00       		.byte	0
 870 0075 08       		.uleb128 0x8
 871 0076 05       		.uleb128 0x5
 872 0077 00       		.byte	0
 873 0078 03       		.uleb128 0x3
 874 0079 0E       		.uleb128 0xe
 875 007a 3A       		.uleb128 0x3a
 876 007b 0B       		.uleb128 0xb
 877 007c 3B       		.uleb128 0x3b
 878 007d 0B       		.uleb128 0xb
 879 007e 49       		.uleb128 0x49
 880 007f 13       		.uleb128 0x13
 881 0080 02       		.uleb128 0x2
 882 0081 0A       		.uleb128 0xa
 883 0082 00       		.byte	0
 884 0083 00       		.byte	0
 885 0084 09       		.uleb128 0x9
 886 0085 34       		.uleb128 0x34
 887 0086 00       		.byte	0
 888 0087 03       		.uleb128 0x3
 889 0088 08       		.uleb128 0x8
 890 0089 3A       		.uleb128 0x3a
 891 008a 0B       		.uleb128 0xb
 892 008b 3B       		.uleb128 0x3b
 893 008c 0B       		.uleb128 0xb
 894 008d 49       		.uleb128 0x49
 895 008e 13       		.uleb128 0x13
 896 008f 02       		.uleb128 0x2
 897 0090 0A       		.uleb128 0xa
 898 0091 00       		.byte	0
 899 0092 00       		.byte	0
 900 0093 0A       		.uleb128 0xa
ARM GAS  C:\Users\Milo\AppData\Local\Temp\cc4HBKCM.s 			page 19


 901 0094 34       		.uleb128 0x34
 902 0095 00       		.byte	0
 903 0096 03       		.uleb128 0x3
 904 0097 0E       		.uleb128 0xe
 905 0098 3A       		.uleb128 0x3a
 906 0099 0B       		.uleb128 0xb
 907 009a 3B       		.uleb128 0x3b
 908 009b 0B       		.uleb128 0xb
 909 009c 49       		.uleb128 0x49
 910 009d 13       		.uleb128 0x13
 911 009e 02       		.uleb128 0x2
 912 009f 0A       		.uleb128 0xa
 913 00a0 00       		.byte	0
 914 00a1 00       		.byte	0
 915 00a2 0B       		.uleb128 0xb
 916 00a3 01       		.uleb128 0x1
 917 00a4 01       		.byte	0x1
 918 00a5 49       		.uleb128 0x49
 919 00a6 13       		.uleb128 0x13
 920 00a7 01       		.uleb128 0x1
 921 00a8 13       		.uleb128 0x13
 922 00a9 00       		.byte	0
 923 00aa 00       		.byte	0
 924 00ab 0C       		.uleb128 0xc
 925 00ac 21       		.uleb128 0x21
 926 00ad 00       		.byte	0
 927 00ae 49       		.uleb128 0x49
 928 00af 13       		.uleb128 0x13
 929 00b0 2F       		.uleb128 0x2f
 930 00b1 0B       		.uleb128 0xb
 931 00b2 00       		.byte	0
 932 00b3 00       		.byte	0
 933 00b4 0D       		.uleb128 0xd
 934 00b5 2E       		.uleb128 0x2e
 935 00b6 01       		.byte	0x1
 936 00b7 3F       		.uleb128 0x3f
 937 00b8 0C       		.uleb128 0xc
 938 00b9 03       		.uleb128 0x3
 939 00ba 0E       		.uleb128 0xe
 940 00bb 3A       		.uleb128 0x3a
 941 00bc 0B       		.uleb128 0xb
 942 00bd 3B       		.uleb128 0x3b
 943 00be 0B       		.uleb128 0xb
 944 00bf 11       		.uleb128 0x11
 945 00c0 01       		.uleb128 0x1
 946 00c1 12       		.uleb128 0x12
 947 00c2 01       		.uleb128 0x1
 948 00c3 40       		.uleb128 0x40
 949 00c4 06       		.uleb128 0x6
 950 00c5 9642     		.uleb128 0x2116
 951 00c7 0C       		.uleb128 0xc
 952 00c8 01       		.uleb128 0x1
 953 00c9 13       		.uleb128 0x13
 954 00ca 00       		.byte	0
 955 00cb 00       		.byte	0
 956 00cc 0E       		.uleb128 0xe
 957 00cd 34       		.uleb128 0x34
ARM GAS  C:\Users\Milo\AppData\Local\Temp\cc4HBKCM.s 			page 20


 958 00ce 00       		.byte	0
 959 00cf 03       		.uleb128 0x3
 960 00d0 0E       		.uleb128 0xe
 961 00d1 3A       		.uleb128 0x3a
 962 00d2 0B       		.uleb128 0xb
 963 00d3 3B       		.uleb128 0x3b
 964 00d4 0B       		.uleb128 0xb
 965 00d5 49       		.uleb128 0x49
 966 00d6 13       		.uleb128 0x13
 967 00d7 3F       		.uleb128 0x3f
 968 00d8 0C       		.uleb128 0xc
 969 00d9 02       		.uleb128 0x2
 970 00da 0A       		.uleb128 0xa
 971 00db 00       		.byte	0
 972 00dc 00       		.byte	0
 973 00dd 0F       		.uleb128 0xf
 974 00de 26       		.uleb128 0x26
 975 00df 00       		.byte	0
 976 00e0 49       		.uleb128 0x49
 977 00e1 13       		.uleb128 0x13
 978 00e2 00       		.byte	0
 979 00e3 00       		.byte	0
 980 00e4 00       		.byte	0
 981              		.section	.debug_loc,"",%progbits
 982              	.Ldebug_loc0:
 983              	.LLST0:
 984 0000 00000000 		.4byte	.LFB33
 985 0004 02000000 		.4byte	.LCFI0
 986 0008 0200     		.2byte	0x2
 987 000a 7D       		.byte	0x7d
 988 000b 00       		.sleb128 0
 989 000c 02000000 		.4byte	.LCFI0
 990 0010 04000000 		.4byte	.LCFI1
 991 0014 0200     		.2byte	0x2
 992 0016 7D       		.byte	0x7d
 993 0017 08       		.sleb128 8
 994 0018 04000000 		.4byte	.LCFI1
 995 001c 14000000 		.4byte	.LFE33
 996 0020 0200     		.2byte	0x2
 997 0022 77       		.byte	0x77
 998 0023 08       		.sleb128 8
 999 0024 00000000 		.4byte	0
 1000 0028 00000000 		.4byte	0
 1001              	.LLST1:
 1002 002c 00000000 		.4byte	.LFB34
 1003 0030 02000000 		.4byte	.LCFI2
 1004 0034 0200     		.2byte	0x2
 1005 0036 7D       		.byte	0x7d
 1006 0037 00       		.sleb128 0
 1007 0038 02000000 		.4byte	.LCFI2
 1008 003c 04000000 		.4byte	.LCFI3
 1009 0040 0200     		.2byte	0x2
 1010 0042 7D       		.byte	0x7d
 1011 0043 08       		.sleb128 8
 1012 0044 04000000 		.4byte	.LCFI3
 1013 0048 06000000 		.4byte	.LCFI4
 1014 004c 0200     		.2byte	0x2
ARM GAS  C:\Users\Milo\AppData\Local\Temp\cc4HBKCM.s 			page 21


 1015 004e 7D       		.byte	0x7d
 1016 004f 20       		.sleb128 32
 1017 0050 06000000 		.4byte	.LCFI4
 1018 0054 1C010000 		.4byte	.LFE34
 1019 0058 0200     		.2byte	0x2
 1020 005a 77       		.byte	0x77
 1021 005b 20       		.sleb128 32
 1022 005c 00000000 		.4byte	0
 1023 0060 00000000 		.4byte	0
 1024              	.LLST2:
 1025 0064 00000000 		.4byte	.LFB35
 1026 0068 02000000 		.4byte	.LCFI5
 1027 006c 0200     		.2byte	0x2
 1028 006e 7D       		.byte	0x7d
 1029 006f 00       		.sleb128 0
 1030 0070 02000000 		.4byte	.LCFI5
 1031 0074 04000000 		.4byte	.LCFI6
 1032 0078 0200     		.2byte	0x2
 1033 007a 7D       		.byte	0x7d
 1034 007b 0C       		.sleb128 12
 1035 007c 04000000 		.4byte	.LCFI6
 1036 0080 06000000 		.4byte	.LCFI7
 1037 0084 0200     		.2byte	0x2
 1038 0086 7D       		.byte	0x7d
 1039 0087 30       		.sleb128 48
 1040 0088 06000000 		.4byte	.LCFI7
 1041 008c 24010000 		.4byte	.LFE35
 1042 0090 0200     		.2byte	0x2
 1043 0092 77       		.byte	0x77
 1044 0093 30       		.sleb128 48
 1045 0094 00000000 		.4byte	0
 1046 0098 00000000 		.4byte	0
 1047              	.LLST3:
 1048 009c 00000000 		.4byte	.LFB36
 1049 00a0 02000000 		.4byte	.LCFI8
 1050 00a4 0200     		.2byte	0x2
 1051 00a6 7D       		.byte	0x7d
 1052 00a7 00       		.sleb128 0
 1053 00a8 02000000 		.4byte	.LCFI8
 1054 00ac 04000000 		.4byte	.LCFI9
 1055 00b0 0200     		.2byte	0x2
 1056 00b2 7D       		.byte	0x7d
 1057 00b3 08       		.sleb128 8
 1058 00b4 04000000 		.4byte	.LCFI9
 1059 00b8 06000000 		.4byte	.LCFI10
 1060 00bc 0200     		.2byte	0x2
 1061 00be 7D       		.byte	0x7d
 1062 00bf 10       		.sleb128 16
 1063 00c0 06000000 		.4byte	.LCFI10
 1064 00c4 30000000 		.4byte	.LFE36
 1065 00c8 0200     		.2byte	0x2
 1066 00ca 77       		.byte	0x77
 1067 00cb 10       		.sleb128 16
 1068 00cc 00000000 		.4byte	0
 1069 00d0 00000000 		.4byte	0
 1070              		.section	.debug_aranges,"",%progbits
 1071 0000 34000000 		.4byte	0x34
ARM GAS  C:\Users\Milo\AppData\Local\Temp\cc4HBKCM.s 			page 22


 1072 0004 0200     		.2byte	0x2
 1073 0006 00000000 		.4byte	.Ldebug_info0
 1074 000a 04       		.byte	0x4
 1075 000b 00       		.byte	0
 1076 000c 0000     		.2byte	0
 1077 000e 0000     		.2byte	0
 1078 0010 00000000 		.4byte	.LFB33
 1079 0014 14000000 		.4byte	.LFE33-.LFB33
 1080 0018 00000000 		.4byte	.LFB34
 1081 001c 1C010000 		.4byte	.LFE34-.LFB34
 1082 0020 00000000 		.4byte	.LFB35
 1083 0024 24010000 		.4byte	.LFE35-.LFB35
 1084 0028 00000000 		.4byte	.LFB36
 1085 002c 30000000 		.4byte	.LFE36-.LFB36
 1086 0030 00000000 		.4byte	0
 1087 0034 00000000 		.4byte	0
 1088              		.section	.debug_ranges,"",%progbits
 1089              	.Ldebug_ranges0:
 1090 0000 00000000 		.4byte	.LFB33
 1091 0004 14000000 		.4byte	.LFE33
 1092 0008 00000000 		.4byte	.LFB34
 1093 000c 1C010000 		.4byte	.LFE34
 1094 0010 00000000 		.4byte	.LFB35
 1095 0014 24010000 		.4byte	.LFE35
 1096 0018 00000000 		.4byte	.LFB36
 1097 001c 30000000 		.4byte	.LFE36
 1098 0020 00000000 		.4byte	0
 1099 0024 00000000 		.4byte	0
 1100              		.section	.debug_line,"",%progbits
 1101              	.Ldebug_line0:
 1102 0000 DA000000 		.section	.debug_str,"MS",%progbits,1
 1102      02004500 
 1102      00000201 
 1102      FB0E0D00 
 1102      01010101 
 1103              	.LASF6:
 1104 0000 6C6F6E67 		.ascii	"long long int\000"
 1104      206C6F6E 
 1104      6720696E 
 1104      7400
 1105              	.LASF8:
 1106 000e 756E7369 		.ascii	"unsigned int\000"
 1106      676E6564 
 1106      20696E74 
 1106      00
 1107              	.LASF22:
 1108 001b 433A5C55 		.ascii	"C:\\Users\\Milo\\Documents\\PSoC Creator\\DPI_Deskt"
 1108      73657273 
 1108      5C4D696C 
 1108      6F5C446F 
 1108      63756D65 
 1109 0049 6F705F54 		.ascii	"op_Tester\\Desktop_Tool_Emulator.cydsn\000"
 1109      65737465 
 1109      725C4465 
 1109      736B746F 
 1109      705F546F 
 1110              	.LASF24:
ARM GAS  C:\Users\Milo\AppData\Local\Temp\cc4HBKCM.s 			page 23


 1111 006f 6D61696E 		.ascii	"main\000"
 1111      00
 1112              	.LASF26:
 1113 0074 41444452 		.ascii	"ADDRESS\000"
 1113      45535300 
 1114              	.LASF20:
 1115 007c 474E5520 		.ascii	"GNU C 4.7.3 20130312 (release) [ARM/embedded-4_7-br"
 1115      4320342E 
 1115      372E3320 
 1115      32303133 
 1115      30333132 
 1116 00af 616E6368 		.ascii	"anch revision 196615]\000"
 1116      20726576 
 1116      6973696F 
 1116      6E203139 
 1116      36363135 
 1117              	.LASF23:
 1118 00c5 75696E74 		.ascii	"uint8\000"
 1118      3800
 1119              	.LASF5:
 1120 00cb 6C6F6E67 		.ascii	"long unsigned int\000"
 1120      20756E73 
 1120      69676E65 
 1120      6420696E 
 1120      7400
 1121              	.LASF16:
 1122 00dd 73746174 		.ascii	"status\000"
 1122      757300
 1123              	.LASF7:
 1124 00e4 6C6F6E67 		.ascii	"long long unsigned int\000"
 1124      206C6F6E 
 1124      6720756E 
 1124      7369676E 
 1124      65642069 
 1125              	.LASF19:
 1126 00fb 6932635F 		.ascii	"i2c_read\000"
 1126      72656164 
 1126      00
 1127              	.LASF25:
 1128 0104 636F6E66 		.ascii	"configure\000"
 1128      69677572 
 1128      6500
 1129              	.LASF1:
 1130 010e 756E7369 		.ascii	"unsigned char\000"
 1130      676E6564 
 1130      20636861 
 1130      7200
 1131              	.LASF18:
 1132 011c 6932635F 		.ascii	"i2c_write\000"
 1132      77726974 
 1132      6500
 1133              	.LASF11:
 1134 0126 63686172 		.ascii	"char\000"
 1134      00
 1135              	.LASF4:
 1136 012b 6C6F6E67 		.ascii	"long int\000"
 1136      20696E74 
ARM GAS  C:\Users\Milo\AppData\Local\Temp\cc4HBKCM.s 			page 24


 1136      00
 1137              	.LASF2:
 1138 0134 73686F72 		.ascii	"short int\000"
 1138      7420696E 
 1138      7400
 1139              	.LASF10:
 1140 013e 646F7562 		.ascii	"double\000"
 1140      6C6500
 1141              	.LASF17:
 1142 0145 61727261 		.ascii	"array\000"
 1142      7900
 1143              	.LASF3:
 1144 014b 73686F72 		.ascii	"short unsigned int\000"
 1144      7420756E 
 1144      7369676E 
 1144      65642069 
 1144      6E7400
 1145              	.LASF0:
 1146 015e 7369676E 		.ascii	"signed char\000"
 1146      65642063 
 1146      68617200 
 1147              	.LASF15:
 1148 016a 62756666 		.ascii	"buff_size\000"
 1148      5F73697A 
 1148      6500
 1149              	.LASF9:
 1150 0174 666C6F61 		.ascii	"float\000"
 1150      7400
 1151              	.LASF13:
 1152 017a 73756241 		.ascii	"subAddr\000"
 1152      64647200 
 1153              	.LASF21:
 1154 0182 2E5C6D61 		.ascii	".\\main.c\000"
 1154      696E2E63 
 1154      00
 1155              	.LASF14:
 1156 018b 62756666 		.ascii	"buffer\000"
 1156      657200
 1157              	.LASF12:
 1158 0192 73697A65 		.ascii	"sizetype\000"
 1158      74797065 
 1158      00
 1159              		.ident	"GCC: (GNU Tools for ARM Embedded Processors) 4.7.3 20130312 (release) [ARM/embedded-4_7-br
