ARM GAS  C:\Users\Milo\AppData\Local\Temp\cc4HBKCM.s 			page 1


   1              		.cpu cortex-m0
   2              		.fpu softvfp
   3              		.eabi_attribute 20, 1
   4              		.eabi_attribute 21, 1
   5              		.eabi_attribute 23, 3
   6              		.eabi_attribute 24, 1
   7              		.eabi_attribute 25, 1
   8              		.eabi_attribute 26, 1
   9              		.eabi_attribute 30, 6
  10              		.eabi_attribute 34, 0
  11              		.eabi_attribute 18, 4
  12              		.code	16
  13              		.file	"main.c"
  14              		.text
  15              	.Ltext0:
  16              		.cfi_sections	.debug_frame
  17              		.global	ADDRESS
  18              		.section	.rodata
  19              		.align	2
  20              		.type	ADDRESS, %object
  21              		.size	ADDRESS, 4
  22              	ADDRESS:
  23 0000 0E000000 		.word	14
  24              		.section	.text.main,"ax",%progbits
  25              		.align	2
  26              		.global	main
  27              		.code	16
  28              		.thumb_func
  29              		.type	main, %function
  30              	main:
  31              	.LFB33:
  32              		.file 1 ".\\main.c"
   1:.\main.c      **** /* ========================================
   2:.\main.c      ****  *
   3:.\main.c      ****  * Copyright YOUR COMPANY, THE YEAR
   4:.\main.c      ****  * All Rights Reserved
   5:.\main.c      ****  * UNPUBLISHED, LICENSED SOFTWARE.
   6:.\main.c      ****  *
   7:.\main.c      ****  * CONFIDENTIAL AND PROPRIETARY INFORMATION
   8:.\main.c      ****  * WHICH IS THE PROPERTY OF your company.
   9:.\main.c      ****  *
  10:.\main.c      ****  * ========================================
  11:.\main.c      **** */
  12:.\main.c      **** #include <project.h>
  13:.\main.c      **** #include <stdio.h>
  14:.\main.c      **** 
  15:.\main.c      **** uint8 i2c_write(uint8 subAddr, uint8 *buffer, uint8 buff_size);
  16:.\main.c      **** uint8 i2c_read(uint8 subAddr, uint8 *buffer, uint8 buff_size);
  17:.\main.c      **** void configure();
  18:.\main.c      **** 
  19:.\main.c      **** 
  20:.\main.c      **** const int ADDRESS = 0x0E;
  21:.\main.c      **** int main()
  22:.\main.c      **** {
  33              		.loc 1 22 0
  34              		.cfi_startproc
  35 0000 80B5     		push	{r7, lr}
ARM GAS  C:\Users\Milo\AppData\Local\Temp\cc4HBKCM.s 			page 2


  36              	.LCFI0:
  37              		.cfi_def_cfa_offset 8
  38              		.cfi_offset 7, -8
  39              		.cfi_offset 14, -4
  40 0002 00AF     		add	r7, sp, #0
  41              	.LCFI1:
  42              		.cfi_def_cfa_register 7
  23:.\main.c      ****     /* Place your initialization/startup code here (e.g. MyInst_Start()) */
  24:.\main.c      **** 	I2C_1_Start();
  43              		.loc 1 24 0
  44 0004 FFF7FEFF 		bl	I2C_1_Start
  25:.\main.c      **** 	UART_1_Start();
  45              		.loc 1 25 0
  46 0008 FFF7FEFF 		bl	UART_1_Start
  26:.\main.c      ****     CyGlobalIntEnable;  /* Uncomment this line to enable global interrupts. */
  47              		.loc 1 26 0
  48              	@ 26 ".\main.c" 1
  49 000c 62B6     		CPSIE   i
  50              	@ 0 "" 2
  27:.\main.c      **** 	configure();
  51              		.loc 1 27 0
  52              		.code	16
  53 000e FFF7FEFF 		bl	configure
  54              	.L2:
  28:.\main.c      ****     for(;;)
  29:.\main.c      ****     {
  30:.\main.c      ****     
  31:.\main.c      **** 		
  32:.\main.c      ****     }
  55              		.loc 1 32 0 discriminator 1
  56 0012 FEE7     		b	.L2
  57              		.cfi_endproc
  58              	.LFE33:
  59              		.size	main, .-main
  60              		.section	.rodata
  61              		.align	2
  62              	.LC1:
  63 0004 583A2025 		.ascii	"X: %d \012\000"
  63      64200A00 
  64              		.section	.text.i2c_write,"ax",%progbits
  65              		.align	2
  66              		.global	i2c_write
  67              		.code	16
  68              		.thumb_func
  69              		.type	i2c_write, %function
  70              	i2c_write:
  71              	.LFB34:
  33:.\main.c      **** }
  34:.\main.c      **** uint8 i2c_write(uint8 subAddr, uint8 *buffer, uint8 buff_size) {
  72              		.loc 1 34 0
  73              		.cfi_startproc
  74 0000 80B5     		push	{r7, lr}
  75              	.LCFI2:
  76              		.cfi_def_cfa_offset 8
  77              		.cfi_offset 7, -8
  78              		.cfi_offset 14, -4
  79 0002 86B0     		sub	sp, sp, #24
ARM GAS  C:\Users\Milo\AppData\Local\Temp\cc4HBKCM.s 			page 3


  80              	.LCFI3:
  81              		.cfi_def_cfa_offset 32
  82 0004 00AF     		add	r7, sp, #0
  83              	.LCFI4:
  84              		.cfi_def_cfa_register 7
  85 0006 3960     		str	r1, [r7]
  86 0008 FB1D     		add	r3, r7, #7
  87 000a 011C     		add	r1, r0, #0
  88 000c 1970     		strb	r1, [r3]
  89 000e BB1D     		add	r3, r7, #6
  90 0010 1A70     		strb	r2, [r3]
  35:.\main.c      **** 
  36:.\main.c      **** 	int i;
  37:.\main.c      **** 	uint8 status;
  38:.\main.c      **** 	char array[10];
  39:.\main.c      **** 	I2C_1_I2CMasterClearStatus();
  91              		.loc 1 39 0
  92 0012 FFF7FEFF 		bl	I2C_1_I2CMasterClearStatus
  40:.\main.c      **** 
  41:.\main.c      **** 	
  42:.\main.c      **** 	//Set subaddr
  43:.\main.c      **** 	status = I2C_1_I2CMasterSendStart(ADDRESS, 0);
  93              		.loc 1 43 0
  94 0016 3F4B     		ldr	r3, .L12
  95 0018 1B68     		ldr	r3, [r3]
  96 001a 181C     		mov	r0, r3
  97 001c 0021     		mov	r1, #0
  98 001e FFF7FEFF 		bl	I2C_1_I2CMasterSendStart
  99 0022 021C     		mov	r2, r0
 100 0024 3B1C     		mov	r3, r7
 101 0026 1333     		add	r3, r3, #19
 102 0028 1A70     		strb	r2, [r3]
  44:.\main.c      **** 	if (status != I2C_1_I2C_MSTR_NO_ERROR) {
 103              		.loc 1 44 0
 104 002a 3B1C     		mov	r3, r7
 105 002c 1333     		add	r3, r3, #19
 106 002e 1B78     		ldrb	r3, [r3]
 107 0030 002B     		cmp	r3, #0
 108 0032 15D0     		beq	.L4
  45:.\main.c      **** 		i= sprintf(array, "X: %d \n",status);
 109              		.loc 1 45 0
 110 0034 3B1C     		mov	r3, r7
 111 0036 1333     		add	r3, r3, #19
 112 0038 1B78     		ldrb	r3, [r3]
 113 003a 391C     		mov	r1, r7
 114 003c 0831     		add	r1, r1, #8
 115 003e 364A     		ldr	r2, .L12+4
 116 0040 081C     		mov	r0, r1
 117 0042 111C     		mov	r1, r2
 118 0044 1A1C     		mov	r2, r3
 119 0046 FFF7FEFF 		bl	sprintf
 120 004a 031C     		mov	r3, r0
 121 004c 7B61     		str	r3, [r7, #20]
  46:.\main.c      **** 		UART_1_UartPutString(array);;
 122              		.loc 1 46 0
 123 004e 3B1C     		mov	r3, r7
 124 0050 0833     		add	r3, r3, #8
ARM GAS  C:\Users\Milo\AppData\Local\Temp\cc4HBKCM.s 			page 4


 125 0052 181C     		mov	r0, r3
 126 0054 FFF7FEFF 		bl	UART_1_UartPutString
  47:.\main.c      **** 		return status;
 127              		.loc 1 47 0
 128 0058 3B1C     		mov	r3, r7
 129 005a 1333     		add	r3, r3, #19
 130 005c 1B78     		ldrb	r3, [r3]
 131 005e 54E0     		b	.L11
 132              	.L4:
  48:.\main.c      **** 	}
  49:.\main.c      ****    
  50:.\main.c      ****      
  51:.\main.c      **** 	status = I2C_1_I2CMasterWriteByte(subAddr);
 133              		.loc 1 51 0
 134 0060 FB1D     		add	r3, r7, #7
 135 0062 1B78     		ldrb	r3, [r3]
 136 0064 181C     		mov	r0, r3
 137 0066 FFF7FEFF 		bl	I2C_1_I2CMasterWriteByte
 138 006a 021C     		mov	r2, r0
 139 006c 3B1C     		mov	r3, r7
 140 006e 1333     		add	r3, r3, #19
 141 0070 1A70     		strb	r2, [r3]
  52:.\main.c      **** 	if (status != I2C_1_I2C_MSTR_NO_ERROR) {
 142              		.loc 1 52 0
 143 0072 3B1C     		mov	r3, r7
 144 0074 1333     		add	r3, r3, #19
 145 0076 1B78     		ldrb	r3, [r3]
 146 0078 002B     		cmp	r3, #0
 147 007a 15D0     		beq	.L6
  53:.\main.c      **** 		i= sprintf(array, "X: %d \n",status);
 148              		.loc 1 53 0
 149 007c 3B1C     		mov	r3, r7
 150 007e 1333     		add	r3, r3, #19
 151 0080 1B78     		ldrb	r3, [r3]
 152 0082 391C     		mov	r1, r7
 153 0084 0831     		add	r1, r1, #8
 154 0086 244A     		ldr	r2, .L12+4
 155 0088 081C     		mov	r0, r1
 156 008a 111C     		mov	r1, r2
 157 008c 1A1C     		mov	r2, r3
 158 008e FFF7FEFF 		bl	sprintf
 159 0092 031C     		mov	r3, r0
 160 0094 7B61     		str	r3, [r7, #20]
  54:.\main.c      **** 		UART_1_UartPutString(array);
 161              		.loc 1 54 0
 162 0096 3B1C     		mov	r3, r7
 163 0098 0833     		add	r3, r3, #8
 164 009a 181C     		mov	r0, r3
 165 009c FFF7FEFF 		bl	UART_1_UartPutString
  55:.\main.c      **** 		return status;
 166              		.loc 1 55 0
 167 00a0 3B1C     		mov	r3, r7
 168 00a2 1333     		add	r3, r3, #19
 169 00a4 1B78     		ldrb	r3, [r3]
 170 00a6 30E0     		b	.L11
 171              	.L6:
  56:.\main.c      **** 	}
ARM GAS  C:\Users\Milo\AppData\Local\Temp\cc4HBKCM.s 			page 5


  57:.\main.c      ****                
  58:.\main.c      **** 	for (i=0;i<buff_size;i++) {
 172              		.loc 1 58 0
 173 00a8 0023     		mov	r3, #0
 174 00aa 7B61     		str	r3, [r7, #20]
 175 00ac 16E0     		b	.L7
 176              	.L9:
  59:.\main.c      **** 		status = I2C_1_I2CMasterWriteByte(buffer[i]);
 177              		.loc 1 59 0
 178 00ae 7B69     		ldr	r3, [r7, #20]
 179 00b0 3A68     		ldr	r2, [r7]
 180 00b2 D318     		add	r3, r2, r3
 181 00b4 1B78     		ldrb	r3, [r3]
 182 00b6 181C     		mov	r0, r3
 183 00b8 FFF7FEFF 		bl	I2C_1_I2CMasterWriteByte
 184 00bc 021C     		mov	r2, r0
 185 00be 3B1C     		mov	r3, r7
 186 00c0 1333     		add	r3, r3, #19
 187 00c2 1A70     		strb	r2, [r3]
  60:.\main.c      **** 		if (status != I2C_1_I2C_MSTR_NO_ERROR) {
 188              		.loc 1 60 0
 189 00c4 3B1C     		mov	r3, r7
 190 00c6 1333     		add	r3, r3, #19
 191 00c8 1B78     		ldrb	r3, [r3]
 192 00ca 002B     		cmp	r3, #0
 193 00cc 03D0     		beq	.L8
  61:.\main.c      **** 			return status;
 194              		.loc 1 61 0
 195 00ce 3B1C     		mov	r3, r7
 196 00d0 1333     		add	r3, r3, #19
 197 00d2 1B78     		ldrb	r3, [r3]
 198 00d4 19E0     		b	.L11
 199              	.L8:
  58:.\main.c      **** 	for (i=0;i<buff_size;i++) {
 200              		.loc 1 58 0
 201 00d6 7B69     		ldr	r3, [r7, #20]
 202 00d8 0133     		add	r3, r3, #1
 203 00da 7B61     		str	r3, [r7, #20]
 204              	.L7:
  58:.\main.c      **** 	for (i=0;i<buff_size;i++) {
 205              		.loc 1 58 0 is_stmt 0 discriminator 1
 206 00dc BB1D     		add	r3, r7, #6
 207 00de 1A78     		ldrb	r2, [r3]
 208 00e0 7B69     		ldr	r3, [r7, #20]
 209 00e2 9A42     		cmp	r2, r3
 210 00e4 E3DC     		bgt	.L9
  62:.\main.c      **** 			i= sprintf(array, "X: %d \n",status);
  63:.\main.c      **** 			UART_1_UartPutString(array);
  64:.\main.c      **** 		}
  65:.\main.c      **** 	}
  66:.\main.c      ****                   
  67:.\main.c      **** 		status = I2C_1_I2CMasterSendStop();
 211              		.loc 1 67 0 is_stmt 1
 212 00e6 FFF7FEFF 		bl	I2C_1_I2CMasterSendStop
 213 00ea 021C     		mov	r2, r0
 214 00ec 3B1C     		mov	r3, r7
 215 00ee 1333     		add	r3, r3, #19
ARM GAS  C:\Users\Milo\AppData\Local\Temp\cc4HBKCM.s 			page 6


 216 00f0 1A70     		strb	r2, [r3]
  68:.\main.c      **** 	if (status != I2C_1_I2C_MSTR_NO_ERROR) {
 217              		.loc 1 68 0
 218 00f2 3B1C     		mov	r3, r7
 219 00f4 1333     		add	r3, r3, #19
 220 00f6 1B78     		ldrb	r3, [r3]
 221 00f8 002B     		cmp	r3, #0
 222 00fa 03D0     		beq	.L10
  69:.\main.c      **** 		return status;
 223              		.loc 1 69 0
 224 00fc 3B1C     		mov	r3, r7
 225 00fe 1333     		add	r3, r3, #19
 226 0100 1B78     		ldrb	r3, [r3]
 227 0102 02E0     		b	.L11
 228              	.L10:
  70:.\main.c      **** 		i= sprintf(array, "X: %d \n",status);
  71:.\main.c      **** 		UART_1_UartPutString(array);
  72:.\main.c      **** 	}   
  73:.\main.c      **** 	return status;
 229              		.loc 1 73 0
 230 0104 3B1C     		mov	r3, r7
 231 0106 1333     		add	r3, r3, #19
 232 0108 1B78     		ldrb	r3, [r3]
 233              	.L11:
  74:.\main.c      **** }
 234              		.loc 1 74 0
 235 010a 181C     		mov	r0, r3
 236 010c BD46     		mov	sp, r7
 237 010e 06B0     		add	sp, sp, #24
 238              		@ sp needed for prologue
 239 0110 80BD     		pop	{r7, pc}
 240              	.L13:
 241 0112 C046     		.align	2
 242              	.L12:
 243 0114 00000000 		.word	ADDRESS
 244 0118 04000000 		.word	.LC1
 245              		.cfi_endproc
 246              	.LFE34:
 247              		.size	i2c_write, .-i2c_write
 248              		.section	.text.i2c_read,"ax",%progbits
 249              		.align	2
 250              		.global	i2c_read
 251              		.code	16
 252              		.thumb_func
 253              		.type	i2c_read, %function
 254              	i2c_read:
 255              	.LFB35:
  75:.\main.c      **** uint8 i2c_read(uint8 subAddr, uint8 *buffer, uint8 buff_size) {
 256              		.loc 1 75 0
 257              		.cfi_startproc
 258 0000 90B5     		push	{r4, r7, lr}
 259              	.LCFI5:
 260              		.cfi_def_cfa_offset 12
 261              		.cfi_offset 4, -12
 262              		.cfi_offset 7, -8
 263              		.cfi_offset 14, -4
 264 0002 89B0     		sub	sp, sp, #36
ARM GAS  C:\Users\Milo\AppData\Local\Temp\cc4HBKCM.s 			page 7


 265              	.LCFI6:
 266              		.cfi_def_cfa_offset 48
 267 0004 00AF     		add	r7, sp, #0
 268              	.LCFI7:
 269              		.cfi_def_cfa_register 7
 270 0006 3960     		str	r1, [r7]
 271 0008 FB1D     		add	r3, r7, #7
 272 000a 011C     		add	r1, r0, #0
 273 000c 1970     		strb	r1, [r3]
 274 000e BB1D     		add	r3, r7, #6
 275 0010 1A70     		strb	r2, [r3]
  76:.\main.c      **** 
  77:.\main.c      **** 	uint8 status;
  78:.\main.c      **** 	int i;
  79:.\main.c      **** 	char array[12];
  80:.\main.c      **** 	
  81:.\main.c      **** 	I2C_1_I2CMasterClearStatus();
 276              		.loc 1 81 0
 277 0012 FFF7FEFF 		bl	I2C_1_I2CMasterClearStatus
  82:.\main.c      ****     //UART_1_PutString("make it here?  \n"); 
  83:.\main.c      **** 	//Set subaddr
  84:.\main.c      **** 	status = I2C_1_I2CMasterSendStart(ADDRESS, 0);
 278              		.loc 1 84 0
 279 0016 414B     		ldr	r3, .L24
 280 0018 1B68     		ldr	r3, [r3]
 281 001a 181C     		mov	r0, r3
 282 001c 0021     		mov	r1, #0
 283 001e FFF7FEFF 		bl	I2C_1_I2CMasterSendStart
 284 0022 021C     		mov	r2, r0
 285 0024 3B1C     		mov	r3, r7
 286 0026 1B33     		add	r3, r3, #27
 287 0028 1A70     		strb	r2, [r3]
  85:.\main.c      **** 	if (status != I2C_1_I2C_MSTR_NO_ERROR) {
 288              		.loc 1 85 0
 289 002a 3B1C     		mov	r3, r7
 290 002c 1B33     		add	r3, r3, #27
 291 002e 1B78     		ldrb	r3, [r3]
 292 0030 002B     		cmp	r3, #0
 293 0032 15D0     		beq	.L15
  86:.\main.c      **** 		i= sprintf(array, "X: %d \n",status);
 294              		.loc 1 86 0
 295 0034 3B1C     		mov	r3, r7
 296 0036 1B33     		add	r3, r3, #27
 297 0038 1B78     		ldrb	r3, [r3]
 298 003a 391C     		mov	r1, r7
 299 003c 0C31     		add	r1, r1, #12
 300 003e 384A     		ldr	r2, .L24+4
 301 0040 081C     		mov	r0, r1
 302 0042 111C     		mov	r1, r2
 303 0044 1A1C     		mov	r2, r3
 304 0046 FFF7FEFF 		bl	sprintf
 305 004a 031C     		mov	r3, r0
 306 004c FB61     		str	r3, [r7, #28]
  87:.\main.c      **** 		UART_1_UartPutString(array);
 307              		.loc 1 87 0
 308 004e 3B1C     		mov	r3, r7
 309 0050 0C33     		add	r3, r3, #12
ARM GAS  C:\Users\Milo\AppData\Local\Temp\cc4HBKCM.s 			page 8


 310 0052 181C     		mov	r0, r3
 311 0054 FFF7FEFF 		bl	UART_1_UartPutString
  88:.\main.c      **** 		return status;
 312              		.loc 1 88 0
 313 0058 3B1C     		mov	r3, r7
 314 005a 1B33     		add	r3, r3, #27
 315 005c 1B78     		ldrb	r3, [r3]
 316 005e 58E0     		b	.L23
 317              	.L15:
  89:.\main.c      **** 	}
  90:.\main.c      ****         //UART_1_PutString("make it here?  \n");        
  91:.\main.c      **** 	buffer[0] = I2C_1_I2CMasterReadByte(0);
 318              		.loc 1 91 0
 319 0060 0020     		mov	r0, #0
 320 0062 FFF7FEFF 		bl	I2C_1_I2CMasterReadByte
 321 0066 031C     		mov	r3, r0
 322 0068 DAB2     		uxtb	r2, r3
 323 006a 3B68     		ldr	r3, [r7]
 324 006c 1A70     		strb	r2, [r3]
  92:.\main.c      ****                    
  93:.\main.c      **** 	status = I2C_1_I2CMasterWriteByte(subAddr);
 325              		.loc 1 93 0
 326 006e FB1D     		add	r3, r7, #7
 327 0070 1B78     		ldrb	r3, [r3]
 328 0072 181C     		mov	r0, r3
 329 0074 FFF7FEFF 		bl	I2C_1_I2CMasterWriteByte
 330 0078 021C     		mov	r2, r0
 331 007a 3B1C     		mov	r3, r7
 332 007c 1B33     		add	r3, r3, #27
 333 007e 1A70     		strb	r2, [r3]
  94:.\main.c      **** 	if (status != I2C_1_I2C_MSTR_NO_ERROR) {
 334              		.loc 1 94 0
 335 0080 3B1C     		mov	r3, r7
 336 0082 1B33     		add	r3, r3, #27
 337 0084 1B78     		ldrb	r3, [r3]
 338 0086 002B     		cmp	r3, #0
 339 0088 03D0     		beq	.L17
  95:.\main.c      **** 		return status;
 340              		.loc 1 95 0
 341 008a 3B1C     		mov	r3, r7
 342 008c 1B33     		add	r3, r3, #27
 343 008e 1B78     		ldrb	r3, [r3]
 344 0090 3FE0     		b	.L23
 345              	.L17:
  96:.\main.c      **** 	}
  97:.\main.c      ****                
  98:.\main.c      **** 	status = I2C_1_I2CMasterSendRestart(ADDRESS, 1);
 346              		.loc 1 98 0
 347 0092 224B     		ldr	r3, .L24
 348 0094 1B68     		ldr	r3, [r3]
 349 0096 181C     		mov	r0, r3
 350 0098 0121     		mov	r1, #1
 351 009a FFF7FEFF 		bl	I2C_1_I2CMasterSendRestart
 352 009e 021C     		mov	r2, r0
 353 00a0 3B1C     		mov	r3, r7
 354 00a2 1B33     		add	r3, r3, #27
 355 00a4 1A70     		strb	r2, [r3]
ARM GAS  C:\Users\Milo\AppData\Local\Temp\cc4HBKCM.s 			page 9


  99:.\main.c      **** 	if (status != I2C_1_I2C_MSTR_NO_ERROR) {
 356              		.loc 1 99 0
 357 00a6 3B1C     		mov	r3, r7
 358 00a8 1B33     		add	r3, r3, #27
 359 00aa 1B78     		ldrb	r3, [r3]
 360 00ac 002B     		cmp	r3, #0
 361 00ae 03D0     		beq	.L18
 100:.\main.c      **** 		return status;
 362              		.loc 1 100 0
 363 00b0 3B1C     		mov	r3, r7
 364 00b2 1B33     		add	r3, r3, #27
 365 00b4 1B78     		ldrb	r3, [r3]
 366 00b6 2CE0     		b	.L23
 367              	.L18:
 101:.\main.c      **** 	}               
 102:.\main.c      ****                
 103:.\main.c      **** 	for (i=0;i<buff_size;i++) {
 368              		.loc 1 103 0
 369 00b8 0023     		mov	r3, #0
 370 00ba FB61     		str	r3, [r7, #28]
 371 00bc 14E0     		b	.L19
 372              	.L21:
 104:.\main.c      **** 		buffer[i] = I2C_1_I2CMasterReadByte( (i<(buff_size-1) ) );
 373              		.loc 1 104 0 discriminator 2
 374 00be FB69     		ldr	r3, [r7, #28]
 375 00c0 3A68     		ldr	r2, [r7]
 376 00c2 D418     		add	r4, r2, r3
 377 00c4 BB1D     		add	r3, r7, #6
 378 00c6 1B78     		ldrb	r3, [r3]
 379 00c8 591E     		sub	r1, r3, #1
 380 00ca 0123     		mov	r3, #1
 381 00cc FA69     		ldr	r2, [r7, #28]
 382 00ce 9142     		cmp	r1, r2
 383 00d0 00DC     		bgt	.L20
 384 00d2 0023     		mov	r3, #0
 385              	.L20:
 386 00d4 DBB2     		uxtb	r3, r3
 387 00d6 181C     		mov	r0, r3
 388 00d8 FFF7FEFF 		bl	I2C_1_I2CMasterReadByte
 389 00dc 031C     		mov	r3, r0
 390 00de DBB2     		uxtb	r3, r3
 391 00e0 2370     		strb	r3, [r4]
 103:.\main.c      **** 	for (i=0;i<buff_size;i++) {
 392              		.loc 1 103 0 discriminator 2
 393 00e2 FB69     		ldr	r3, [r7, #28]
 394 00e4 0133     		add	r3, r3, #1
 395 00e6 FB61     		str	r3, [r7, #28]
 396              	.L19:
 103:.\main.c      **** 	for (i=0;i<buff_size;i++) {
 397              		.loc 1 103 0 is_stmt 0 discriminator 1
 398 00e8 BB1D     		add	r3, r7, #6
 399 00ea 1A78     		ldrb	r2, [r3]
 400 00ec FB69     		ldr	r3, [r7, #28]
 401 00ee 9A42     		cmp	r2, r3
 402 00f0 E5DC     		bgt	.L21
 105:.\main.c      **** 	}
 106:.\main.c      ****  
ARM GAS  C:\Users\Milo\AppData\Local\Temp\cc4HBKCM.s 			page 10


 107:.\main.c      **** 	status = I2C_1_I2CMasterSendStop();
 403              		.loc 1 107 0 is_stmt 1
 404 00f2 FFF7FEFF 		bl	I2C_1_I2CMasterSendStop
 405 00f6 021C     		mov	r2, r0
 406 00f8 3B1C     		mov	r3, r7
 407 00fa 1B33     		add	r3, r3, #27
 408 00fc 1A70     		strb	r2, [r3]
 108:.\main.c      **** 	if (status != I2C_1_I2C_MSTR_NO_ERROR) {
 409              		.loc 1 108 0
 410 00fe 3B1C     		mov	r3, r7
 411 0100 1B33     		add	r3, r3, #27
 412 0102 1B78     		ldrb	r3, [r3]
 413 0104 002B     		cmp	r3, #0
 414 0106 03D0     		beq	.L22
 109:.\main.c      ****         return status;
 415              		.loc 1 109 0
 416 0108 3B1C     		mov	r3, r7
 417 010a 1B33     		add	r3, r3, #27
 418 010c 1B78     		ldrb	r3, [r3]
 419 010e 00E0     		b	.L23
 420              	.L22:
 110:.\main.c      ****  	}  
 111:.\main.c      **** 	return 0;
 421              		.loc 1 111 0
 422 0110 0023     		mov	r3, #0
 423              	.L23:
 112:.\main.c      **** }
 424              		.loc 1 112 0
 425 0112 181C     		mov	r0, r3
 426 0114 BD46     		mov	sp, r7
 427 0116 09B0     		add	sp, sp, #36
 428              		@ sp needed for prologue
 429 0118 90BD     		pop	{r4, r7, pc}
 430              	.L25:
 431 011a C046     		.align	2
 432              	.L24:
 433 011c 00000000 		.word	ADDRESS
 434 0120 04000000 		.word	.LC1
 435              		.cfi_endproc
 436              	.LFE35:
 437              		.size	i2c_read, .-i2c_read
 438              		.section	.text.configure,"ax",%progbits
 439              		.align	2
 440              		.global	configure
 441              		.code	16
 442              		.thumb_func
 443              		.type	configure, %function
 444              	configure:
 445              	.LFB36:
 113:.\main.c      **** void configure()
 114:.\main.c      **** {
 446              		.loc 1 114 0
 447              		.cfi_startproc
 448 0000 80B5     		push	{r7, lr}
 449              	.LCFI8:
 450              		.cfi_def_cfa_offset 8
 451              		.cfi_offset 7, -8
ARM GAS  C:\Users\Milo\AppData\Local\Temp\cc4HBKCM.s 			page 11


 452              		.cfi_offset 14, -4
 453 0002 82B0     		sub	sp, sp, #8
 454              	.LCFI9:
 455              		.cfi_def_cfa_offset 16
 456 0004 00AF     		add	r7, sp, #0
 457              	.LCFI10:
 458              		.cfi_def_cfa_register 7
 115:.\main.c      **** 	uint8 array[2];
 116:.\main.c      **** 	array [0] = 0x80;
 459              		.loc 1 116 0
 460 0006 3B1D     		add	r3, r7, #4
 461 0008 8022     		mov	r2, #128
 462 000a 1A70     		strb	r2, [r3]
 117:.\main.c      **** 	i2c_write(0x11,array,1);
 463              		.loc 1 117 0
 464 000c 3B1D     		add	r3, r7, #4
 465 000e 1120     		mov	r0, #17
 466 0010 191C     		mov	r1, r3
 467 0012 0122     		mov	r2, #1
 468 0014 FFF7FEFF 		bl	i2c_write
 118:.\main.c      **** 	
 119:.\main.c      **** 	array [0] = 1;
 469              		.loc 1 119 0
 470 0018 3B1D     		add	r3, r7, #4
 471 001a 0122     		mov	r2, #1
 472 001c 1A70     		strb	r2, [r3]
 120:.\main.c      **** 	i2c_write(0x10,array,1);
 473              		.loc 1 120 0
 474 001e 3B1D     		add	r3, r7, #4
 475 0020 1020     		mov	r0, #16
 476 0022 191C     		mov	r1, r3
 477 0024 0122     		mov	r2, #1
 478 0026 FFF7FEFF 		bl	i2c_write
 121:.\main.c      **** }
 479              		.loc 1 121 0
 480 002a BD46     		mov	sp, r7
 481 002c 02B0     		add	sp, sp, #8
 482              		@ sp needed for prologue
 483 002e 80BD     		pop	{r7, pc}
 484              		.cfi_endproc
 485              	.LFE36:
 486              		.size	configure, .-configure
 487              		.text
 488              	.Letext0:
 489              		.file 2 "./Generated_Source/PSoC4/cytypes.h"